
GccApplication10.elf:     file format elf32-avr

Sections:
Idx Name          Size      VMA       LMA       File off  Algn
  0 .data         00000528  00800100  00006092  00006146  2**0
                  CONTENTS, ALLOC, LOAD, DATA
  1 .text         00006092  00000000  00000000  000000b4  2**1
                  CONTENTS, ALLOC, LOAD, READONLY, CODE
  2 .bss          00000212  00800628  00800628  0000666e  2**0
                  ALLOC
  3 .eeprom       0000000a  00810000  00810000  0000666e  2**0
                  CONTENTS, ALLOC, LOAD, DATA
  4 .comment      00000030  00000000  00000000  00006678  2**0
                  CONTENTS, READONLY
  5 .note.gnu.avr.deviceinfo 00000040  00000000  00000000  000066a8  2**2
                  CONTENTS, READONLY
  6 .debug_aranges 00000230  00000000  00000000  000066e8  2**3
                  CONTENTS, READONLY, DEBUGGING
  7 .debug_info   0000792a  00000000  00000000  00006918  2**0
                  CONTENTS, READONLY, DEBUGGING
  8 .debug_abbrev 00000bed  00000000  00000000  0000e242  2**0
                  CONTENTS, READONLY, DEBUGGING
  9 .debug_line   00003afc  00000000  00000000  0000ee2f  2**0
                  CONTENTS, READONLY, DEBUGGING
 10 .debug_frame  00000644  00000000  00000000  0001292c  2**2
                  CONTENTS, READONLY, DEBUGGING
 11 .debug_str    0000099a  00000000  00000000  00012f70  2**0
                  CONTENTS, READONLY, DEBUGGING
 12 .debug_loc    0000292e  00000000  00000000  0001390a  2**0
                  CONTENTS, READONLY, DEBUGGING
 13 .debug_ranges 000001c0  00000000  00000000  00016238  2**0
                  CONTENTS, READONLY, DEBUGGING

Disassembly of section .text:

00000000 <__vectors>:
       0:	74 c1       	rjmp	.+744    	; 0x2ea <__ctors_end>
       2:	00 00       	nop
       4:	91 c1       	rjmp	.+802    	; 0x328 <__bad_interrupt>
       6:	00 00       	nop
       8:	8f c1       	rjmp	.+798    	; 0x328 <__bad_interrupt>
       a:	00 00       	nop
       c:	8d c1       	rjmp	.+794    	; 0x328 <__bad_interrupt>
       e:	00 00       	nop
      10:	8b c1       	rjmp	.+790    	; 0x328 <__bad_interrupt>
      12:	00 00       	nop
      14:	89 c1       	rjmp	.+786    	; 0x328 <__bad_interrupt>
      16:	00 00       	nop
      18:	87 c1       	rjmp	.+782    	; 0x328 <__bad_interrupt>
      1a:	00 00       	nop
      1c:	85 c1       	rjmp	.+778    	; 0x328 <__bad_interrupt>
      1e:	00 00       	nop
      20:	83 c1       	rjmp	.+774    	; 0x328 <__bad_interrupt>
      22:	00 00       	nop
      24:	81 c1       	rjmp	.+770    	; 0x328 <__bad_interrupt>
      26:	00 00       	nop
      28:	7f c1       	rjmp	.+766    	; 0x328 <__bad_interrupt>
      2a:	00 00       	nop
      2c:	7d c1       	rjmp	.+762    	; 0x328 <__bad_interrupt>
      2e:	00 00       	nop
      30:	7b c1       	rjmp	.+758    	; 0x328 <__bad_interrupt>
      32:	00 00       	nop
      34:	ed c1       	rjmp	.+986    	; 0x410 <__vector_13>
      36:	00 00       	nop
      38:	77 c1       	rjmp	.+750    	; 0x328 <__bad_interrupt>
      3a:	00 00       	nop
      3c:	75 c1       	rjmp	.+746    	; 0x328 <__bad_interrupt>
      3e:	00 00       	nop
      40:	73 c1       	rjmp	.+742    	; 0x328 <__bad_interrupt>
      42:	00 00       	nop
      44:	71 c1       	rjmp	.+738    	; 0x328 <__bad_interrupt>
      46:	00 00       	nop
      48:	6f c1       	rjmp	.+734    	; 0x328 <__bad_interrupt>
      4a:	00 00       	nop
      4c:	6d c1       	rjmp	.+730    	; 0x328 <__bad_interrupt>
      4e:	00 00       	nop
      50:	6b c1       	rjmp	.+726    	; 0x328 <__bad_interrupt>
      52:	00 00       	nop
      54:	69 c1       	rjmp	.+722    	; 0x328 <__bad_interrupt>
      56:	00 00       	nop
      58:	67 c1       	rjmp	.+718    	; 0x328 <__bad_interrupt>
      5a:	00 00       	nop
      5c:	65 c1       	rjmp	.+714    	; 0x328 <__bad_interrupt>
      5e:	00 00       	nop
      60:	63 c1       	rjmp	.+710    	; 0x328 <__bad_interrupt>
      62:	00 00       	nop
      64:	61 c1       	rjmp	.+706    	; 0x328 <__bad_interrupt>
      66:	00 00       	nop
      68:	5f c1       	rjmp	.+702    	; 0x328 <__bad_interrupt>
      6a:	00 00       	nop
      6c:	5d c1       	rjmp	.+698    	; 0x328 <__bad_interrupt>
      6e:	00 00       	nop
      70:	5b c1       	rjmp	.+694    	; 0x328 <__bad_interrupt>
      72:	00 00       	nop
      74:	59 c1       	rjmp	.+690    	; 0x328 <__bad_interrupt>
      76:	00 00       	nop
      78:	57 c1       	rjmp	.+686    	; 0x328 <__bad_interrupt>
      7a:	00 00       	nop
      7c:	55 c1       	rjmp	.+682    	; 0x328 <__bad_interrupt>
      7e:	00 00       	nop
      80:	53 c1       	rjmp	.+678    	; 0x328 <__bad_interrupt>
      82:	00 00       	nop
      84:	51 c1       	rjmp	.+674    	; 0x328 <__bad_interrupt>
      86:	00 00       	nop
      88:	4f c1       	rjmp	.+670    	; 0x328 <__bad_interrupt>
      8a:	00 00       	nop
      8c:	a2 21       	and	r26, r2
      8e:	b1 21       	and	r27, r1
      90:	c0 21       	and	r28, r0
      92:	cf 21       	and	r28, r15
      94:	de 21       	and	r29, r14
      96:	ed 21       	and	r30, r13
      98:	02 22       	and	r0, r18
      9a:	27 22       	and	r2, r23
      9c:	4c 22       	and	r4, r28
      9e:	71 22       	and	r7, r17
      a0:	96 22       	and	r9, r22
      a2:	bb 22       	and	r11, r27
      a4:	ec 22       	and	r14, r28
      a6:	27 23       	and	r18, r23
      a8:	62 23       	and	r22, r18
      aa:	9d 23       	and	r25, r29
      ac:	d8 23       	and	r29, r24
      ae:	13 24       	eor	r1, r3
      b0:	4e 24       	eor	r4, r14
      b2:	89 24       	eor	r8, r9
      b4:	c4 24       	eor	r12, r4
      b6:	16 25       	eor	r17, r6
      b8:	56 25       	eor	r21, r6
      ba:	96 25       	eor	r25, r6
      bc:	d6 25       	eor	r29, r6
      be:	16 26       	eor	r1, r22
      c0:	56 26       	eor	r5, r22
      c2:	96 26       	eor	r9, r22
      c4:	d5 26       	eor	r13, r21
      c6:	14 27       	eor	r17, r20
      c8:	53 27       	eor	r21, r19
      ca:	92 27       	eor	r25, r18
      cc:	d1 27       	eor	r29, r17
      ce:	10 28       	or	r1, r0
      d0:	4f 28       	or	r4, r15
      d2:	8e 28       	or	r8, r14
      d4:	cd 28       	or	r12, r13
      d6:	0c 29       	or	r16, r12
      d8:	4b 29       	or	r20, r11
      da:	8a 29       	or	r24, r10
      dc:	c9 29       	or	r28, r9
      de:	08 2a       	or	r0, r24
      e0:	5a 2a       	or	r5, r26
      e2:	8f 2a       	or	r8, r31
      e4:	c4 2a       	or	r12, r20
      e6:	f9 2a       	or	r15, r25
      e8:	2e 2b       	or	r18, r30
      ea:	63 2b       	or	r22, r19
      ec:	98 2b       	or	r25, r24
      ee:	cd 2b       	or	r28, r29
      f0:	02 2c       	mov	r0, r2
      f2:	37 2c       	mov	r3, r7
      f4:	6c 2c       	mov	r6, r12
      f6:	a1 2c       	mov	r10, r1
      f8:	d6 2c       	mov	r13, r6
      fa:	0b 2d       	mov	r16, r11
      fc:	40 2d       	mov	r20, r0
      fe:	75 2d       	mov	r23, r5
     100:	aa 2d       	mov	r26, r10
     102:	df 2d       	mov	r29, r15
     104:	14 2e       	mov	r1, r20
     106:	49 2e       	mov	r4, r25
     108:	7e 2e       	mov	r7, r30

0000010a <CHARSET>:
     10a:	00 00 00 00 00 00 00 5f 00 00 00 07 00 07 00 14     ......._........
     11a:	7f 14 7f 14 24 2a 7f 2a 12 23 13 08 64 62 36 49     ....$*.*.#..db6I
     12a:	55 22 50 00 05 03 00 00 00 1c 22 41 00 00 41 22     U"P......."A..A"
     13a:	1c 00 14 08 3e 08 14 08 08 3e 08 08 00 50 30 00     ....>....>...P0.
     14a:	00 08 08 08 08 08 00 60 60 00 00 20 10 08 04 02     .......``.. ....
     15a:	3e 51 49 45 3e 00 42 7f 40 00 42 61 51 49 46 21     >QIE>.B.@.BaQIF!
     16a:	41 45 4b 31 18 14 12 7f 10 27 45 45 45 39 3c 4a     AEK1.....'EEE9<J
     17a:	49 49 30 01 71 09 05 03 36 49 49 49 36 06 49 49     II0.q...6III6.II
     18a:	29 1e 00 36 36 00 00 00 56 36 00 00 08 14 22 41     )..66...V6...."A
     19a:	00 14 14 14 14 14 00 41 22 14 08 02 01 51 09 06     .......A"....Q..
     1aa:	32 49 79 41 3e 7e 11 11 11 7e 7f 49 49 49 36 3e     2IyA>~...~.III6>
     1ba:	41 41 41 22 7f 41 41 22 1c 7f 49 49 49 41 7f 09     AAA".AA"..IIIA..
     1ca:	09 09 01 3e 41 49 49 7a 7f 08 08 08 7f 00 41 7f     ...>AIIz......A.
     1da:	41 00 20 40 41 3f 01 7f 08 14 22 41 7f 40 40 40     A. @A?...."A.@@@
     1ea:	40 7f 02 0c 02 7f 7f 04 08 10 7f 3e 41 41 41 3e     @..........>AAA>
     1fa:	7f 09 09 09 06 3e 41 51 21 5e 7f 09 19 29 46 46     .....>AQ!^...)FF
     20a:	49 49 49 31 01 01 7f 01 01 3f 40 40 40 3f 1f 20     III1.....?@@@?. 
     21a:	40 20 1f 3f 40 38 40 3f 63 14 08 14 63 07 08 70     @ .?@8@?c...c..p
     22a:	08 07 61 51 49 45 43 00 7f 41 41 00 02 04 08 10     ..aQIEC..AA.....
     23a:	20 00 41 41 7f 00 04 02 01 02 04 40 40 40 40 40      .AA.......@@@@@
     24a:	00 01 02 04 00 20 54 54 54 78 7f 48 44 44 38 38     ..... TTTx.HDD88
     25a:	44 44 44 20 38 44 44 48 7f 38 54 54 54 18 08 7e     DDD 8DDH.8TTT..~
     26a:	09 01 02 0c 52 52 52 3e 7f 08 04 04 78 00 44 7d     ....RRR>....x.D}
     27a:	40 00 20 40 44 3d 00 7f 10 28 44 00 00 41 7f 40     @. @D=...(D..A.@
     28a:	00 7c 04 18 04 78 7c 08 04 04 78 38 44 44 44 38     .|...x|...x8DDD8
     29a:	7c 14 14 14 08 08 14 14 18 7c 7c 08 04 04 08 48     |........||....H
     2aa:	54 54 54 20 04 3f 44 40 20 3c 40 40 20 7c 1c 20     TTT .?D@ <@@ |. 
     2ba:	40 20 1c 3c 40 30 40 3c 44 28 10 28 44 0c 50 50     @ .<@0@<D(.(D.PP
     2ca:	50 3c 44 64 54 4c 44 00 08 36 41 00 00 00 7f 00     P<DdTLD..6A.....
     2da:	00 00 41 36 08 00 10 08 08 10 08 30 60 18 04 02     ..A6.......0`...

000002ea <__ctors_end>:
     2ea:	11 24       	eor	r1, r1
     2ec:	1f be       	out	0x3f, r1	; 63
     2ee:	cf ef       	ldi	r28, 0xFF	; 255
     2f0:	d0 e4       	ldi	r29, 0x40	; 64
     2f2:	de bf       	out	0x3e, r29	; 62
     2f4:	cd bf       	out	0x3d, r28	; 61

000002f6 <__do_copy_data>:
     2f6:	16 e0       	ldi	r17, 0x06	; 6
     2f8:	a0 e0       	ldi	r26, 0x00	; 0
     2fa:	b1 e0       	ldi	r27, 0x01	; 1
     2fc:	e2 e9       	ldi	r30, 0x92	; 146
     2fe:	f0 e6       	ldi	r31, 0x60	; 96
     300:	00 e0       	ldi	r16, 0x00	; 0
     302:	0b bf       	out	0x3b, r16	; 59
     304:	02 c0       	rjmp	.+4      	; 0x30a <__do_copy_data+0x14>
     306:	07 90       	elpm	r0, Z+
     308:	0d 92       	st	X+, r0
     30a:	a8 32       	cpi	r26, 0x28	; 40
     30c:	b1 07       	cpc	r27, r17
     30e:	d9 f7       	brne	.-10     	; 0x306 <__do_copy_data+0x10>

00000310 <__do_clear_bss>:
     310:	28 e0       	ldi	r18, 0x08	; 8
     312:	a8 e2       	ldi	r26, 0x28	; 40
     314:	b6 e0       	ldi	r27, 0x06	; 6
     316:	01 c0       	rjmp	.+2      	; 0x31a <.do_clear_bss_start>

00000318 <.do_clear_bss_loop>:
     318:	1d 92       	st	X+, r1

0000031a <.do_clear_bss_start>:
     31a:	aa 33       	cpi	r26, 0x3A	; 58
     31c:	b2 07       	cpc	r27, r18
     31e:	e1 f7       	brne	.-8      	; 0x318 <.do_clear_bss_loop>
     320:	0e 94 d5 2e 	call	0x5daa	; 0x5daa <main>
     324:	0c 94 47 30 	jmp	0x608e	; 0x608e <_exit>

00000328 <__bad_interrupt>:
     328:	6b ce       	rjmp	.-810    	; 0x0 <__vectors>

0000032a <time>:
     32a:	fc 01       	movw	r30, r24
     32c:	0f b6       	in	r0, 0x3f	; 63
     32e:	f8 94       	cli
     330:	60 91 36 08 	lds	r22, 0x0836	; 0x800836 <__system_time>
     334:	70 91 37 08 	lds	r23, 0x0837	; 0x800837 <__system_time+0x1>
     338:	80 91 38 08 	lds	r24, 0x0838	; 0x800838 <__system_time+0x2>
     33c:	90 91 39 08 	lds	r25, 0x0839	; 0x800839 <__system_time+0x3>
     340:	0f be       	out	0x3f, r0	; 63
     342:	30 97       	sbiw	r30, 0x00	; 0
     344:	21 f0       	breq	.+8      	; 0x34e <time+0x24>
     346:	60 83       	st	Z, r22
     348:	71 83       	std	Z+1, r23	; 0x01
     34a:	82 83       	std	Z+2, r24	; 0x02
     34c:	93 83       	std	Z+3, r25	; 0x03
     34e:	08 95       	ret

00000350 <write>:
}

void nokia_lcd_set_cursor(uint8_t x, uint8_t y)
{
	nokia_lcd.cursor_x = x;
	nokia_lcd.cursor_y = y;
     350:	2a 98       	cbi	0x05, 2	; 5
     352:	66 23       	and	r22, r22
     354:	11 f0       	breq	.+4      	; 0x35a <write+0xa>
     356:	2c 9a       	sbi	0x05, 4	; 5
     358:	15 c0       	rjmp	.+42     	; 0x384 <write+0x34>
     35a:	2c 98       	cbi	0x05, 4	; 5
     35c:	13 c0       	rjmp	.+38     	; 0x384 <write+0x34>
     35e:	ac 01       	movw	r20, r24
     360:	02 2e       	mov	r0, r18
     362:	02 c0       	rjmp	.+4      	; 0x368 <write+0x18>
     364:	55 95       	asr	r21
     366:	47 95       	ror	r20
     368:	0a 94       	dec	r0
     36a:	e2 f7       	brpl	.-8      	; 0x364 <write+0x14>
     36c:	40 ff       	sbrs	r20, 0
     36e:	02 c0       	rjmp	.+4      	; 0x374 <write+0x24>
     370:	2d 9a       	sbi	0x05, 5	; 5
     372:	01 c0       	rjmp	.+2      	; 0x376 <write+0x26>
     374:	2d 98       	cbi	0x05, 5	; 5
     376:	2e 9a       	sbi	0x05, 6	; 5
     378:	2e 98       	cbi	0x05, 6	; 5
     37a:	21 50       	subi	r18, 0x01	; 1
     37c:	31 09       	sbc	r19, r1
     37e:	78 f7       	brcc	.-34     	; 0x35e <write+0xe>
     380:	2a 9a       	sbi	0x05, 2	; 5
     382:	08 95       	ret
     384:	27 e0       	ldi	r18, 0x07	; 7
     386:	30 e0       	ldi	r19, 0x00	; 0
     388:	90 e0       	ldi	r25, 0x00	; 0
     38a:	e9 cf       	rjmp	.-46     	; 0x35e <write+0xe>

0000038c <write_cmd>:
     38c:	60 e0       	ldi	r22, 0x00	; 0
     38e:	e0 cf       	rjmp	.-64     	; 0x350 <write>
     390:	08 95       	ret

00000392 <delay_ms>:
     392:	18 16       	cp	r1, r24
     394:	19 06       	cpc	r1, r25
     396:	5c f0       	brlt	.+22     	; 0x3ae <delay_ms+0x1c>
     398:	08 95       	ret
     39a:	00 00       	nop
     39c:	21 50       	subi	r18, 0x01	; 1
     39e:	31 09       	sbc	r19, r1
     3a0:	e1 f7       	brne	.-8      	; 0x39a <delay_ms+0x8>
     3a2:	4f 5f       	subi	r20, 0xFF	; 255
     3a4:	5f 4f       	sbci	r21, 0xFF	; 255
     3a6:	84 17       	cp	r24, r20
     3a8:	95 07       	cpc	r25, r21
     3aa:	19 f4       	brne	.+6      	; 0x3b2 <delay_ms+0x20>
     3ac:	08 95       	ret
     3ae:	40 e0       	ldi	r20, 0x00	; 0
     3b0:	50 e0       	ldi	r21, 0x00	; 0
     3b2:	27 e0       	ldi	r18, 0x07	; 7
     3b4:	33 e0       	ldi	r19, 0x03	; 3
     3b6:	f1 cf       	rjmp	.-30     	; 0x39a <delay_ms+0x8>

000003b8 <LCD_WriteCommand>:
     3b8:	28 98       	cbi	0x05, 0	; 5
     3ba:	8b b9       	out	0x0b, r24	; 11
     3bc:	29 9a       	sbi	0x05, 1	; 5
     3be:	00 00       	nop
     3c0:	29 98       	cbi	0x05, 1	; 5
     3c2:	82 e0       	ldi	r24, 0x02	; 2
     3c4:	90 e0       	ldi	r25, 0x00	; 0
     3c6:	e5 cf       	rjmp	.-54     	; 0x392 <delay_ms>
     3c8:	08 95       	ret

000003ca <LCD_ClearScreen>:
     3ca:	81 e0       	ldi	r24, 0x01	; 1
     3cc:	f5 cf       	rjmp	.-22     	; 0x3b8 <LCD_WriteCommand>
     3ce:	08 95       	ret

000003d0 <LCD_Cursor>:
     3d0:	81 31       	cpi	r24, 0x11	; 17
     3d2:	18 f4       	brcc	.+6      	; 0x3da <LCD_Cursor+0xa>
     3d4:	81 58       	subi	r24, 0x81	; 129
     3d6:	f0 cf       	rjmp	.-32     	; 0x3b8 <LCD_WriteCommand>
     3d8:	08 95       	ret
     3da:	81 55       	subi	r24, 0x51	; 81
     3dc:	ed cf       	rjmp	.-38     	; 0x3b8 <LCD_WriteCommand>
     3de:	08 95       	ret

000003e0 <LCD_init>:
     3e0:	84 e6       	ldi	r24, 0x64	; 100
     3e2:	90 e0       	ldi	r25, 0x00	; 0
     3e4:	d6 df       	rcall	.-84     	; 0x392 <delay_ms>
     3e6:	88 e3       	ldi	r24, 0x38	; 56
     3e8:	e7 df       	rcall	.-50     	; 0x3b8 <LCD_WriteCommand>
     3ea:	86 e0       	ldi	r24, 0x06	; 6
     3ec:	e5 df       	rcall	.-54     	; 0x3b8 <LCD_WriteCommand>
     3ee:	8f e0       	ldi	r24, 0x0F	; 15
     3f0:	e3 df       	rcall	.-58     	; 0x3b8 <LCD_WriteCommand>
     3f2:	81 e0       	ldi	r24, 0x01	; 1
     3f4:	e1 df       	rcall	.-62     	; 0x3b8 <LCD_WriteCommand>
     3f6:	8a e0       	ldi	r24, 0x0A	; 10
     3f8:	90 e0       	ldi	r25, 0x00	; 0
     3fa:	cb cf       	rjmp	.-106    	; 0x392 <delay_ms>
     3fc:	08 95       	ret

000003fe <LCD_WriteData>:
     3fe:	28 9a       	sbi	0x05, 0	; 5
     400:	8b b9       	out	0x0b, r24	; 11
     402:	29 9a       	sbi	0x05, 1	; 5
     404:	00 00       	nop
     406:	29 98       	cbi	0x05, 1	; 5
     408:	81 e0       	ldi	r24, 0x01	; 1
     40a:	90 e0       	ldi	r25, 0x00	; 0
     40c:	c2 cf       	rjmp	.-124    	; 0x392 <delay_ms>
     40e:	08 95       	ret

00000410 <__vector_13>:
     410:	1f 92       	push	r1
     412:	0f 92       	push	r0
     414:	0f b6       	in	r0, 0x3f	; 63
     416:	0f 92       	push	r0
     418:	11 24       	eor	r1, r1
     41a:	8f 93       	push	r24
     41c:	9f 93       	push	r25
     41e:	af 93       	push	r26
     420:	bf 93       	push	r27
     422:	80 91 2a 08 	lds	r24, 0x082A	; 0x80082a <_avr_timer_cntcurr>
     426:	90 91 2b 08 	lds	r25, 0x082B	; 0x80082b <_avr_timer_cntcurr+0x1>
     42a:	a0 91 2c 08 	lds	r26, 0x082C	; 0x80082c <_avr_timer_cntcurr+0x2>
     42e:	b0 91 2d 08 	lds	r27, 0x082D	; 0x80082d <_avr_timer_cntcurr+0x3>
     432:	01 97       	sbiw	r24, 0x01	; 1
     434:	a1 09       	sbc	r26, r1
     436:	b1 09       	sbc	r27, r1
     438:	80 93 2a 08 	sts	0x082A, r24	; 0x80082a <_avr_timer_cntcurr>
     43c:	90 93 2b 08 	sts	0x082B, r25	; 0x80082b <_avr_timer_cntcurr+0x1>
     440:	a0 93 2c 08 	sts	0x082C, r26	; 0x80082c <_avr_timer_cntcurr+0x2>
     444:	b0 93 2d 08 	sts	0x082D, r27	; 0x80082d <_avr_timer_cntcurr+0x3>
     448:	89 2b       	or	r24, r25
     44a:	8a 2b       	or	r24, r26
     44c:	8b 2b       	or	r24, r27
     44e:	99 f4       	brne	.+38     	; 0x476 <__vector_13+0x66>
     450:	81 e0       	ldi	r24, 0x01	; 1
     452:	80 93 2e 08 	sts	0x082E, r24	; 0x80082e <TimerFlag>
     456:	80 91 09 01 	lds	r24, 0x0109	; 0x800109 <_avr_timer_M>
     45a:	90 91 0a 01 	lds	r25, 0x010A	; 0x80010a <_avr_timer_M+0x1>
     45e:	a0 91 0b 01 	lds	r26, 0x010B	; 0x80010b <_avr_timer_M+0x2>
     462:	b0 91 0c 01 	lds	r27, 0x010C	; 0x80010c <_avr_timer_M+0x3>
     466:	80 93 2a 08 	sts	0x082A, r24	; 0x80082a <_avr_timer_cntcurr>
     46a:	90 93 2b 08 	sts	0x082B, r25	; 0x80082b <_avr_timer_cntcurr+0x1>
     46e:	a0 93 2c 08 	sts	0x082C, r26	; 0x80082c <_avr_timer_cntcurr+0x2>
     472:	b0 93 2d 08 	sts	0x082D, r27	; 0x80082d <_avr_timer_cntcurr+0x3>
     476:	bf 91       	pop	r27
     478:	af 91       	pop	r26
     47a:	9f 91       	pop	r25
     47c:	8f 91       	pop	r24
     47e:	0f 90       	pop	r0
     480:	0f be       	out	0x3f, r0	; 63
     482:	0f 90       	pop	r0
     484:	1f 90       	pop	r1
     486:	18 95       	reti

00000488 <nokia_lcd_init>:
     488:	cf 93       	push	r28
     48a:	df 93       	push	r29
     48c:	22 9a       	sbi	0x04, 2	; 4
     48e:	23 9a       	sbi	0x04, 3	; 4
     490:	24 9a       	sbi	0x04, 4	; 4
     492:	25 9a       	sbi	0x04, 5	; 4
     494:	26 9a       	sbi	0x04, 6	; 4
     496:	2b 9a       	sbi	0x05, 3	; 5
     498:	2a 9a       	sbi	0x05, 2	; 5
     49a:	83 ec       	ldi	r24, 0xC3	; 195
     49c:	99 e0       	ldi	r25, 0x09	; 9
     49e:	01 97       	sbiw	r24, 0x01	; 1
     4a0:	f1 f7       	brne	.-4      	; 0x49e <nokia_lcd_init+0x16>
     4a2:	00 c0       	rjmp	.+0      	; 0x4a4 <nokia_lcd_init+0x1c>
     4a4:	00 00       	nop
     4a6:	2b 98       	cbi	0x05, 3	; 5
     4a8:	8b e5       	ldi	r24, 0x5B	; 91
     4aa:	94 e4       	ldi	r25, 0x44	; 68
     4ac:	01 97       	sbiw	r24, 0x01	; 1
     4ae:	f1 f7       	brne	.-4      	; 0x4ac <nokia_lcd_init+0x24>
     4b0:	00 c0       	rjmp	.+0      	; 0x4b2 <nokia_lcd_init+0x2a>
     4b2:	00 00       	nop
     4b4:	2b 9a       	sbi	0x05, 3	; 5
     4b6:	2a 98       	cbi	0x05, 2	; 5
     4b8:	81 e2       	ldi	r24, 0x21	; 33
     4ba:	68 df       	rcall	.-304    	; 0x38c <write_cmd>
     4bc:	83 e1       	ldi	r24, 0x13	; 19
     4be:	66 df       	rcall	.-308    	; 0x38c <write_cmd>
     4c0:	86 e0       	ldi	r24, 0x06	; 6
     4c2:	64 df       	rcall	.-312    	; 0x38c <write_cmd>
     4c4:	82 ec       	ldi	r24, 0xC2	; 194
     4c6:	62 df       	rcall	.-316    	; 0x38c <write_cmd>
     4c8:	80 e2       	ldi	r24, 0x20	; 32
     4ca:	60 df       	rcall	.-320    	; 0x38c <write_cmd>
     4cc:	89 e0       	ldi	r24, 0x09	; 9
     4ce:	5e df       	rcall	.-324    	; 0x38c <write_cmd>
     4d0:	80 e8       	ldi	r24, 0x80	; 128
     4d2:	5c df       	rcall	.-328    	; 0x38c <write_cmd>
     4d4:	80 e4       	ldi	r24, 0x40	; 64
     4d6:	5a df       	rcall	.-332    	; 0x38c <write_cmd>
     4d8:	c8 ef       	ldi	r28, 0xF8	; 248
     4da:	d1 e0       	ldi	r29, 0x01	; 1
     4dc:	61 e0       	ldi	r22, 0x01	; 1
     4de:	80 e0       	ldi	r24, 0x00	; 0
     4e0:	37 df       	rcall	.-402    	; 0x350 <write>
     4e2:	21 97       	sbiw	r28, 0x01	; 1
     4e4:	d9 f7       	brne	.-10     	; 0x4dc <nokia_lcd_init+0x54>
     4e6:	88 e0       	ldi	r24, 0x08	; 8
     4e8:	51 df       	rcall	.-350    	; 0x38c <write_cmd>
     4ea:	8c e0       	ldi	r24, 0x0C	; 12
     4ec:	4f df       	rcall	.-354    	; 0x38c <write_cmd>
     4ee:	df 91       	pop	r29
     4f0:	cf 91       	pop	r28
     4f2:	08 95       	ret

000004f4 <nokia_lcd_clear>:
     4f4:	80 e8       	ldi	r24, 0x80	; 128
     4f6:	4a df       	rcall	.-364    	; 0x38c <write_cmd>
     4f8:	80 e4       	ldi	r24, 0x40	; 64
     4fa:	48 df       	rcall	.-368    	; 0x38c <write_cmd>
     4fc:	10 92 28 08 	sts	0x0828, r1	; 0x800828 <nokia_lcd+0x1f8>
     500:	10 92 29 08 	sts	0x0829, r1	; 0x800829 <nokia_lcd+0x1f9>
     504:	e0 e3       	ldi	r30, 0x30	; 48
     506:	f6 e0       	ldi	r31, 0x06	; 6
     508:	88 e2       	ldi	r24, 0x28	; 40
     50a:	98 e0       	ldi	r25, 0x08	; 8
     50c:	11 92       	st	Z+, r1
     50e:	e8 17       	cp	r30, r24
     510:	f9 07       	cpc	r31, r25
     512:	e1 f7       	brne	.-8      	; 0x50c <nokia_lcd_clear+0x18>
     514:	08 95       	ret

00000516 <nokia_lcd_set_pixel>:
     516:	26 2f       	mov	r18, r22
     518:	26 95       	lsr	r18
     51a:	26 95       	lsr	r18
     51c:	26 95       	lsr	r18
     51e:	90 e0       	ldi	r25, 0x00	; 0
     520:	34 e5       	ldi	r19, 0x54	; 84
     522:	23 9f       	mul	r18, r19
     524:	80 0d       	add	r24, r0
     526:	91 1d       	adc	r25, r1
     528:	11 24       	eor	r1, r1
     52a:	44 23       	and	r20, r20
     52c:	79 f0       	breq	.+30     	; 0x54c <nokia_lcd_set_pixel+0x36>
     52e:	fc 01       	movw	r30, r24
     530:	e0 5d       	subi	r30, 0xD0	; 208
     532:	f9 4f       	sbci	r31, 0xF9	; 249
     534:	67 70       	andi	r22, 0x07	; 7
     536:	81 e0       	ldi	r24, 0x01	; 1
     538:	90 e0       	ldi	r25, 0x00	; 0
     53a:	02 c0       	rjmp	.+4      	; 0x540 <nokia_lcd_set_pixel+0x2a>
     53c:	88 0f       	add	r24, r24
     53e:	99 1f       	adc	r25, r25
     540:	6a 95       	dec	r22
     542:	e2 f7       	brpl	.-8      	; 0x53c <nokia_lcd_set_pixel+0x26>
     544:	90 81       	ld	r25, Z
     546:	89 2b       	or	r24, r25
     548:	80 83       	st	Z, r24
     54a:	08 95       	ret
     54c:	fc 01       	movw	r30, r24
     54e:	e0 5d       	subi	r30, 0xD0	; 208
     550:	f9 4f       	sbci	r31, 0xF9	; 249
     552:	67 70       	andi	r22, 0x07	; 7
     554:	81 e0       	ldi	r24, 0x01	; 1
     556:	90 e0       	ldi	r25, 0x00	; 0
     558:	02 c0       	rjmp	.+4      	; 0x55e <nokia_lcd_set_pixel+0x48>
     55a:	88 0f       	add	r24, r24
     55c:	99 1f       	adc	r25, r25
     55e:	6a 95       	dec	r22
     560:	e2 f7       	brpl	.-8      	; 0x55a <nokia_lcd_set_pixel+0x44>
     562:	80 95       	com	r24
     564:	90 81       	ld	r25, Z
     566:	89 23       	and	r24, r25
     568:	80 83       	st	Z, r24
     56a:	08 95       	ret

0000056c <nokia_lcd_write_char>:
     56c:	5f 92       	push	r5
     56e:	6f 92       	push	r6
     570:	7f 92       	push	r7
     572:	8f 92       	push	r8
     574:	9f 92       	push	r9
     576:	af 92       	push	r10
     578:	bf 92       	push	r11
     57a:	cf 92       	push	r12
     57c:	df 92       	push	r13
     57e:	ef 92       	push	r14
     580:	ff 92       	push	r15
     582:	0f 93       	push	r16
     584:	1f 93       	push	r17
     586:	cf 93       	push	r28
     588:	df 93       	push	r29
     58a:	56 2e       	mov	r5, r22
     58c:	26 2f       	mov	r18, r22
     58e:	30 e0       	ldi	r19, 0x00	; 0
     590:	49 01       	movw	r8, r18
     592:	88 0c       	add	r8, r8
     594:	99 1c       	adc	r9, r9
     596:	88 0c       	add	r8, r8
     598:	99 1c       	adc	r9, r9
     59a:	82 0e       	add	r8, r18
     59c:	93 1e       	adc	r9, r19
     59e:	18 14       	cp	r1, r8
     5a0:	19 04       	cpc	r1, r9
     5a2:	0c f0       	brlt	.+2      	; 0x5a6 <nokia_lcd_write_char+0x3a>
     5a4:	5b c0       	rjmp	.+182    	; 0x65c <nokia_lcd_write_char+0xf0>
     5a6:	89 01       	movw	r16, r18
     5a8:	00 0f       	add	r16, r16
     5aa:	11 1f       	adc	r17, r17
     5ac:	00 0f       	add	r16, r16
     5ae:	11 1f       	adc	r17, r17
     5b0:	00 0f       	add	r16, r16
     5b2:	11 1f       	adc	r17, r17
     5b4:	02 1b       	sub	r16, r18
     5b6:	13 0b       	sbc	r17, r19
     5b8:	61 2c       	mov	r6, r1
     5ba:	a8 2e       	mov	r10, r24
     5bc:	b1 2c       	mov	r11, r1
     5be:	c5 01       	movw	r24, r10
     5c0:	80 97       	sbiw	r24, 0x20	; 32
     5c2:	5c 01       	movw	r10, r24
     5c4:	aa 0c       	add	r10, r10
     5c6:	bb 1c       	adc	r11, r11
     5c8:	aa 0c       	add	r10, r10
     5ca:	bb 1c       	adc	r11, r11
     5cc:	a8 0e       	add	r10, r24
     5ce:	b9 1e       	adc	r11, r25
     5d0:	0f 2e       	mov	r0, r31
     5d2:	f9 e2       	ldi	r31, 0x29	; 41
     5d4:	cf 2e       	mov	r12, r31
     5d6:	f8 e0       	ldi	r31, 0x08	; 8
     5d8:	df 2e       	mov	r13, r31
     5da:	f0 2d       	mov	r31, r0
     5dc:	0f 2e       	mov	r0, r31
     5de:	f8 e2       	ldi	r31, 0x28	; 40
     5e0:	ef 2e       	mov	r14, r31
     5e2:	f8 e0       	ldi	r31, 0x08	; 8
     5e4:	ff 2e       	mov	r15, r31
     5e6:	f0 2d       	mov	r31, r0
     5e8:	2b c0       	rjmp	.+86     	; 0x640 <nokia_lcd_write_char+0xd4>
     5ea:	fe 01       	movw	r30, r28
     5ec:	24 91       	lpm	r18, Z
     5ee:	30 e0       	ldi	r19, 0x00	; 0
     5f0:	87 2d       	mov	r24, r7
     5f2:	65 2d       	mov	r22, r5
     5f4:	0e 94 21 2f 	call	0x5e42	; 0x5e42 <__udivmodqi4>
     5f8:	02 c0       	rjmp	.+4      	; 0x5fe <nokia_lcd_write_char+0x92>
     5fa:	35 95       	asr	r19
     5fc:	27 95       	ror	r18
     5fe:	8a 95       	dec	r24
     600:	e2 f7       	brpl	.-8      	; 0x5fa <nokia_lcd_write_char+0x8e>
     602:	20 ff       	sbrs	r18, 0
     604:	09 c0       	rjmp	.+18     	; 0x618 <nokia_lcd_write_char+0xac>
     606:	f6 01       	movw	r30, r12
     608:	60 81       	ld	r22, Z
     60a:	67 0d       	add	r22, r7
     60c:	f7 01       	movw	r30, r14
     60e:	80 81       	ld	r24, Z
     610:	41 e0       	ldi	r20, 0x01	; 1
     612:	86 0d       	add	r24, r6
     614:	80 df       	rcall	.-256    	; 0x516 <nokia_lcd_set_pixel>
     616:	08 c0       	rjmp	.+16     	; 0x628 <nokia_lcd_write_char+0xbc>
     618:	f6 01       	movw	r30, r12
     61a:	60 81       	ld	r22, Z
     61c:	67 0d       	add	r22, r7
     61e:	f7 01       	movw	r30, r14
     620:	80 81       	ld	r24, Z
     622:	40 e0       	ldi	r20, 0x00	; 0
     624:	86 0d       	add	r24, r6
     626:	77 df       	rcall	.-274    	; 0x516 <nokia_lcd_set_pixel>
     628:	73 94       	inc	r7
     62a:	87 2d       	mov	r24, r7
     62c:	90 e0       	ldi	r25, 0x00	; 0
     62e:	80 17       	cp	r24, r16
     630:	91 07       	cpc	r25, r17
     632:	dc f2       	brlt	.-74     	; 0x5ea <nokia_lcd_write_char+0x7e>
     634:	63 94       	inc	r6
     636:	86 2d       	mov	r24, r6
     638:	90 e0       	ldi	r25, 0x00	; 0
     63a:	88 15       	cp	r24, r8
     63c:	99 05       	cpc	r25, r9
     63e:	74 f4       	brge	.+28     	; 0x65c <nokia_lcd_write_char+0xf0>
     640:	10 16       	cp	r1, r16
     642:	11 06       	cpc	r1, r17
     644:	bc f7       	brge	.-18     	; 0x634 <nokia_lcd_write_char+0xc8>
     646:	86 2d       	mov	r24, r6
     648:	65 2d       	mov	r22, r5
     64a:	0e 94 21 2f 	call	0x5e42	; 0x5e42 <__udivmodqi4>
     64e:	e5 01       	movw	r28, r10
     650:	c8 0f       	add	r28, r24
     652:	d1 1d       	adc	r29, r1
     654:	c6 5f       	subi	r28, 0xF6	; 246
     656:	de 4f       	sbci	r29, 0xFE	; 254
     658:	71 2c       	mov	r7, r1
     65a:	c7 cf       	rjmp	.-114    	; 0x5ea <nokia_lcd_write_char+0x7e>
     65c:	80 91 28 08 	lds	r24, 0x0828	; 0x800828 <nokia_lcd+0x1f8>
     660:	91 e0       	ldi	r25, 0x01	; 1
     662:	98 0f       	add	r25, r24
     664:	85 2d       	mov	r24, r5
     666:	88 0f       	add	r24, r24
     668:	88 0f       	add	r24, r24
     66a:	85 0d       	add	r24, r5
     66c:	89 0f       	add	r24, r25
     66e:	84 35       	cpi	r24, 0x54	; 84
     670:	18 f4       	brcc	.+6      	; 0x678 <nokia_lcd_write_char+0x10c>
     672:	80 93 28 08 	sts	0x0828, r24	; 0x800828 <nokia_lcd+0x1f8>
     676:	0e c0       	rjmp	.+28     	; 0x694 <nokia_lcd_write_char+0x128>
     678:	10 92 28 08 	sts	0x0828, r1	; 0x800828 <nokia_lcd+0x1f8>
     67c:	e9 e2       	ldi	r30, 0x29	; 41
     67e:	f8 e0       	ldi	r31, 0x08	; 8
     680:	80 81       	ld	r24, Z
     682:	91 e0       	ldi	r25, 0x01	; 1
     684:	98 0f       	add	r25, r24
     686:	85 2d       	mov	r24, r5
     688:	88 0f       	add	r24, r24
     68a:	88 0f       	add	r24, r24
     68c:	88 0f       	add	r24, r24
     68e:	85 19       	sub	r24, r5
     690:	89 0f       	add	r24, r25
     692:	80 83       	st	Z, r24
     694:	80 91 29 08 	lds	r24, 0x0829	; 0x800829 <nokia_lcd+0x1f9>
     698:	80 33       	cpi	r24, 0x30	; 48
     69a:	20 f0       	brcs	.+8      	; 0x6a4 <nokia_lcd_write_char+0x138>
     69c:	10 92 28 08 	sts	0x0828, r1	; 0x800828 <nokia_lcd+0x1f8>
     6a0:	10 92 29 08 	sts	0x0829, r1	; 0x800829 <nokia_lcd+0x1f9>
     6a4:	df 91       	pop	r29
     6a6:	cf 91       	pop	r28
     6a8:	1f 91       	pop	r17
     6aa:	0f 91       	pop	r16
     6ac:	ff 90       	pop	r15
     6ae:	ef 90       	pop	r14
     6b0:	df 90       	pop	r13
     6b2:	cf 90       	pop	r12
     6b4:	bf 90       	pop	r11
     6b6:	af 90       	pop	r10
     6b8:	9f 90       	pop	r9
     6ba:	8f 90       	pop	r8
     6bc:	7f 90       	pop	r7
     6be:	6f 90       	pop	r6
     6c0:	5f 90       	pop	r5
     6c2:	08 95       	ret

000006c4 <nokia_lcd_write_string>:
     6c4:	1f 93       	push	r17
     6c6:	cf 93       	push	r28
     6c8:	df 93       	push	r29
     6ca:	ec 01       	movw	r28, r24
     6cc:	88 81       	ld	r24, Y
     6ce:	88 23       	and	r24, r24
     6d0:	39 f0       	breq	.+14     	; 0x6e0 <nokia_lcd_write_string+0x1c>
     6d2:	16 2f       	mov	r17, r22
     6d4:	21 96       	adiw	r28, 0x01	; 1
     6d6:	61 2f       	mov	r22, r17
     6d8:	49 df       	rcall	.-366    	; 0x56c <nokia_lcd_write_char>
     6da:	89 91       	ld	r24, Y+
     6dc:	81 11       	cpse	r24, r1
     6de:	fb cf       	rjmp	.-10     	; 0x6d6 <nokia_lcd_write_string+0x12>
     6e0:	df 91       	pop	r29
     6e2:	cf 91       	pop	r28
     6e4:	1f 91       	pop	r17
     6e6:	08 95       	ret

000006e8 <nokia_lcd_render>:
}

void nokia_lcd_render(void)
{
     6e8:	0f 93       	push	r16
     6ea:	1f 93       	push	r17
     6ec:	cf 93       	push	r28
     6ee:	df 93       	push	r29
	register unsigned i;
	/* Set column and row to 0 */
	write_cmd(0x80);
     6f0:	80 e8       	ldi	r24, 0x80	; 128
     6f2:	4c de       	rcall	.-872    	; 0x38c <write_cmd>
	write_cmd(0x40);
     6f4:	80 e4       	ldi	r24, 0x40	; 64
     6f6:	4a de       	rcall	.-876    	; 0x38c <write_cmd>
     6f8:	c0 e3       	ldi	r28, 0x30	; 48
     6fa:	d6 e0       	ldi	r29, 0x06	; 6
     6fc:	08 e2       	ldi	r16, 0x28	; 40
     6fe:	18 e0       	ldi	r17, 0x08	; 8
	write(cmd, 0);
}

static void write_data(uint8_t data)
{
	write(data, 1);
     700:	61 e0       	ldi	r22, 0x01	; 1
     702:	89 91       	ld	r24, Y+
     704:	25 de       	rcall	.-950    	; 0x350 <write>
	/* Set column and row to 0 */
	write_cmd(0x80);
	write_cmd(0x40);

	/* Write screen to display */
	for (i = 0; i < 504; i++)
     706:	c0 17       	cp	r28, r16
     708:	d1 07       	cpc	r29, r17
     70a:	d1 f7       	brne	.-12     	; 0x700 <nokia_lcd_render+0x18>
		write_data(nokia_lcd.screen[i]);
}
     70c:	df 91       	pop	r29
     70e:	cf 91       	pop	r28
     710:	1f 91       	pop	r17
     712:	0f 91       	pop	r16
     714:	08 95       	ret

00000716 <nokia_lcd_custom>:

void nokia_lcd_custom(void){
	nokia_lcd_write_char(0x7f, 1);
     716:	61 e0       	ldi	r22, 0x01	; 1
     718:	8f e7       	ldi	r24, 0x7F	; 127
     71a:	28 cf       	rjmp	.-432    	; 0x56c <nokia_lcd_write_char>
     71c:	08 95       	ret

0000071e <nokia_lcd_menu>:
}

void nokia_lcd_menu(unsigned char num, unsigned char d){
     71e:	cf 93       	push	r28
     720:	df 93       	push	r29
     722:	c8 2f       	mov	r28, r24
     724:	d6 2f       	mov	r29, r22
	nokia_lcd_clear();
     726:	e6 de       	rcall	.-564    	; 0x4f4 <nokia_lcd_clear>
	if(num == 30){
     728:	ce 31       	cpi	r28, 0x1E	; 30
     72a:	59 f4       	brne	.+22     	; 0x742 <nokia_lcd_menu+0x24>
		nokia_lcd_write_char(0x33, 1);
     72c:	61 e0       	ldi	r22, 0x01	; 1
     72e:	83 e3       	ldi	r24, 0x33	; 51
     730:	1d df       	rcall	.-454    	; 0x56c <nokia_lcd_write_char>
		nokia_lcd_write_char(0x30, 1);
     732:	61 e0       	ldi	r22, 0x01	; 1
     734:	80 e3       	ldi	r24, 0x30	; 48
     736:	1a df       	rcall	.-460    	; 0x56c <nokia_lcd_write_char>
		nokia_lcd_write_string(" seconds", 1);	// [gametime] seconds
     738:	61 e0       	ldi	r22, 0x01	; 1
     73a:	82 e6       	ldi	r24, 0x62	; 98
     73c:	94 e0       	ldi	r25, 0x04	; 4
     73e:	c2 df       	rcall	.-124    	; 0x6c4 <nokia_lcd_write_string>
     740:	19 c0       	rjmp	.+50     	; 0x774 <nokia_lcd_menu+0x56>
	}
	else if(num == 60){
     742:	cc 33       	cpi	r28, 0x3C	; 60
		nokia_lcd_write_char(0x36, 1);
     744:	59 f4       	brne	.+22     	; 0x75c <nokia_lcd_menu+0x3e>
     746:	61 e0       	ldi	r22, 0x01	; 1
     748:	86 e3       	ldi	r24, 0x36	; 54
		nokia_lcd_write_char(0x30, 1);
     74a:	10 df       	rcall	.-480    	; 0x56c <nokia_lcd_write_char>
     74c:	61 e0       	ldi	r22, 0x01	; 1
     74e:	80 e3       	ldi	r24, 0x30	; 48
		nokia_lcd_write_string(" seconds", 1);	// [gametime] seconds
     750:	0d df       	rcall	.-486    	; 0x56c <nokia_lcd_write_char>
     752:	61 e0       	ldi	r22, 0x01	; 1
     754:	82 e6       	ldi	r24, 0x62	; 98
     756:	94 e0       	ldi	r25, 0x04	; 4
     758:	b5 df       	rcall	.-150    	; 0x6c4 <nokia_lcd_write_string>
	}
	else if(num == 90){
     75a:	0c c0       	rjmp	.+24     	; 0x774 <nokia_lcd_menu+0x56>
		nokia_lcd_write_char(0x39, 1);
     75c:	ca 35       	cpi	r28, 0x5A	; 90
     75e:	51 f4       	brne	.+20     	; 0x774 <nokia_lcd_menu+0x56>
     760:	61 e0       	ldi	r22, 0x01	; 1
		nokia_lcd_write_char(0x30, 1);
     762:	89 e3       	ldi	r24, 0x39	; 57
     764:	03 df       	rcall	.-506    	; 0x56c <nokia_lcd_write_char>
     766:	61 e0       	ldi	r22, 0x01	; 1
     768:	80 e3       	ldi	r24, 0x30	; 48
		nokia_lcd_write_string(" seconds", 1);	// [gametime] seconds
     76a:	00 df       	rcall	.-512    	; 0x56c <nokia_lcd_write_char>
     76c:	61 e0       	ldi	r22, 0x01	; 1
     76e:	82 e6       	ldi	r24, 0x62	; 98
     770:	94 e0       	ldi	r25, 0x04	; 4
     772:	a8 df       	rcall	.-176    	; 0x6c4 <nokia_lcd_write_string>
		nokia_lcd_write_char(*str++, scale);
}

void nokia_lcd_set_cursor(uint8_t x, uint8_t y)
{
	nokia_lcd.cursor_x = x;
     774:	10 92 28 08 	sts	0x0828, r1	; 0x800828 <nokia_lcd+0x1f8>
	nokia_lcd.cursor_y = y;
     778:	8a e0       	ldi	r24, 0x0A	; 10
     77a:	80 93 29 08 	sts	0x0829, r24	; 0x800829 <nokia_lcd+0x1f9>
		nokia_lcd_write_char(0x39, 1);
		nokia_lcd_write_char(0x30, 1);
		nokia_lcd_write_string(" seconds", 1);	// [gametime] seconds
	}
	nokia_lcd_set_cursor(0, 10);			// newline
	if(d == 0){
     77e:	d1 11       	cpse	r29, r1
		nokia_lcd_write_string("Diff: Easy", 1);
     780:	05 c0       	rjmp	.+10     	; 0x78c <nokia_lcd_menu+0x6e>
     782:	61 e0       	ldi	r22, 0x01	; 1
     784:	8b e6       	ldi	r24, 0x6B	; 107
     786:	94 e0       	ldi	r25, 0x04	; 4
     788:	9d df       	rcall	.-198    	; 0x6c4 <nokia_lcd_write_string>
	}
	else if(d == 1){
     78a:	0d c0       	rjmp	.+26     	; 0x7a6 <nokia_lcd_menu+0x88>
		nokia_lcd_write_string("Diff: Medium", 1);
     78c:	d1 30       	cpi	r29, 0x01	; 1
     78e:	29 f4       	brne	.+10     	; 0x79a <nokia_lcd_menu+0x7c>
     790:	61 e0       	ldi	r22, 0x01	; 1
     792:	86 e7       	ldi	r24, 0x76	; 118
     794:	94 e0       	ldi	r25, 0x04	; 4
     796:	96 df       	rcall	.-212    	; 0x6c4 <nokia_lcd_write_string>
	}
	else if(d == 2){
     798:	06 c0       	rjmp	.+12     	; 0x7a6 <nokia_lcd_menu+0x88>
     79a:	d2 30       	cpi	r29, 0x02	; 2
		nokia_lcd_write_string("Diff: Hard", 1);
     79c:	21 f4       	brne	.+8      	; 0x7a6 <nokia_lcd_menu+0x88>
     79e:	61 e0       	ldi	r22, 0x01	; 1
     7a0:	83 e8       	ldi	r24, 0x83	; 131
     7a2:	94 e0       	ldi	r25, 0x04	; 4
		nokia_lcd_write_char(*str++, scale);
}

void nokia_lcd_set_cursor(uint8_t x, uint8_t y)
{
	nokia_lcd.cursor_x = x;
     7a4:	8f df       	rcall	.-226    	; 0x6c4 <nokia_lcd_write_string>
     7a6:	10 92 28 08 	sts	0x0828, r1	; 0x800828 <nokia_lcd+0x1f8>
	nokia_lcd.cursor_y = y;
     7aa:	84 e1       	ldi	r24, 0x14	; 20
	}
	else if(d == 2){
		nokia_lcd_write_string("Diff: Hard", 1);
	}
	nokia_lcd_set_cursor(0, 20);			// newline
	nokia_lcd_write_string("Time set: ", 1);
     7ac:	80 93 29 08 	sts	0x0829, r24	; 0x800829 <nokia_lcd+0x1f9>
     7b0:	61 e0       	ldi	r22, 0x01	; 1
     7b2:	8e e8       	ldi	r24, 0x8E	; 142
     7b4:	94 e0       	ldi	r25, 0x04	; 4
	if(num == 30 || num == 60 || num == 90){
     7b6:	86 df       	rcall	.-244    	; 0x6c4 <nokia_lcd_write_string>
     7b8:	ce 31       	cpi	r28, 0x1E	; 30
     7ba:	21 f0       	breq	.+8      	; 0x7c4 <nokia_lcd_menu+0xa6>
     7bc:	cc 33       	cpi	r28, 0x3C	; 60
		nokia_lcd_custom();
     7be:	11 f0       	breq	.+4      	; 0x7c4 <nokia_lcd_menu+0xa6>
     7c0:	ca 35       	cpi	r28, 0x5A	; 90
		nokia_lcd_write_char(*str++, scale);
}

void nokia_lcd_set_cursor(uint8_t x, uint8_t y)
{
	nokia_lcd.cursor_x = x;
     7c2:	09 f4       	brne	.+2      	; 0x7c6 <nokia_lcd_menu+0xa8>
     7c4:	a8 df       	rcall	.-176    	; 0x716 <nokia_lcd_custom>
	nokia_lcd.cursor_y = y;
     7c6:	10 92 28 08 	sts	0x0828, r1	; 0x800828 <nokia_lcd+0x1f8>
     7ca:	8e e1       	ldi	r24, 0x1E	; 30
	nokia_lcd_write_string("Time set: ", 1);
	if(num == 30 || num == 60 || num == 90){
		nokia_lcd_custom();
	}
	nokia_lcd_set_cursor(0, 30);
	nokia_lcd_write_string("Diff set: ", 1);
     7cc:	80 93 29 08 	sts	0x0829, r24	; 0x800829 <nokia_lcd+0x1f9>
     7d0:	61 e0       	ldi	r22, 0x01	; 1
     7d2:	89 e9       	ldi	r24, 0x99	; 153
     7d4:	94 e0       	ldi	r25, 0x04	; 4
	if(d == 0 || d == 1 || d == 2){
     7d6:	76 df       	rcall	.-276    	; 0x6c4 <nokia_lcd_write_string>
     7d8:	d3 30       	cpi	r29, 0x03	; 3
		nokia_lcd_custom();
     7da:	08 f4       	brcc	.+2      	; 0x7de <nokia_lcd_menu+0xc0>
     7dc:	9c df       	rcall	.-200    	; 0x716 <nokia_lcd_custom>
	}
	nokia_lcd_render();
     7de:	84 df       	rcall	.-248    	; 0x6e8 <nokia_lcd_render>
     7e0:	df 91       	pop	r29
}
     7e2:	cf 91       	pop	r28
     7e4:	08 95       	ret

000007e6 <nokia_lcd_ingame>:
     7e6:	ef 92       	push	r14

void nokia_lcd_ingame(char score, char secPassed){
     7e8:	ff 92       	push	r15
     7ea:	0f 93       	push	r16
     7ec:	1f 93       	push	r17
     7ee:	cf 93       	push	r28
     7f0:	df 93       	push	r29
     7f2:	d8 2f       	mov	r29, r24
     7f4:	c6 2f       	mov	r28, r22
	nokia_lcd_clear();
     7f6:	7e de       	rcall	.-772    	; 0x4f4 <nokia_lcd_clear>
	nokia_lcd_write_string("Score: ", 1);
     7f8:	61 e0       	ldi	r22, 0x01	; 1
     7fa:	84 ea       	ldi	r24, 0xA4	; 164
     7fc:	94 e0       	ldi	r25, 0x04	; 4
     7fe:	62 df       	rcall	.-316    	; 0x6c4 <nokia_lcd_write_string>
	if(score == 0)
     800:	d1 11       	cpse	r29, r1
     802:	05 c0       	rjmp	.+10     	; 0x80e <nokia_lcd_ingame+0x28>
	nokia_lcd_write_string("0", 1);
     804:	61 e0       	ldi	r22, 0x01	; 1
     806:	85 e2       	ldi	r24, 0x25	; 37
     808:	96 e0       	ldi	r25, 0x06	; 6
     80a:	5c df       	rcall	.-328    	; 0x6c4 <nokia_lcd_write_string>
     80c:	89 c0       	rjmp	.+274    	; 0x920 <nokia_lcd_ingame+0x13a>
	else if(score == 1)
     80e:	d1 30       	cpi	r29, 0x01	; 1
     810:	29 f4       	brne	.+10     	; 0x81c <nokia_lcd_ingame+0x36>
	nokia_lcd_write_string("1", 1);	
     812:	61 e0       	ldi	r22, 0x01	; 1
     814:	80 eb       	ldi	r24, 0xB0	; 176
     816:	94 e0       	ldi	r25, 0x04	; 4
     818:	55 df       	rcall	.-342    	; 0x6c4 <nokia_lcd_write_string>
     81a:	82 c0       	rjmp	.+260    	; 0x920 <nokia_lcd_ingame+0x13a>
	else if(score == 2)
     81c:	d2 30       	cpi	r29, 0x02	; 2
	nokia_lcd_write_string("2", 1);	
     81e:	29 f4       	brne	.+10     	; 0x82a <nokia_lcd_ingame+0x44>
     820:	61 e0       	ldi	r22, 0x01	; 1
     822:	83 eb       	ldi	r24, 0xB3	; 179
     824:	94 e0       	ldi	r25, 0x04	; 4
     826:	4e df       	rcall	.-356    	; 0x6c4 <nokia_lcd_write_string>
     828:	7b c0       	rjmp	.+246    	; 0x920 <nokia_lcd_ingame+0x13a>
	else if(score == 3)
     82a:	d3 30       	cpi	r29, 0x03	; 3
	nokia_lcd_write_string("3", 1);
     82c:	29 f4       	brne	.+10     	; 0x838 <nokia_lcd_ingame+0x52>
     82e:	61 e0       	ldi	r22, 0x01	; 1
     830:	86 eb       	ldi	r24, 0xB6	; 182
     832:	94 e0       	ldi	r25, 0x04	; 4
     834:	47 df       	rcall	.-370    	; 0x6c4 <nokia_lcd_write_string>
	else if(score == 4)
     836:	74 c0       	rjmp	.+232    	; 0x920 <nokia_lcd_ingame+0x13a>
     838:	d4 30       	cpi	r29, 0x04	; 4
	nokia_lcd_write_string("4", 1);		
     83a:	29 f4       	brne	.+10     	; 0x846 <nokia_lcd_ingame+0x60>
     83c:	61 e0       	ldi	r22, 0x01	; 1
     83e:	89 eb       	ldi	r24, 0xB9	; 185
     840:	94 e0       	ldi	r25, 0x04	; 4
     842:	40 df       	rcall	.-384    	; 0x6c4 <nokia_lcd_write_string>
	else if(score == 5)
     844:	6d c0       	rjmp	.+218    	; 0x920 <nokia_lcd_ingame+0x13a>
     846:	d5 30       	cpi	r29, 0x05	; 5
	nokia_lcd_write_string("5", 1);
     848:	29 f4       	brne	.+10     	; 0x854 <nokia_lcd_ingame+0x6e>
     84a:	61 e0       	ldi	r22, 0x01	; 1
     84c:	8c eb       	ldi	r24, 0xBC	; 188
     84e:	94 e0       	ldi	r25, 0x04	; 4
     850:	39 df       	rcall	.-398    	; 0x6c4 <nokia_lcd_write_string>
	else if(score == 6)
     852:	66 c0       	rjmp	.+204    	; 0x920 <nokia_lcd_ingame+0x13a>
     854:	d6 30       	cpi	r29, 0x06	; 6
	nokia_lcd_write_string("6", 1);
     856:	29 f4       	brne	.+10     	; 0x862 <nokia_lcd_ingame+0x7c>
     858:	61 e0       	ldi	r22, 0x01	; 1
     85a:	8f eb       	ldi	r24, 0xBF	; 191
     85c:	94 e0       	ldi	r25, 0x04	; 4
     85e:	32 df       	rcall	.-412    	; 0x6c4 <nokia_lcd_write_string>
	else if(score == 7)
     860:	5f c0       	rjmp	.+190    	; 0x920 <nokia_lcd_ingame+0x13a>
     862:	d7 30       	cpi	r29, 0x07	; 7
	nokia_lcd_write_string("7", 1);
     864:	29 f4       	brne	.+10     	; 0x870 <nokia_lcd_ingame+0x8a>
     866:	61 e0       	ldi	r22, 0x01	; 1
     868:	82 ec       	ldi	r24, 0xC2	; 194
     86a:	94 e0       	ldi	r25, 0x04	; 4
     86c:	2b df       	rcall	.-426    	; 0x6c4 <nokia_lcd_write_string>
	else if(score == 8)
     86e:	58 c0       	rjmp	.+176    	; 0x920 <nokia_lcd_ingame+0x13a>
     870:	d8 30       	cpi	r29, 0x08	; 8
	nokia_lcd_write_string("8", 1);
     872:	29 f4       	brne	.+10     	; 0x87e <nokia_lcd_ingame+0x98>
     874:	61 e0       	ldi	r22, 0x01	; 1
     876:	85 ec       	ldi	r24, 0xC5	; 197
     878:	94 e0       	ldi	r25, 0x04	; 4
     87a:	24 df       	rcall	.-440    	; 0x6c4 <nokia_lcd_write_string>
	else if(score == 9)
     87c:	51 c0       	rjmp	.+162    	; 0x920 <nokia_lcd_ingame+0x13a>
	nokia_lcd_write_string("9", 1);
     87e:	d9 30       	cpi	r29, 0x09	; 9
     880:	29 f4       	brne	.+10     	; 0x88c <nokia_lcd_ingame+0xa6>
     882:	61 e0       	ldi	r22, 0x01	; 1
     884:	88 ec       	ldi	r24, 0xC8	; 200
     886:	94 e0       	ldi	r25, 0x04	; 4
     888:	1d df       	rcall	.-454    	; 0x6c4 <nokia_lcd_write_string>
	else if(score == 10)
     88a:	4a c0       	rjmp	.+148    	; 0x920 <nokia_lcd_ingame+0x13a>
	nokia_lcd_write_string("10", 1);
     88c:	da 30       	cpi	r29, 0x0A	; 10
     88e:	29 f4       	brne	.+10     	; 0x89a <nokia_lcd_ingame+0xb4>
     890:	61 e0       	ldi	r22, 0x01	; 1
     892:	8c ea       	ldi	r24, 0xAC	; 172
     894:	94 e0       	ldi	r25, 0x04	; 4
	else if(score == 11)
     896:	16 df       	rcall	.-468    	; 0x6c4 <nokia_lcd_write_string>
     898:	43 c0       	rjmp	.+134    	; 0x920 <nokia_lcd_ingame+0x13a>
	nokia_lcd_write_string("11", 1);
     89a:	db 30       	cpi	r29, 0x0B	; 11
     89c:	29 f4       	brne	.+10     	; 0x8a8 <nokia_lcd_ingame+0xc2>
     89e:	61 e0       	ldi	r22, 0x01	; 1
     8a0:	8f ea       	ldi	r24, 0xAF	; 175
     8a2:	94 e0       	ldi	r25, 0x04	; 4
	else if(score == 12)
     8a4:	0f df       	rcall	.-482    	; 0x6c4 <nokia_lcd_write_string>
     8a6:	3c c0       	rjmp	.+120    	; 0x920 <nokia_lcd_ingame+0x13a>
	nokia_lcd_write_string("12", 1);
     8a8:	dc 30       	cpi	r29, 0x0C	; 12
     8aa:	29 f4       	brne	.+10     	; 0x8b6 <nokia_lcd_ingame+0xd0>
     8ac:	61 e0       	ldi	r22, 0x01	; 1
     8ae:	82 eb       	ldi	r24, 0xB2	; 178
     8b0:	94 e0       	ldi	r25, 0x04	; 4
	else if(score == 13)
     8b2:	08 df       	rcall	.-496    	; 0x6c4 <nokia_lcd_write_string>
     8b4:	35 c0       	rjmp	.+106    	; 0x920 <nokia_lcd_ingame+0x13a>
	nokia_lcd_write_string("13", 1);
     8b6:	dd 30       	cpi	r29, 0x0D	; 13
     8b8:	29 f4       	brne	.+10     	; 0x8c4 <nokia_lcd_ingame+0xde>
     8ba:	61 e0       	ldi	r22, 0x01	; 1
     8bc:	85 eb       	ldi	r24, 0xB5	; 181
     8be:	94 e0       	ldi	r25, 0x04	; 4
	else if(score == 14)
     8c0:	01 df       	rcall	.-510    	; 0x6c4 <nokia_lcd_write_string>
     8c2:	2e c0       	rjmp	.+92     	; 0x920 <nokia_lcd_ingame+0x13a>
	nokia_lcd_write_string("14", 1);
     8c4:	de 30       	cpi	r29, 0x0E	; 14
     8c6:	29 f4       	brne	.+10     	; 0x8d2 <nokia_lcd_ingame+0xec>
     8c8:	61 e0       	ldi	r22, 0x01	; 1
     8ca:	88 eb       	ldi	r24, 0xB8	; 184
     8cc:	94 e0       	ldi	r25, 0x04	; 4
	else if(score == 15)
     8ce:	fa de       	rcall	.-524    	; 0x6c4 <nokia_lcd_write_string>
     8d0:	27 c0       	rjmp	.+78     	; 0x920 <nokia_lcd_ingame+0x13a>
	nokia_lcd_write_string("15", 1);
     8d2:	df 30       	cpi	r29, 0x0F	; 15
     8d4:	29 f4       	brne	.+10     	; 0x8e0 <nokia_lcd_ingame+0xfa>
     8d6:	61 e0       	ldi	r22, 0x01	; 1
     8d8:	8b eb       	ldi	r24, 0xBB	; 187
     8da:	94 e0       	ldi	r25, 0x04	; 4
	else if(score == 16)
     8dc:	f3 de       	rcall	.-538    	; 0x6c4 <nokia_lcd_write_string>
	nokia_lcd_write_string("16", 1);
     8de:	20 c0       	rjmp	.+64     	; 0x920 <nokia_lcd_ingame+0x13a>
     8e0:	d0 31       	cpi	r29, 0x10	; 16
     8e2:	29 f4       	brne	.+10     	; 0x8ee <nokia_lcd_ingame+0x108>
     8e4:	61 e0       	ldi	r22, 0x01	; 1
     8e6:	8e eb       	ldi	r24, 0xBE	; 190
     8e8:	94 e0       	ldi	r25, 0x04	; 4
	else if(score == 17)
     8ea:	ec de       	rcall	.-552    	; 0x6c4 <nokia_lcd_write_string>
	nokia_lcd_write_string("17", 1);
     8ec:	19 c0       	rjmp	.+50     	; 0x920 <nokia_lcd_ingame+0x13a>
     8ee:	d1 31       	cpi	r29, 0x11	; 17
     8f0:	29 f4       	brne	.+10     	; 0x8fc <nokia_lcd_ingame+0x116>
     8f2:	61 e0       	ldi	r22, 0x01	; 1
     8f4:	81 ec       	ldi	r24, 0xC1	; 193
	else if(score == 18)
     8f6:	94 e0       	ldi	r25, 0x04	; 4
     8f8:	e5 de       	rcall	.-566    	; 0x6c4 <nokia_lcd_write_string>
	nokia_lcd_write_string("18", 1);
     8fa:	12 c0       	rjmp	.+36     	; 0x920 <nokia_lcd_ingame+0x13a>
     8fc:	d2 31       	cpi	r29, 0x12	; 18
     8fe:	29 f4       	brne	.+10     	; 0x90a <nokia_lcd_ingame+0x124>
     900:	61 e0       	ldi	r22, 0x01	; 1
     902:	84 ec       	ldi	r24, 0xC4	; 196
     904:	94 e0       	ldi	r25, 0x04	; 4
	else if(score == 19)
     906:	de de       	rcall	.-580    	; 0x6c4 <nokia_lcd_write_string>
     908:	0b c0       	rjmp	.+22     	; 0x920 <nokia_lcd_ingame+0x13a>
	nokia_lcd_write_string("19", 1);
     90a:	d3 31       	cpi	r29, 0x13	; 19
     90c:	29 f4       	brne	.+10     	; 0x918 <nokia_lcd_ingame+0x132>
     90e:	61 e0       	ldi	r22, 0x01	; 1
     910:	87 ec       	ldi	r24, 0xC7	; 199
     912:	94 e0       	ldi	r25, 0x04	; 4
	else //if(score == 20)
	nokia_lcd_write_string("20", 1);
     914:	d7 de       	rcall	.-594    	; 0x6c4 <nokia_lcd_write_string>
     916:	04 c0       	rjmp	.+8      	; 0x920 <nokia_lcd_ingame+0x13a>
     918:	61 e0       	ldi	r22, 0x01	; 1
     91a:	8a ec       	ldi	r24, 0xCA	; 202
     91c:	94 e0       	ldi	r25, 0x04	; 4
		nokia_lcd_write_char(*str++, scale);
}

void nokia_lcd_set_cursor(uint8_t x, uint8_t y)
{
	nokia_lcd.cursor_x = x;
     91e:	d2 de       	rcall	.-604    	; 0x6c4 <nokia_lcd_write_string>
     920:	0f 2e       	mov	r0, r31
     922:	f8 e2       	ldi	r31, 0x28	; 40
     924:	ef 2e       	mov	r14, r31
     926:	f8 e0       	ldi	r31, 0x08	; 8
     928:	ff 2e       	mov	r15, r31
     92a:	f0 2d       	mov	r31, r0
	nokia_lcd.cursor_y = y;
     92c:	f7 01       	movw	r30, r14
     92e:	10 82       	st	Z, r1
     930:	09 e2       	ldi	r16, 0x29	; 41
     932:	18 e0       	ldi	r17, 0x08	; 8
	else if(score == 19)
	nokia_lcd_write_string("19", 1);
	else //if(score == 20)
	nokia_lcd_write_string("20", 1);
	nokia_lcd_set_cursor(0,10);
	nokia_lcd_write_string("  +  ", 1);
     934:	8a e0       	ldi	r24, 0x0A	; 10
     936:	f8 01       	movw	r30, r16
     938:	80 83       	st	Z, r24
     93a:	61 e0       	ldi	r22, 0x01	; 1
     93c:	8d ec       	ldi	r24, 0xCD	; 205
		nokia_lcd_write_char(*str++, scale);
}

void nokia_lcd_set_cursor(uint8_t x, uint8_t y)
{
	nokia_lcd.cursor_x = x;
     93e:	94 e0       	ldi	r25, 0x04	; 4
     940:	c1 de       	rcall	.-638    	; 0x6c4 <nokia_lcd_write_string>
	nokia_lcd.cursor_y = y;
     942:	f7 01       	movw	r30, r14
     944:	10 82       	st	Z, r1
	else //if(score == 20)
	nokia_lcd_write_string("20", 1);
	nokia_lcd_set_cursor(0,10);
	nokia_lcd_write_string("  +  ", 1);
	nokia_lcd_set_cursor(0,20);
	nokia_lcd_write_string("*   -", 1);
     946:	84 e1       	ldi	r24, 0x14	; 20
     948:	f8 01       	movw	r30, r16
     94a:	80 83       	st	Z, r24
     94c:	61 e0       	ldi	r22, 0x01	; 1
		nokia_lcd_write_char(*str++, scale);
}

void nokia_lcd_set_cursor(uint8_t x, uint8_t y)
{
	nokia_lcd.cursor_x = x;
     94e:	83 ed       	ldi	r24, 0xD3	; 211
     950:	94 e0       	ldi	r25, 0x04	; 4
	nokia_lcd.cursor_y = y;
     952:	b8 de       	rcall	.-656    	; 0x6c4 <nokia_lcd_write_string>
     954:	f7 01       	movw	r30, r14
     956:	10 82       	st	Z, r1
	nokia_lcd_set_cursor(0,10);
	nokia_lcd_write_string("  +  ", 1);
	nokia_lcd_set_cursor(0,20);
	nokia_lcd_write_string("*   -", 1);
	nokia_lcd_set_cursor(0, 30);
	nokia_lcd_write_string("  /  ", 1);
     958:	8e e1       	ldi	r24, 0x1E	; 30
     95a:	f8 01       	movw	r30, r16
     95c:	80 83       	st	Z, r24
     95e:	61 e0       	ldi	r22, 0x01	; 1
		nokia_lcd_write_char(*str++, scale);
}

void nokia_lcd_set_cursor(uint8_t x, uint8_t y)
{
	nokia_lcd.cursor_x = x;
     960:	89 ed       	ldi	r24, 0xD9	; 217
     962:	94 e0       	ldi	r25, 0x04	; 4
	nokia_lcd.cursor_y = y;
     964:	af de       	rcall	.-674    	; 0x6c4 <nokia_lcd_write_string>
     966:	f7 01       	movw	r30, r14
	nokia_lcd_set_cursor(0,20);
	nokia_lcd_write_string("*   -", 1);
	nokia_lcd_set_cursor(0, 30);
	nokia_lcd_write_string("  /  ", 1);
	nokia_lcd_set_cursor(0, 40);
	nokia_lcd_write_string("Time : ", 1);
     968:	10 82       	st	Z, r1
     96a:	88 e2       	ldi	r24, 0x28	; 40
     96c:	f8 01       	movw	r30, r16
     96e:	80 83       	st	Z, r24
	if(secPassed == 0)
     970:	61 e0       	ldi	r22, 0x01	; 1
     972:	8f ed       	ldi	r24, 0xDF	; 223
	nokia_lcd_write_string("0", 1);
     974:	94 e0       	ldi	r25, 0x04	; 4
     976:	a6 de       	rcall	.-692    	; 0x6c4 <nokia_lcd_write_string>
     978:	c1 11       	cpse	r28, r1
     97a:	05 c0       	rjmp	.+10     	; 0x986 <nokia_lcd_ingame+0x1a0>
     97c:	61 e0       	ldi	r22, 0x01	; 1
	else if(secPassed == 1)
     97e:	85 e2       	ldi	r24, 0x25	; 37
     980:	96 e0       	ldi	r25, 0x06	; 6
	nokia_lcd_write_string("1", 1);
     982:	a0 de       	rcall	.-704    	; 0x6c4 <nokia_lcd_write_string>
     984:	75 c2       	rjmp	.+1258   	; 0xe70 <nokia_lcd_ingame+0x68a>
     986:	c1 30       	cpi	r28, 0x01	; 1
     988:	29 f4       	brne	.+10     	; 0x994 <nokia_lcd_ingame+0x1ae>
     98a:	61 e0       	ldi	r22, 0x01	; 1
	else if(secPassed == 2)
     98c:	80 eb       	ldi	r24, 0xB0	; 176
     98e:	94 e0       	ldi	r25, 0x04	; 4
	nokia_lcd_write_string("2", 1);
     990:	99 de       	rcall	.-718    	; 0x6c4 <nokia_lcd_write_string>
     992:	6e c2       	rjmp	.+1244   	; 0xe70 <nokia_lcd_ingame+0x68a>
     994:	c2 30       	cpi	r28, 0x02	; 2
     996:	29 f4       	brne	.+10     	; 0x9a2 <nokia_lcd_ingame+0x1bc>
     998:	61 e0       	ldi	r22, 0x01	; 1
	else if(secPassed == 3)
     99a:	83 eb       	ldi	r24, 0xB3	; 179
     99c:	94 e0       	ldi	r25, 0x04	; 4
	nokia_lcd_write_string("3", 1);
     99e:	92 de       	rcall	.-732    	; 0x6c4 <nokia_lcd_write_string>
     9a0:	67 c2       	rjmp	.+1230   	; 0xe70 <nokia_lcd_ingame+0x68a>
     9a2:	c3 30       	cpi	r28, 0x03	; 3
     9a4:	29 f4       	brne	.+10     	; 0x9b0 <nokia_lcd_ingame+0x1ca>
     9a6:	61 e0       	ldi	r22, 0x01	; 1
	else if(secPassed == 4)
     9a8:	86 eb       	ldi	r24, 0xB6	; 182
     9aa:	94 e0       	ldi	r25, 0x04	; 4
	nokia_lcd_write_string("4", 1);
     9ac:	8b de       	rcall	.-746    	; 0x6c4 <nokia_lcd_write_string>
     9ae:	60 c2       	rjmp	.+1216   	; 0xe70 <nokia_lcd_ingame+0x68a>
     9b0:	c4 30       	cpi	r28, 0x04	; 4
     9b2:	29 f4       	brne	.+10     	; 0x9be <nokia_lcd_ingame+0x1d8>
     9b4:	61 e0       	ldi	r22, 0x01	; 1
	else if(secPassed == 5)
     9b6:	89 eb       	ldi	r24, 0xB9	; 185
	nokia_lcd_write_string("5", 1);
     9b8:	94 e0       	ldi	r25, 0x04	; 4
     9ba:	84 de       	rcall	.-760    	; 0x6c4 <nokia_lcd_write_string>
     9bc:	59 c2       	rjmp	.+1202   	; 0xe70 <nokia_lcd_ingame+0x68a>
     9be:	c5 30       	cpi	r28, 0x05	; 5
     9c0:	29 f4       	brne	.+10     	; 0x9cc <nokia_lcd_ingame+0x1e6>
     9c2:	61 e0       	ldi	r22, 0x01	; 1
	else if(secPassed == 6)
     9c4:	8c eb       	ldi	r24, 0xBC	; 188
	nokia_lcd_write_string("6", 1);
     9c6:	94 e0       	ldi	r25, 0x04	; 4
     9c8:	7d de       	rcall	.-774    	; 0x6c4 <nokia_lcd_write_string>
     9ca:	52 c2       	rjmp	.+1188   	; 0xe70 <nokia_lcd_ingame+0x68a>
     9cc:	c6 30       	cpi	r28, 0x06	; 6
     9ce:	29 f4       	brne	.+10     	; 0x9da <nokia_lcd_ingame+0x1f4>
	else if(secPassed == 7)
     9d0:	61 e0       	ldi	r22, 0x01	; 1
     9d2:	8f eb       	ldi	r24, 0xBF	; 191
	nokia_lcd_write_string("7", 1);
     9d4:	94 e0       	ldi	r25, 0x04	; 4
     9d6:	76 de       	rcall	.-788    	; 0x6c4 <nokia_lcd_write_string>
     9d8:	4b c2       	rjmp	.+1174   	; 0xe70 <nokia_lcd_ingame+0x68a>
     9da:	c7 30       	cpi	r28, 0x07	; 7
     9dc:	29 f4       	brne	.+10     	; 0x9e8 <nokia_lcd_ingame+0x202>
	else if(secPassed == 8)
     9de:	61 e0       	ldi	r22, 0x01	; 1
     9e0:	82 ec       	ldi	r24, 0xC2	; 194
	nokia_lcd_write_string("8", 1);
     9e2:	94 e0       	ldi	r25, 0x04	; 4
     9e4:	6f de       	rcall	.-802    	; 0x6c4 <nokia_lcd_write_string>
     9e6:	44 c2       	rjmp	.+1160   	; 0xe70 <nokia_lcd_ingame+0x68a>
     9e8:	c8 30       	cpi	r28, 0x08	; 8
     9ea:	29 f4       	brne	.+10     	; 0x9f6 <nokia_lcd_ingame+0x210>
	else if(secPassed == 9)
     9ec:	61 e0       	ldi	r22, 0x01	; 1
     9ee:	85 ec       	ldi	r24, 0xC5	; 197
	nokia_lcd_write_string("9", 1);
     9f0:	94 e0       	ldi	r25, 0x04	; 4
     9f2:	68 de       	rcall	.-816    	; 0x6c4 <nokia_lcd_write_string>
     9f4:	3d c2       	rjmp	.+1146   	; 0xe70 <nokia_lcd_ingame+0x68a>
     9f6:	c9 30       	cpi	r28, 0x09	; 9
     9f8:	29 f4       	brne	.+10     	; 0xa04 <nokia_lcd_ingame+0x21e>
	else if(secPassed == 10)
     9fa:	61 e0       	ldi	r22, 0x01	; 1
     9fc:	88 ec       	ldi	r24, 0xC8	; 200
	nokia_lcd_write_string("10", 1);
     9fe:	94 e0       	ldi	r25, 0x04	; 4
     a00:	61 de       	rcall	.-830    	; 0x6c4 <nokia_lcd_write_string>
     a02:	36 c2       	rjmp	.+1132   	; 0xe70 <nokia_lcd_ingame+0x68a>
     a04:	ca 30       	cpi	r28, 0x0A	; 10
     a06:	29 f4       	brne	.+10     	; 0xa12 <nokia_lcd_ingame+0x22c>
	else if(secPassed == 11)
     a08:	61 e0       	ldi	r22, 0x01	; 1
     a0a:	8c ea       	ldi	r24, 0xAC	; 172
	nokia_lcd_write_string("11", 1);
     a0c:	94 e0       	ldi	r25, 0x04	; 4
     a0e:	5a de       	rcall	.-844    	; 0x6c4 <nokia_lcd_write_string>
     a10:	2f c2       	rjmp	.+1118   	; 0xe70 <nokia_lcd_ingame+0x68a>
     a12:	cb 30       	cpi	r28, 0x0B	; 11
     a14:	29 f4       	brne	.+10     	; 0xa20 <nokia_lcd_ingame+0x23a>
	else if(secPassed == 12)
     a16:	61 e0       	ldi	r22, 0x01	; 1
	nokia_lcd_write_string("12", 1);
     a18:	8f ea       	ldi	r24, 0xAF	; 175
     a1a:	94 e0       	ldi	r25, 0x04	; 4
     a1c:	53 de       	rcall	.-858    	; 0x6c4 <nokia_lcd_write_string>
     a1e:	28 c2       	rjmp	.+1104   	; 0xe70 <nokia_lcd_ingame+0x68a>
     a20:	cc 30       	cpi	r28, 0x0C	; 12
     a22:	29 f4       	brne	.+10     	; 0xa2e <nokia_lcd_ingame+0x248>
	else if(secPassed == 13)
     a24:	61 e0       	ldi	r22, 0x01	; 1
	nokia_lcd_write_string("13", 1);
     a26:	82 eb       	ldi	r24, 0xB2	; 178
     a28:	94 e0       	ldi	r25, 0x04	; 4
     a2a:	4c de       	rcall	.-872    	; 0x6c4 <nokia_lcd_write_string>
     a2c:	21 c2       	rjmp	.+1090   	; 0xe70 <nokia_lcd_ingame+0x68a>
     a2e:	cd 30       	cpi	r28, 0x0D	; 13
	else if(secPassed == 14)
     a30:	29 f4       	brne	.+10     	; 0xa3c <nokia_lcd_ingame+0x256>
     a32:	61 e0       	ldi	r22, 0x01	; 1
	nokia_lcd_write_string("14", 1);
     a34:	85 eb       	ldi	r24, 0xB5	; 181
     a36:	94 e0       	ldi	r25, 0x04	; 4
     a38:	45 de       	rcall	.-886    	; 0x6c4 <nokia_lcd_write_string>
     a3a:	1a c2       	rjmp	.+1076   	; 0xe70 <nokia_lcd_ingame+0x68a>
     a3c:	ce 30       	cpi	r28, 0x0E	; 14
	else if(secPassed == 15)
     a3e:	29 f4       	brne	.+10     	; 0xa4a <nokia_lcd_ingame+0x264>
     a40:	61 e0       	ldi	r22, 0x01	; 1
	nokia_lcd_write_string("15", 1);
     a42:	88 eb       	ldi	r24, 0xB8	; 184
     a44:	94 e0       	ldi	r25, 0x04	; 4
     a46:	3e de       	rcall	.-900    	; 0x6c4 <nokia_lcd_write_string>
     a48:	13 c2       	rjmp	.+1062   	; 0xe70 <nokia_lcd_ingame+0x68a>
     a4a:	cf 30       	cpi	r28, 0x0F	; 15
	else if(secPassed == 16)
     a4c:	29 f4       	brne	.+10     	; 0xa58 <nokia_lcd_ingame+0x272>
     a4e:	61 e0       	ldi	r22, 0x01	; 1
	nokia_lcd_write_string("16", 1);
     a50:	8b eb       	ldi	r24, 0xBB	; 187
     a52:	94 e0       	ldi	r25, 0x04	; 4
     a54:	37 de       	rcall	.-914    	; 0x6c4 <nokia_lcd_write_string>
     a56:	0c c2       	rjmp	.+1048   	; 0xe70 <nokia_lcd_ingame+0x68a>
     a58:	c0 31       	cpi	r28, 0x10	; 16
	else if(secPassed == 17)
     a5a:	29 f4       	brne	.+10     	; 0xa66 <nokia_lcd_ingame+0x280>
     a5c:	61 e0       	ldi	r22, 0x01	; 1
	nokia_lcd_write_string("17", 1);
     a5e:	8e eb       	ldi	r24, 0xBE	; 190
     a60:	94 e0       	ldi	r25, 0x04	; 4
     a62:	30 de       	rcall	.-928    	; 0x6c4 <nokia_lcd_write_string>
     a64:	05 c2       	rjmp	.+1034   	; 0xe70 <nokia_lcd_ingame+0x68a>
     a66:	c1 31       	cpi	r28, 0x11	; 17
	else if(secPassed == 18)
     a68:	29 f4       	brne	.+10     	; 0xa74 <nokia_lcd_ingame+0x28e>
     a6a:	61 e0       	ldi	r22, 0x01	; 1
	nokia_lcd_write_string("18", 1);
     a6c:	81 ec       	ldi	r24, 0xC1	; 193
     a6e:	94 e0       	ldi	r25, 0x04	; 4
     a70:	29 de       	rcall	.-942    	; 0x6c4 <nokia_lcd_write_string>
     a72:	fe c1       	rjmp	.+1020   	; 0xe70 <nokia_lcd_ingame+0x68a>
     a74:	c2 31       	cpi	r28, 0x12	; 18
	else if(secPassed == 19)
     a76:	29 f4       	brne	.+10     	; 0xa82 <nokia_lcd_ingame+0x29c>
	nokia_lcd_write_string("19", 1);
     a78:	61 e0       	ldi	r22, 0x01	; 1
     a7a:	84 ec       	ldi	r24, 0xC4	; 196
     a7c:	94 e0       	ldi	r25, 0x04	; 4
     a7e:	22 de       	rcall	.-956    	; 0x6c4 <nokia_lcd_write_string>
     a80:	f7 c1       	rjmp	.+1006   	; 0xe70 <nokia_lcd_ingame+0x68a>
     a82:	c3 31       	cpi	r28, 0x13	; 19
	else if(secPassed == 20)
     a84:	29 f4       	brne	.+10     	; 0xa90 <nokia_lcd_ingame+0x2aa>
	nokia_lcd_write_string("20", 1);
     a86:	61 e0       	ldi	r22, 0x01	; 1
     a88:	87 ec       	ldi	r24, 0xC7	; 199
     a8a:	94 e0       	ldi	r25, 0x04	; 4
     a8c:	1b de       	rcall	.-970    	; 0x6c4 <nokia_lcd_write_string>
     a8e:	f0 c1       	rjmp	.+992    	; 0xe70 <nokia_lcd_ingame+0x68a>
	else if(secPassed == 21)
     a90:	c4 31       	cpi	r28, 0x14	; 20
     a92:	29 f4       	brne	.+10     	; 0xa9e <nokia_lcd_ingame+0x2b8>
	nokia_lcd_write_string("21", 1);
     a94:	61 e0       	ldi	r22, 0x01	; 1
     a96:	8a ec       	ldi	r24, 0xCA	; 202
     a98:	94 e0       	ldi	r25, 0x04	; 4
     a9a:	14 de       	rcall	.-984    	; 0x6c4 <nokia_lcd_write_string>
     a9c:	e9 c1       	rjmp	.+978    	; 0xe70 <nokia_lcd_ingame+0x68a>
	else if(secPassed == 22)
     a9e:	c5 31       	cpi	r28, 0x15	; 21
     aa0:	29 f4       	brne	.+10     	; 0xaac <nokia_lcd_ingame+0x2c6>
	nokia_lcd_write_string("22", 1);
     aa2:	61 e0       	ldi	r22, 0x01	; 1
     aa4:	87 ee       	ldi	r24, 0xE7	; 231
     aa6:	94 e0       	ldi	r25, 0x04	; 4
     aa8:	0d de       	rcall	.-998    	; 0x6c4 <nokia_lcd_write_string>
     aaa:	e2 c1       	rjmp	.+964    	; 0xe70 <nokia_lcd_ingame+0x68a>
	else if(secPassed == 23)
     aac:	c6 31       	cpi	r28, 0x16	; 22
     aae:	29 f4       	brne	.+10     	; 0xaba <nokia_lcd_ingame+0x2d4>
	nokia_lcd_write_string("23", 1);
     ab0:	61 e0       	ldi	r22, 0x01	; 1
     ab2:	8a ee       	ldi	r24, 0xEA	; 234
     ab4:	94 e0       	ldi	r25, 0x04	; 4
     ab6:	06 de       	rcall	.-1012   	; 0x6c4 <nokia_lcd_write_string>
     ab8:	db c1       	rjmp	.+950    	; 0xe70 <nokia_lcd_ingame+0x68a>
	else if(secPassed == 24)
     aba:	c7 31       	cpi	r28, 0x17	; 23
     abc:	29 f4       	brne	.+10     	; 0xac8 <nokia_lcd_ingame+0x2e2>
	nokia_lcd_write_string("24", 1);
     abe:	61 e0       	ldi	r22, 0x01	; 1
     ac0:	8d ee       	ldi	r24, 0xED	; 237
     ac2:	94 e0       	ldi	r25, 0x04	; 4
     ac4:	ff dd       	rcall	.-1026   	; 0x6c4 <nokia_lcd_write_string>
     ac6:	d4 c1       	rjmp	.+936    	; 0xe70 <nokia_lcd_ingame+0x68a>
	else if(secPassed == 25)
     ac8:	c8 31       	cpi	r28, 0x18	; 24
     aca:	29 f4       	brne	.+10     	; 0xad6 <nokia_lcd_ingame+0x2f0>
	nokia_lcd_write_string("25", 1);
     acc:	61 e0       	ldi	r22, 0x01	; 1
     ace:	80 ef       	ldi	r24, 0xF0	; 240
     ad0:	94 e0       	ldi	r25, 0x04	; 4
     ad2:	f8 dd       	rcall	.-1040   	; 0x6c4 <nokia_lcd_write_string>
     ad4:	cd c1       	rjmp	.+922    	; 0xe70 <nokia_lcd_ingame+0x68a>
	else if(secPassed == 26)
     ad6:	c9 31       	cpi	r28, 0x19	; 25
	nokia_lcd_write_string("26", 1);
     ad8:	29 f4       	brne	.+10     	; 0xae4 <nokia_lcd_ingame+0x2fe>
     ada:	61 e0       	ldi	r22, 0x01	; 1
     adc:	83 ef       	ldi	r24, 0xF3	; 243
     ade:	94 e0       	ldi	r25, 0x04	; 4
     ae0:	f1 dd       	rcall	.-1054   	; 0x6c4 <nokia_lcd_write_string>
     ae2:	c6 c1       	rjmp	.+908    	; 0xe70 <nokia_lcd_ingame+0x68a>
	else if(secPassed == 27)
     ae4:	ca 31       	cpi	r28, 0x1A	; 26
	nokia_lcd_write_string("27", 1);
     ae6:	29 f4       	brne	.+10     	; 0xaf2 <nokia_lcd_ingame+0x30c>
     ae8:	61 e0       	ldi	r22, 0x01	; 1
     aea:	86 ef       	ldi	r24, 0xF6	; 246
     aec:	94 e0       	ldi	r25, 0x04	; 4
     aee:	ea dd       	rcall	.-1068   	; 0x6c4 <nokia_lcd_write_string>
	else if(secPassed == 28)
     af0:	bf c1       	rjmp	.+894    	; 0xe70 <nokia_lcd_ingame+0x68a>
     af2:	cb 31       	cpi	r28, 0x1B	; 27
	nokia_lcd_write_string("28", 1);
     af4:	29 f4       	brne	.+10     	; 0xb00 <nokia_lcd_ingame+0x31a>
     af6:	61 e0       	ldi	r22, 0x01	; 1
     af8:	89 ef       	ldi	r24, 0xF9	; 249
     afa:	94 e0       	ldi	r25, 0x04	; 4
     afc:	e3 dd       	rcall	.-1082   	; 0x6c4 <nokia_lcd_write_string>
	else if(secPassed == 29)
     afe:	b8 c1       	rjmp	.+880    	; 0xe70 <nokia_lcd_ingame+0x68a>
     b00:	cc 31       	cpi	r28, 0x1C	; 28
	nokia_lcd_write_string("29", 1);
     b02:	29 f4       	brne	.+10     	; 0xb0e <nokia_lcd_ingame+0x328>
     b04:	61 e0       	ldi	r22, 0x01	; 1
     b06:	8c ef       	ldi	r24, 0xFC	; 252
     b08:	94 e0       	ldi	r25, 0x04	; 4
     b0a:	dc dd       	rcall	.-1096   	; 0x6c4 <nokia_lcd_write_string>
	else if(secPassed == 30)
     b0c:	b1 c1       	rjmp	.+866    	; 0xe70 <nokia_lcd_ingame+0x68a>
     b0e:	cd 31       	cpi	r28, 0x1D	; 29
	nokia_lcd_write_string("30", 1);
     b10:	29 f4       	brne	.+10     	; 0xb1c <nokia_lcd_ingame+0x336>
     b12:	61 e0       	ldi	r22, 0x01	; 1
     b14:	8f ef       	ldi	r24, 0xFF	; 255
     b16:	94 e0       	ldi	r25, 0x04	; 4
     b18:	d5 dd       	rcall	.-1110   	; 0x6c4 <nokia_lcd_write_string>
	else if(secPassed == 31)
     b1a:	aa c1       	rjmp	.+852    	; 0xe70 <nokia_lcd_ingame+0x68a>
     b1c:	ce 31       	cpi	r28, 0x1E	; 30
	nokia_lcd_write_string("31", 1);
     b1e:	29 f4       	brne	.+10     	; 0xb2a <nokia_lcd_ingame+0x344>
     b20:	61 e0       	ldi	r22, 0x01	; 1
     b22:	82 e0       	ldi	r24, 0x02	; 2
     b24:	95 e0       	ldi	r25, 0x05	; 5
     b26:	ce dd       	rcall	.-1124   	; 0x6c4 <nokia_lcd_write_string>
	else if(secPassed == 32)
     b28:	a3 c1       	rjmp	.+838    	; 0xe70 <nokia_lcd_ingame+0x68a>
     b2a:	cf 31       	cpi	r28, 0x1F	; 31
	nokia_lcd_write_string("32", 1);
     b2c:	29 f4       	brne	.+10     	; 0xb38 <nokia_lcd_ingame+0x352>
     b2e:	61 e0       	ldi	r22, 0x01	; 1
     b30:	85 e0       	ldi	r24, 0x05	; 5
     b32:	95 e0       	ldi	r25, 0x05	; 5
     b34:	c7 dd       	rcall	.-1138   	; 0x6c4 <nokia_lcd_write_string>
	else if(secPassed == 33)
     b36:	9c c1       	rjmp	.+824    	; 0xe70 <nokia_lcd_ingame+0x68a>
	nokia_lcd_write_string("33", 1);
     b38:	c0 32       	cpi	r28, 0x20	; 32
     b3a:	29 f4       	brne	.+10     	; 0xb46 <nokia_lcd_ingame+0x360>
     b3c:	61 e0       	ldi	r22, 0x01	; 1
     b3e:	88 e0       	ldi	r24, 0x08	; 8
     b40:	95 e0       	ldi	r25, 0x05	; 5
     b42:	c0 dd       	rcall	.-1152   	; 0x6c4 <nokia_lcd_write_string>
	else if(secPassed == 34)
     b44:	95 c1       	rjmp	.+810    	; 0xe70 <nokia_lcd_ingame+0x68a>
	nokia_lcd_write_string("34", 1);
     b46:	c1 32       	cpi	r28, 0x21	; 33
     b48:	29 f4       	brne	.+10     	; 0xb54 <nokia_lcd_ingame+0x36e>
     b4a:	61 e0       	ldi	r22, 0x01	; 1
     b4c:	8b e0       	ldi	r24, 0x0B	; 11
     b4e:	95 e0       	ldi	r25, 0x05	; 5
	else if(secPassed == 35)
     b50:	b9 dd       	rcall	.-1166   	; 0x6c4 <nokia_lcd_write_string>
     b52:	8e c1       	rjmp	.+796    	; 0xe70 <nokia_lcd_ingame+0x68a>
	nokia_lcd_write_string("35", 1);
     b54:	c2 32       	cpi	r28, 0x22	; 34
     b56:	29 f4       	brne	.+10     	; 0xb62 <nokia_lcd_ingame+0x37c>
     b58:	61 e0       	ldi	r22, 0x01	; 1
     b5a:	8e e0       	ldi	r24, 0x0E	; 14
     b5c:	95 e0       	ldi	r25, 0x05	; 5
	else if(secPassed == 36)
     b5e:	b2 dd       	rcall	.-1180   	; 0x6c4 <nokia_lcd_write_string>
     b60:	87 c1       	rjmp	.+782    	; 0xe70 <nokia_lcd_ingame+0x68a>
	nokia_lcd_write_string("36", 1);
     b62:	c3 32       	cpi	r28, 0x23	; 35
     b64:	29 f4       	brne	.+10     	; 0xb70 <nokia_lcd_ingame+0x38a>
     b66:	61 e0       	ldi	r22, 0x01	; 1
     b68:	81 e1       	ldi	r24, 0x11	; 17
     b6a:	95 e0       	ldi	r25, 0x05	; 5
	else if(secPassed == 37)
     b6c:	ab dd       	rcall	.-1194   	; 0x6c4 <nokia_lcd_write_string>
     b6e:	80 c1       	rjmp	.+768    	; 0xe70 <nokia_lcd_ingame+0x68a>
	nokia_lcd_write_string("37", 1);
     b70:	c4 32       	cpi	r28, 0x24	; 36
     b72:	29 f4       	brne	.+10     	; 0xb7e <nokia_lcd_ingame+0x398>
     b74:	61 e0       	ldi	r22, 0x01	; 1
     b76:	84 e1       	ldi	r24, 0x14	; 20
     b78:	95 e0       	ldi	r25, 0x05	; 5
	else if(secPassed == 38)
     b7a:	a4 dd       	rcall	.-1208   	; 0x6c4 <nokia_lcd_write_string>
     b7c:	79 c1       	rjmp	.+754    	; 0xe70 <nokia_lcd_ingame+0x68a>
	nokia_lcd_write_string("38", 1);
     b7e:	c5 32       	cpi	r28, 0x25	; 37
     b80:	29 f4       	brne	.+10     	; 0xb8c <nokia_lcd_ingame+0x3a6>
     b82:	61 e0       	ldi	r22, 0x01	; 1
     b84:	87 e1       	ldi	r24, 0x17	; 23
     b86:	95 e0       	ldi	r25, 0x05	; 5
	else if(secPassed == 39)
     b88:	9d dd       	rcall	.-1222   	; 0x6c4 <nokia_lcd_write_string>
     b8a:	72 c1       	rjmp	.+740    	; 0xe70 <nokia_lcd_ingame+0x68a>
	nokia_lcd_write_string("39", 1);
     b8c:	c6 32       	cpi	r28, 0x26	; 38
     b8e:	29 f4       	brne	.+10     	; 0xb9a <nokia_lcd_ingame+0x3b4>
     b90:	61 e0       	ldi	r22, 0x01	; 1
     b92:	8a e1       	ldi	r24, 0x1A	; 26
     b94:	95 e0       	ldi	r25, 0x05	; 5
	else if(secPassed == 40)
     b96:	96 dd       	rcall	.-1236   	; 0x6c4 <nokia_lcd_write_string>
	nokia_lcd_write_string("40", 1);
     b98:	6b c1       	rjmp	.+726    	; 0xe70 <nokia_lcd_ingame+0x68a>
     b9a:	c7 32       	cpi	r28, 0x27	; 39
     b9c:	29 f4       	brne	.+10     	; 0xba8 <nokia_lcd_ingame+0x3c2>
     b9e:	61 e0       	ldi	r22, 0x01	; 1
     ba0:	8d e1       	ldi	r24, 0x1D	; 29
     ba2:	95 e0       	ldi	r25, 0x05	; 5
	else if(secPassed == 41)
     ba4:	8f dd       	rcall	.-1250   	; 0x6c4 <nokia_lcd_write_string>
	nokia_lcd_write_string("41", 1);
     ba6:	64 c1       	rjmp	.+712    	; 0xe70 <nokia_lcd_ingame+0x68a>
     ba8:	c8 32       	cpi	r28, 0x28	; 40
     baa:	29 f4       	brne	.+10     	; 0xbb6 <nokia_lcd_ingame+0x3d0>
     bac:	61 e0       	ldi	r22, 0x01	; 1
     bae:	80 e2       	ldi	r24, 0x20	; 32
	else if(secPassed == 42)
     bb0:	95 e0       	ldi	r25, 0x05	; 5
     bb2:	88 dd       	rcall	.-1264   	; 0x6c4 <nokia_lcd_write_string>
	nokia_lcd_write_string("42", 1);
     bb4:	5d c1       	rjmp	.+698    	; 0xe70 <nokia_lcd_ingame+0x68a>
     bb6:	c9 32       	cpi	r28, 0x29	; 41
     bb8:	29 f4       	brne	.+10     	; 0xbc4 <nokia_lcd_ingame+0x3de>
     bba:	61 e0       	ldi	r22, 0x01	; 1
     bbc:	83 e2       	ldi	r24, 0x23	; 35
	else if(secPassed == 43)
     bbe:	95 e0       	ldi	r25, 0x05	; 5
     bc0:	81 dd       	rcall	.-1278   	; 0x6c4 <nokia_lcd_write_string>
	nokia_lcd_write_string("43", 1);
     bc2:	56 c1       	rjmp	.+684    	; 0xe70 <nokia_lcd_ingame+0x68a>
     bc4:	ca 32       	cpi	r28, 0x2A	; 42
     bc6:	29 f4       	brne	.+10     	; 0xbd2 <nokia_lcd_ingame+0x3ec>
     bc8:	61 e0       	ldi	r22, 0x01	; 1
     bca:	86 e2       	ldi	r24, 0x26	; 38
	else if(secPassed == 44)
     bcc:	95 e0       	ldi	r25, 0x05	; 5
     bce:	7a dd       	rcall	.-1292   	; 0x6c4 <nokia_lcd_write_string>
	nokia_lcd_write_string("44", 1);
     bd0:	4f c1       	rjmp	.+670    	; 0xe70 <nokia_lcd_ingame+0x68a>
     bd2:	cb 32       	cpi	r28, 0x2B	; 43
     bd4:	29 f4       	brne	.+10     	; 0xbe0 <nokia_lcd_ingame+0x3fa>
     bd6:	61 e0       	ldi	r22, 0x01	; 1
     bd8:	89 e2       	ldi	r24, 0x29	; 41
	else if(secPassed == 45)
     bda:	95 e0       	ldi	r25, 0x05	; 5
     bdc:	73 dd       	rcall	.-1306   	; 0x6c4 <nokia_lcd_write_string>
	nokia_lcd_write_string("45", 1);
     bde:	48 c1       	rjmp	.+656    	; 0xe70 <nokia_lcd_ingame+0x68a>
     be0:	cc 32       	cpi	r28, 0x2C	; 44
     be2:	29 f4       	brne	.+10     	; 0xbee <nokia_lcd_ingame+0x408>
     be4:	61 e0       	ldi	r22, 0x01	; 1
     be6:	8c e2       	ldi	r24, 0x2C	; 44
	else if(secPassed == 46)
     be8:	95 e0       	ldi	r25, 0x05	; 5
     bea:	6c dd       	rcall	.-1320   	; 0x6c4 <nokia_lcd_write_string>
	nokia_lcd_write_string("46", 1);
     bec:	41 c1       	rjmp	.+642    	; 0xe70 <nokia_lcd_ingame+0x68a>
     bee:	cd 32       	cpi	r28, 0x2D	; 45
     bf0:	29 f4       	brne	.+10     	; 0xbfc <nokia_lcd_ingame+0x416>
     bf2:	61 e0       	ldi	r22, 0x01	; 1
     bf4:	8f e2       	ldi	r24, 0x2F	; 47
	else if(secPassed == 47)
     bf6:	95 e0       	ldi	r25, 0x05	; 5
	nokia_lcd_write_string("47", 1);
     bf8:	65 dd       	rcall	.-1334   	; 0x6c4 <nokia_lcd_write_string>
     bfa:	3a c1       	rjmp	.+628    	; 0xe70 <nokia_lcd_ingame+0x68a>
     bfc:	ce 32       	cpi	r28, 0x2E	; 46
     bfe:	29 f4       	brne	.+10     	; 0xc0a <nokia_lcd_ingame+0x424>
     c00:	61 e0       	ldi	r22, 0x01	; 1
     c02:	82 e3       	ldi	r24, 0x32	; 50
	else if(secPassed == 48)
     c04:	95 e0       	ldi	r25, 0x05	; 5
	nokia_lcd_write_string("48", 1);
     c06:	5e dd       	rcall	.-1348   	; 0x6c4 <nokia_lcd_write_string>
     c08:	33 c1       	rjmp	.+614    	; 0xe70 <nokia_lcd_ingame+0x68a>
     c0a:	cf 32       	cpi	r28, 0x2F	; 47
     c0c:	29 f4       	brne	.+10     	; 0xc18 <nokia_lcd_ingame+0x432>
     c0e:	61 e0       	ldi	r22, 0x01	; 1
	else if(secPassed == 49)
     c10:	85 e3       	ldi	r24, 0x35	; 53
     c12:	95 e0       	ldi	r25, 0x05	; 5
	nokia_lcd_write_string("49", 1);
     c14:	57 dd       	rcall	.-1362   	; 0x6c4 <nokia_lcd_write_string>
     c16:	2c c1       	rjmp	.+600    	; 0xe70 <nokia_lcd_ingame+0x68a>
     c18:	c0 33       	cpi	r28, 0x30	; 48
     c1a:	29 f4       	brne	.+10     	; 0xc26 <nokia_lcd_ingame+0x440>
     c1c:	61 e0       	ldi	r22, 0x01	; 1
	else if(secPassed == 50)
     c1e:	88 e3       	ldi	r24, 0x38	; 56
     c20:	95 e0       	ldi	r25, 0x05	; 5
	nokia_lcd_write_string("50", 1);
     c22:	50 dd       	rcall	.-1376   	; 0x6c4 <nokia_lcd_write_string>
     c24:	25 c1       	rjmp	.+586    	; 0xe70 <nokia_lcd_ingame+0x68a>
     c26:	c1 33       	cpi	r28, 0x31	; 49
     c28:	29 f4       	brne	.+10     	; 0xc34 <nokia_lcd_ingame+0x44e>
     c2a:	61 e0       	ldi	r22, 0x01	; 1
	else if(secPassed == 51)
     c2c:	8b e3       	ldi	r24, 0x3B	; 59
     c2e:	95 e0       	ldi	r25, 0x05	; 5
	nokia_lcd_write_string("51", 1);
     c30:	49 dd       	rcall	.-1390   	; 0x6c4 <nokia_lcd_write_string>
     c32:	1e c1       	rjmp	.+572    	; 0xe70 <nokia_lcd_ingame+0x68a>
     c34:	c2 33       	cpi	r28, 0x32	; 50
     c36:	29 f4       	brne	.+10     	; 0xc42 <nokia_lcd_ingame+0x45c>
     c38:	61 e0       	ldi	r22, 0x01	; 1
	else if(secPassed == 52)
     c3a:	8e e3       	ldi	r24, 0x3E	; 62
     c3c:	95 e0       	ldi	r25, 0x05	; 5
	nokia_lcd_write_string("52", 1);
     c3e:	42 dd       	rcall	.-1404   	; 0x6c4 <nokia_lcd_write_string>
     c40:	17 c1       	rjmp	.+558    	; 0xe70 <nokia_lcd_ingame+0x68a>
     c42:	c3 33       	cpi	r28, 0x33	; 51
     c44:	29 f4       	brne	.+10     	; 0xc50 <nokia_lcd_ingame+0x46a>
     c46:	61 e0       	ldi	r22, 0x01	; 1
	else if(secPassed == 53)
     c48:	81 e4       	ldi	r24, 0x41	; 65
     c4a:	95 e0       	ldi	r25, 0x05	; 5
	nokia_lcd_write_string("53", 1);
     c4c:	3b dd       	rcall	.-1418   	; 0x6c4 <nokia_lcd_write_string>
     c4e:	10 c1       	rjmp	.+544    	; 0xe70 <nokia_lcd_ingame+0x68a>
     c50:	c4 33       	cpi	r28, 0x34	; 52
     c52:	29 f4       	brne	.+10     	; 0xc5e <nokia_lcd_ingame+0x478>
     c54:	61 e0       	ldi	r22, 0x01	; 1
	else if(secPassed == 54)
     c56:	84 e4       	ldi	r24, 0x44	; 68
	nokia_lcd_write_string("54", 1);
     c58:	95 e0       	ldi	r25, 0x05	; 5
     c5a:	34 dd       	rcall	.-1432   	; 0x6c4 <nokia_lcd_write_string>
     c5c:	09 c1       	rjmp	.+530    	; 0xe70 <nokia_lcd_ingame+0x68a>
     c5e:	c5 33       	cpi	r28, 0x35	; 53
     c60:	29 f4       	brne	.+10     	; 0xc6c <nokia_lcd_ingame+0x486>
     c62:	61 e0       	ldi	r22, 0x01	; 1
	else if(secPassed == 55)
     c64:	87 e4       	ldi	r24, 0x47	; 71
	nokia_lcd_write_string("55", 1);
     c66:	95 e0       	ldi	r25, 0x05	; 5
     c68:	2d dd       	rcall	.-1446   	; 0x6c4 <nokia_lcd_write_string>
     c6a:	02 c1       	rjmp	.+516    	; 0xe70 <nokia_lcd_ingame+0x68a>
     c6c:	c6 33       	cpi	r28, 0x36	; 54
     c6e:	29 f4       	brne	.+10     	; 0xc7a <nokia_lcd_ingame+0x494>
	else if(secPassed == 56)
     c70:	61 e0       	ldi	r22, 0x01	; 1
     c72:	8a e4       	ldi	r24, 0x4A	; 74
	nokia_lcd_write_string("56", 1);
     c74:	95 e0       	ldi	r25, 0x05	; 5
     c76:	26 dd       	rcall	.-1460   	; 0x6c4 <nokia_lcd_write_string>
     c78:	fb c0       	rjmp	.+502    	; 0xe70 <nokia_lcd_ingame+0x68a>
     c7a:	c7 33       	cpi	r28, 0x37	; 55
     c7c:	29 f4       	brne	.+10     	; 0xc88 <nokia_lcd_ingame+0x4a2>
	else if(secPassed == 57)
     c7e:	61 e0       	ldi	r22, 0x01	; 1
     c80:	8d e4       	ldi	r24, 0x4D	; 77
	nokia_lcd_write_string("57", 1);
     c82:	95 e0       	ldi	r25, 0x05	; 5
     c84:	1f dd       	rcall	.-1474   	; 0x6c4 <nokia_lcd_write_string>
     c86:	f4 c0       	rjmp	.+488    	; 0xe70 <nokia_lcd_ingame+0x68a>
     c88:	c8 33       	cpi	r28, 0x38	; 56
     c8a:	29 f4       	brne	.+10     	; 0xc96 <nokia_lcd_ingame+0x4b0>
	else if(secPassed == 58)
     c8c:	61 e0       	ldi	r22, 0x01	; 1
     c8e:	80 e5       	ldi	r24, 0x50	; 80
	nokia_lcd_write_string("58", 1);
     c90:	95 e0       	ldi	r25, 0x05	; 5
     c92:	18 dd       	rcall	.-1488   	; 0x6c4 <nokia_lcd_write_string>
     c94:	ed c0       	rjmp	.+474    	; 0xe70 <nokia_lcd_ingame+0x68a>
     c96:	c9 33       	cpi	r28, 0x39	; 57
     c98:	29 f4       	brne	.+10     	; 0xca4 <nokia_lcd_ingame+0x4be>
	else if(secPassed == 59)
     c9a:	61 e0       	ldi	r22, 0x01	; 1
     c9c:	83 e5       	ldi	r24, 0x53	; 83
	nokia_lcd_write_string("59", 1);
     c9e:	95 e0       	ldi	r25, 0x05	; 5
     ca0:	11 dd       	rcall	.-1502   	; 0x6c4 <nokia_lcd_write_string>
     ca2:	e6 c0       	rjmp	.+460    	; 0xe70 <nokia_lcd_ingame+0x68a>
     ca4:	ca 33       	cpi	r28, 0x3A	; 58
     ca6:	29 f4       	brne	.+10     	; 0xcb2 <nokia_lcd_ingame+0x4cc>
	else if(secPassed == 60)
     ca8:	61 e0       	ldi	r22, 0x01	; 1
     caa:	86 e5       	ldi	r24, 0x56	; 86
	nokia_lcd_write_string("60", 1);
     cac:	95 e0       	ldi	r25, 0x05	; 5
     cae:	0a dd       	rcall	.-1516   	; 0x6c4 <nokia_lcd_write_string>
     cb0:	df c0       	rjmp	.+446    	; 0xe70 <nokia_lcd_ingame+0x68a>
     cb2:	cb 33       	cpi	r28, 0x3B	; 59
     cb4:	29 f4       	brne	.+10     	; 0xcc0 <nokia_lcd_ingame+0x4da>
	else if(secPassed == 61)
     cb6:	61 e0       	ldi	r22, 0x01	; 1
	nokia_lcd_write_string("61", 1);
     cb8:	89 e5       	ldi	r24, 0x59	; 89
     cba:	95 e0       	ldi	r25, 0x05	; 5
     cbc:	03 dd       	rcall	.-1530   	; 0x6c4 <nokia_lcd_write_string>
     cbe:	d8 c0       	rjmp	.+432    	; 0xe70 <nokia_lcd_ingame+0x68a>
     cc0:	cc 33       	cpi	r28, 0x3C	; 60
     cc2:	29 f4       	brne	.+10     	; 0xcce <nokia_lcd_ingame+0x4e8>
	else if(secPassed == 62)
     cc4:	61 e0       	ldi	r22, 0x01	; 1
	nokia_lcd_write_string("62", 1);
     cc6:	8c e5       	ldi	r24, 0x5C	; 92
     cc8:	95 e0       	ldi	r25, 0x05	; 5
     cca:	fc dc       	rcall	.-1544   	; 0x6c4 <nokia_lcd_write_string>
     ccc:	d1 c0       	rjmp	.+418    	; 0xe70 <nokia_lcd_ingame+0x68a>
     cce:	cd 33       	cpi	r28, 0x3D	; 61
	else if(secPassed == 63)
     cd0:	29 f4       	brne	.+10     	; 0xcdc <nokia_lcd_ingame+0x4f6>
     cd2:	61 e0       	ldi	r22, 0x01	; 1
	nokia_lcd_write_string("63", 1);
     cd4:	8f e5       	ldi	r24, 0x5F	; 95
     cd6:	95 e0       	ldi	r25, 0x05	; 5
     cd8:	f5 dc       	rcall	.-1558   	; 0x6c4 <nokia_lcd_write_string>
     cda:	ca c0       	rjmp	.+404    	; 0xe70 <nokia_lcd_ingame+0x68a>
     cdc:	ce 33       	cpi	r28, 0x3E	; 62
	else if(secPassed == 64)
     cde:	29 f4       	brne	.+10     	; 0xcea <nokia_lcd_ingame+0x504>
     ce0:	61 e0       	ldi	r22, 0x01	; 1
	nokia_lcd_write_string("64", 1);
     ce2:	82 e6       	ldi	r24, 0x62	; 98
     ce4:	95 e0       	ldi	r25, 0x05	; 5
     ce6:	ee dc       	rcall	.-1572   	; 0x6c4 <nokia_lcd_write_string>
     ce8:	c3 c0       	rjmp	.+390    	; 0xe70 <nokia_lcd_ingame+0x68a>
     cea:	cf 33       	cpi	r28, 0x3F	; 63
	else if(secPassed == 65)
     cec:	29 f4       	brne	.+10     	; 0xcf8 <nokia_lcd_ingame+0x512>
     cee:	61 e0       	ldi	r22, 0x01	; 1
	nokia_lcd_write_string("65", 1);
     cf0:	85 e6       	ldi	r24, 0x65	; 101
     cf2:	95 e0       	ldi	r25, 0x05	; 5
     cf4:	e7 dc       	rcall	.-1586   	; 0x6c4 <nokia_lcd_write_string>
     cf6:	bc c0       	rjmp	.+376    	; 0xe70 <nokia_lcd_ingame+0x68a>
     cf8:	c0 34       	cpi	r28, 0x40	; 64
	else if(secPassed == 66)
     cfa:	29 f4       	brne	.+10     	; 0xd06 <nokia_lcd_ingame+0x520>
     cfc:	61 e0       	ldi	r22, 0x01	; 1
	nokia_lcd_write_string("66", 1);
     cfe:	88 e6       	ldi	r24, 0x68	; 104
     d00:	95 e0       	ldi	r25, 0x05	; 5
     d02:	e0 dc       	rcall	.-1600   	; 0x6c4 <nokia_lcd_write_string>
     d04:	b5 c0       	rjmp	.+362    	; 0xe70 <nokia_lcd_ingame+0x68a>
     d06:	c1 34       	cpi	r28, 0x41	; 65
	else if(secPassed == 67)
     d08:	29 f4       	brne	.+10     	; 0xd14 <nokia_lcd_ingame+0x52e>
     d0a:	61 e0       	ldi	r22, 0x01	; 1
	nokia_lcd_write_string("67", 1);
     d0c:	8b e6       	ldi	r24, 0x6B	; 107
     d0e:	95 e0       	ldi	r25, 0x05	; 5
     d10:	d9 dc       	rcall	.-1614   	; 0x6c4 <nokia_lcd_write_string>
     d12:	ae c0       	rjmp	.+348    	; 0xe70 <nokia_lcd_ingame+0x68a>
     d14:	c2 34       	cpi	r28, 0x42	; 66
	else if(secPassed == 68)
     d16:	29 f4       	brne	.+10     	; 0xd22 <nokia_lcd_ingame+0x53c>
	nokia_lcd_write_string("68", 1);
     d18:	61 e0       	ldi	r22, 0x01	; 1
     d1a:	8e e6       	ldi	r24, 0x6E	; 110
     d1c:	95 e0       	ldi	r25, 0x05	; 5
     d1e:	d2 dc       	rcall	.-1628   	; 0x6c4 <nokia_lcd_write_string>
     d20:	a7 c0       	rjmp	.+334    	; 0xe70 <nokia_lcd_ingame+0x68a>
     d22:	c3 34       	cpi	r28, 0x43	; 67
	else if(secPassed == 69)
     d24:	29 f4       	brne	.+10     	; 0xd30 <nokia_lcd_ingame+0x54a>
	nokia_lcd_write_string("69", 1);
     d26:	61 e0       	ldi	r22, 0x01	; 1
     d28:	81 e7       	ldi	r24, 0x71	; 113
     d2a:	95 e0       	ldi	r25, 0x05	; 5
     d2c:	cb dc       	rcall	.-1642   	; 0x6c4 <nokia_lcd_write_string>
     d2e:	a0 c0       	rjmp	.+320    	; 0xe70 <nokia_lcd_ingame+0x68a>
	else if(secPassed == 70)
     d30:	c4 34       	cpi	r28, 0x44	; 68
     d32:	29 f4       	brne	.+10     	; 0xd3e <nokia_lcd_ingame+0x558>
	nokia_lcd_write_string("70", 1);
     d34:	61 e0       	ldi	r22, 0x01	; 1
     d36:	84 e7       	ldi	r24, 0x74	; 116
     d38:	95 e0       	ldi	r25, 0x05	; 5
     d3a:	c4 dc       	rcall	.-1656   	; 0x6c4 <nokia_lcd_write_string>
     d3c:	99 c0       	rjmp	.+306    	; 0xe70 <nokia_lcd_ingame+0x68a>
	else if(secPassed == 71)
     d3e:	c5 34       	cpi	r28, 0x45	; 69
     d40:	29 f4       	brne	.+10     	; 0xd4c <nokia_lcd_ingame+0x566>
	nokia_lcd_write_string("71", 1);
     d42:	61 e0       	ldi	r22, 0x01	; 1
     d44:	87 e7       	ldi	r24, 0x77	; 119
     d46:	95 e0       	ldi	r25, 0x05	; 5
     d48:	bd dc       	rcall	.-1670   	; 0x6c4 <nokia_lcd_write_string>
     d4a:	92 c0       	rjmp	.+292    	; 0xe70 <nokia_lcd_ingame+0x68a>
	else if(secPassed == 72)
     d4c:	c6 34       	cpi	r28, 0x46	; 70
     d4e:	29 f4       	brne	.+10     	; 0xd5a <nokia_lcd_ingame+0x574>
	nokia_lcd_write_string("72", 1);
     d50:	61 e0       	ldi	r22, 0x01	; 1
     d52:	8a e7       	ldi	r24, 0x7A	; 122
     d54:	95 e0       	ldi	r25, 0x05	; 5
     d56:	b6 dc       	rcall	.-1684   	; 0x6c4 <nokia_lcd_write_string>
     d58:	8b c0       	rjmp	.+278    	; 0xe70 <nokia_lcd_ingame+0x68a>
	else if(secPassed == 73)
     d5a:	c7 34       	cpi	r28, 0x47	; 71
     d5c:	29 f4       	brne	.+10     	; 0xd68 <nokia_lcd_ingame+0x582>
	nokia_lcd_write_string("73", 1);
     d5e:	61 e0       	ldi	r22, 0x01	; 1
     d60:	8d e7       	ldi	r24, 0x7D	; 125
     d62:	95 e0       	ldi	r25, 0x05	; 5
     d64:	af dc       	rcall	.-1698   	; 0x6c4 <nokia_lcd_write_string>
     d66:	84 c0       	rjmp	.+264    	; 0xe70 <nokia_lcd_ingame+0x68a>
	else if(secPassed == 74)
     d68:	c8 34       	cpi	r28, 0x48	; 72
     d6a:	29 f4       	brne	.+10     	; 0xd76 <nokia_lcd_ingame+0x590>
	nokia_lcd_write_string("74", 1);
     d6c:	61 e0       	ldi	r22, 0x01	; 1
     d6e:	80 e8       	ldi	r24, 0x80	; 128
     d70:	95 e0       	ldi	r25, 0x05	; 5
     d72:	a8 dc       	rcall	.-1712   	; 0x6c4 <nokia_lcd_write_string>
     d74:	7d c0       	rjmp	.+250    	; 0xe70 <nokia_lcd_ingame+0x68a>
	else if(secPassed == 75)
     d76:	c9 34       	cpi	r28, 0x49	; 73
	nokia_lcd_write_string("75", 1);
     d78:	29 f4       	brne	.+10     	; 0xd84 <nokia_lcd_ingame+0x59e>
     d7a:	61 e0       	ldi	r22, 0x01	; 1
     d7c:	83 e8       	ldi	r24, 0x83	; 131
     d7e:	95 e0       	ldi	r25, 0x05	; 5
     d80:	a1 dc       	rcall	.-1726   	; 0x6c4 <nokia_lcd_write_string>
     d82:	76 c0       	rjmp	.+236    	; 0xe70 <nokia_lcd_ingame+0x68a>
	else if(secPassed == 76)
     d84:	ca 34       	cpi	r28, 0x4A	; 74
	nokia_lcd_write_string("76", 1);
     d86:	29 f4       	brne	.+10     	; 0xd92 <nokia_lcd_ingame+0x5ac>
     d88:	61 e0       	ldi	r22, 0x01	; 1
     d8a:	86 e8       	ldi	r24, 0x86	; 134
     d8c:	95 e0       	ldi	r25, 0x05	; 5
     d8e:	9a dc       	rcall	.-1740   	; 0x6c4 <nokia_lcd_write_string>
     d90:	6f c0       	rjmp	.+222    	; 0xe70 <nokia_lcd_ingame+0x68a>
	else if(secPassed == 77)
     d92:	cb 34       	cpi	r28, 0x4B	; 75
     d94:	29 f4       	brne	.+10     	; 0xda0 <nokia_lcd_ingame+0x5ba>
	nokia_lcd_write_string("77", 1);
     d96:	61 e0       	ldi	r22, 0x01	; 1
     d98:	89 e8       	ldi	r24, 0x89	; 137
     d9a:	95 e0       	ldi	r25, 0x05	; 5
     d9c:	93 dc       	rcall	.-1754   	; 0x6c4 <nokia_lcd_write_string>
     d9e:	68 c0       	rjmp	.+208    	; 0xe70 <nokia_lcd_ingame+0x68a>
     da0:	cc 34       	cpi	r28, 0x4C	; 76
	else if(secPassed == 78)
     da2:	29 f4       	brne	.+10     	; 0xdae <nokia_lcd_ingame+0x5c8>
     da4:	61 e0       	ldi	r22, 0x01	; 1
	nokia_lcd_write_string("78", 1);
     da6:	8c e8       	ldi	r24, 0x8C	; 140
     da8:	95 e0       	ldi	r25, 0x05	; 5
     daa:	8c dc       	rcall	.-1768   	; 0x6c4 <nokia_lcd_write_string>
     dac:	61 c0       	rjmp	.+194    	; 0xe70 <nokia_lcd_ingame+0x68a>
     dae:	cd 34       	cpi	r28, 0x4D	; 77
     db0:	29 f4       	brne	.+10     	; 0xdbc <nokia_lcd_ingame+0x5d6>
	else if(secPassed == 79)
     db2:	61 e0       	ldi	r22, 0x01	; 1
     db4:	8f e8       	ldi	r24, 0x8F	; 143
	nokia_lcd_write_string("79", 1);
     db6:	95 e0       	ldi	r25, 0x05	; 5
     db8:	85 dc       	rcall	.-1782   	; 0x6c4 <nokia_lcd_write_string>
     dba:	5a c0       	rjmp	.+180    	; 0xe70 <nokia_lcd_ingame+0x68a>
     dbc:	ce 34       	cpi	r28, 0x4E	; 78
     dbe:	29 f4       	brne	.+10     	; 0xdca <nokia_lcd_ingame+0x5e4>
     dc0:	61 e0       	ldi	r22, 0x01	; 1
	else if(secPassed == 80)
     dc2:	82 e9       	ldi	r24, 0x92	; 146
     dc4:	95 e0       	ldi	r25, 0x05	; 5
	nokia_lcd_write_string("80", 1);
     dc6:	7e dc       	rcall	.-1796   	; 0x6c4 <nokia_lcd_write_string>
     dc8:	53 c0       	rjmp	.+166    	; 0xe70 <nokia_lcd_ingame+0x68a>
     dca:	cf 34       	cpi	r28, 0x4F	; 79
     dcc:	29 f4       	brne	.+10     	; 0xdd8 <nokia_lcd_ingame+0x5f2>
     dce:	61 e0       	ldi	r22, 0x01	; 1
     dd0:	85 e9       	ldi	r24, 0x95	; 149
	else if(secPassed == 81)
     dd2:	95 e0       	ldi	r25, 0x05	; 5
     dd4:	77 dc       	rcall	.-1810   	; 0x6c4 <nokia_lcd_write_string>
	nokia_lcd_write_string("81", 1);
     dd6:	4c c0       	rjmp	.+152    	; 0xe70 <nokia_lcd_ingame+0x68a>
     dd8:	c0 35       	cpi	r28, 0x50	; 80
     dda:	29 f4       	brne	.+10     	; 0xde6 <nokia_lcd_ingame+0x600>
     ddc:	61 e0       	ldi	r22, 0x01	; 1
     dde:	88 e9       	ldi	r24, 0x98	; 152
     de0:	95 e0       	ldi	r25, 0x05	; 5
	else if(secPassed == 82)
     de2:	70 dc       	rcall	.-1824   	; 0x6c4 <nokia_lcd_write_string>
     de4:	45 c0       	rjmp	.+138    	; 0xe70 <nokia_lcd_ingame+0x68a>
	nokia_lcd_write_string("82", 1);
     de6:	c1 35       	cpi	r28, 0x51	; 81
     de8:	29 f4       	brne	.+10     	; 0xdf4 <nokia_lcd_ingame+0x60e>
     dea:	61 e0       	ldi	r22, 0x01	; 1
     dec:	8b e9       	ldi	r24, 0x9B	; 155
     dee:	95 e0       	ldi	r25, 0x05	; 5
     df0:	69 dc       	rcall	.-1838   	; 0x6c4 <nokia_lcd_write_string>
	else if(secPassed == 83)
     df2:	3e c0       	rjmp	.+124    	; 0xe70 <nokia_lcd_ingame+0x68a>
     df4:	c2 35       	cpi	r28, 0x52	; 82
	nokia_lcd_write_string("83", 1);
     df6:	29 f4       	brne	.+10     	; 0xe02 <nokia_lcd_ingame+0x61c>
     df8:	61 e0       	ldi	r22, 0x01	; 1
     dfa:	8e e9       	ldi	r24, 0x9E	; 158
     dfc:	95 e0       	ldi	r25, 0x05	; 5
     dfe:	62 dc       	rcall	.-1852   	; 0x6c4 <nokia_lcd_write_string>
     e00:	37 c0       	rjmp	.+110    	; 0xe70 <nokia_lcd_ingame+0x68a>
	else if(secPassed == 84)
     e02:	c3 35       	cpi	r28, 0x53	; 83
     e04:	29 f4       	brne	.+10     	; 0xe10 <nokia_lcd_ingame+0x62a>
	nokia_lcd_write_string("84", 1);
     e06:	61 e0       	ldi	r22, 0x01	; 1
     e08:	81 ea       	ldi	r24, 0xA1	; 161
     e0a:	95 e0       	ldi	r25, 0x05	; 5
     e0c:	5b dc       	rcall	.-1866   	; 0x6c4 <nokia_lcd_write_string>
     e0e:	30 c0       	rjmp	.+96     	; 0xe70 <nokia_lcd_ingame+0x68a>
     e10:	c4 35       	cpi	r28, 0x54	; 84
	else if(secPassed == 85)
     e12:	29 f4       	brne	.+10     	; 0xe1e <nokia_lcd_ingame+0x638>
     e14:	61 e0       	ldi	r22, 0x01	; 1
	nokia_lcd_write_string("85", 1);
     e16:	84 ea       	ldi	r24, 0xA4	; 164
     e18:	95 e0       	ldi	r25, 0x05	; 5
     e1a:	54 dc       	rcall	.-1880   	; 0x6c4 <nokia_lcd_write_string>
     e1c:	29 c0       	rjmp	.+82     	; 0xe70 <nokia_lcd_ingame+0x68a>
     e1e:	c5 35       	cpi	r28, 0x55	; 85
     e20:	29 f4       	brne	.+10     	; 0xe2c <nokia_lcd_ingame+0x646>
	else if(secPassed == 86)
     e22:	61 e0       	ldi	r22, 0x01	; 1
     e24:	87 ea       	ldi	r24, 0xA7	; 167
	nokia_lcd_write_string("86", 1);
     e26:	95 e0       	ldi	r25, 0x05	; 5
     e28:	4d dc       	rcall	.-1894   	; 0x6c4 <nokia_lcd_write_string>
     e2a:	22 c0       	rjmp	.+68     	; 0xe70 <nokia_lcd_ingame+0x68a>
     e2c:	c6 35       	cpi	r28, 0x56	; 86
     e2e:	29 f4       	brne	.+10     	; 0xe3a <nokia_lcd_ingame+0x654>
     e30:	61 e0       	ldi	r22, 0x01	; 1
	else if(secPassed == 87)
     e32:	8a ea       	ldi	r24, 0xAA	; 170
     e34:	95 e0       	ldi	r25, 0x05	; 5
	nokia_lcd_write_string("87", 1);
     e36:	46 dc       	rcall	.-1908   	; 0x6c4 <nokia_lcd_write_string>
     e38:	1b c0       	rjmp	.+54     	; 0xe70 <nokia_lcd_ingame+0x68a>
     e3a:	c7 35       	cpi	r28, 0x57	; 87
     e3c:	29 f4       	brne	.+10     	; 0xe48 <nokia_lcd_ingame+0x662>
     e3e:	61 e0       	ldi	r22, 0x01	; 1
     e40:	8d ea       	ldi	r24, 0xAD	; 173
	else if(secPassed == 88)
     e42:	95 e0       	ldi	r25, 0x05	; 5
     e44:	3f dc       	rcall	.-1922   	; 0x6c4 <nokia_lcd_write_string>
	nokia_lcd_write_string("88", 1);
     e46:	14 c0       	rjmp	.+40     	; 0xe70 <nokia_lcd_ingame+0x68a>
     e48:	c8 35       	cpi	r28, 0x58	; 88
     e4a:	29 f4       	brne	.+10     	; 0xe56 <nokia_lcd_ingame+0x670>
     e4c:	61 e0       	ldi	r22, 0x01	; 1
     e4e:	80 eb       	ldi	r24, 0xB0	; 176
     e50:	95 e0       	ldi	r25, 0x05	; 5
	else if(secPassed == 89)
     e52:	38 dc       	rcall	.-1936   	; 0x6c4 <nokia_lcd_write_string>
     e54:	0d c0       	rjmp	.+26     	; 0xe70 <nokia_lcd_ingame+0x68a>
	nokia_lcd_write_string("89", 1);
     e56:	c9 35       	cpi	r28, 0x59	; 89
     e58:	29 f4       	brne	.+10     	; 0xe64 <nokia_lcd_ingame+0x67e>
     e5a:	61 e0       	ldi	r22, 0x01	; 1
     e5c:	83 eb       	ldi	r24, 0xB3	; 179
     e5e:	95 e0       	ldi	r25, 0x05	; 5
     e60:	31 dc       	rcall	.-1950   	; 0x6c4 <nokia_lcd_write_string>
	else if(secPassed == 90)
     e62:	06 c0       	rjmp	.+12     	; 0xe70 <nokia_lcd_ingame+0x68a>
     e64:	ca 35       	cpi	r28, 0x5A	; 90
	nokia_lcd_write_string("90", 1);
     e66:	21 f4       	brne	.+8      	; 0xe70 <nokia_lcd_ingame+0x68a>
     e68:	61 e0       	ldi	r22, 0x01	; 1
     e6a:	86 eb       	ldi	r24, 0xB6	; 182
     e6c:	95 e0       	ldi	r25, 0x05	; 5
     e6e:	2a dc       	rcall	.-1964   	; 0x6c4 <nokia_lcd_write_string>
	
	
	nokia_lcd_render();
     e70:	3b dc       	rcall	.-1930   	; 0x6e8 <nokia_lcd_render>
     e72:	df 91       	pop	r29
     e74:	cf 91       	pop	r28
     e76:	1f 91       	pop	r17
     e78:	0f 91       	pop	r16
     e7a:	ff 90       	pop	r15
     e7c:	ef 90       	pop	r14
     e7e:	08 95       	ret

00000e80 <LCD_Custom_Char>:
     e80:	0f 93       	push	r16
	LCD_WriteData(' ');
	LCD_Cursor(cur++);
	LCD_WriteData(' ');
}

void LCD_Custom_Char (unsigned char loc, unsigned char *msg){
     e82:	1f 93       	push	r17
     e84:	cf 93       	push	r28
     e86:	df 93       	push	r29
     e88:	8b 01       	movw	r16, r22
	int i;
	LCD_WriteCommand (0x40 + (loc*8));	/* Command 0x40 for CGRAM */
     e8a:	88 0f       	add	r24, r24
     e8c:	88 0f       	add	r24, r24
     e8e:	88 0f       	add	r24, r24
     e90:	80 5c       	subi	r24, 0xC0	; 192
     e92:	92 da       	rcall	.-2780   	; 0x3b8 <LCD_WriteCommand>
     e94:	e8 01       	movw	r28, r16
     e96:	08 5f       	subi	r16, 0xF8	; 248
     e98:	1f 4f       	sbci	r17, 0xFF	; 255
	for(i = 0;i < 8; i++)	/* 8 cause 8 lines x 5 rows per character */
		LCD_WriteData(msg[i]);
     e9a:	89 91       	ld	r24, Y+
     e9c:	b0 da       	rcall	.-2720   	; 0x3fe <LCD_WriteData>
}

void LCD_Custom_Char (unsigned char loc, unsigned char *msg){
	int i;
	LCD_WriteCommand (0x40 + (loc*8));	/* Command 0x40 for CGRAM */
	for(i = 0;i < 8; i++)	/* 8 cause 8 lines x 5 rows per character */
     e9e:	c0 17       	cp	r28, r16
     ea0:	d1 07       	cpc	r29, r17
		LCD_WriteData(msg[i]);
	LCD_WriteCommand(0x80);
     ea2:	d9 f7       	brne	.-10     	; 0xe9a <LCD_Custom_Char+0x1a>
     ea4:	80 e8       	ldi	r24, 0x80	; 128
     ea6:	88 da       	rcall	.-2800   	; 0x3b8 <LCD_WriteCommand>
}
     ea8:	df 91       	pop	r29
     eaa:	cf 91       	pop	r28
     eac:	1f 91       	pop	r17
     eae:	0f 91       	pop	r16
     eb0:	08 95       	ret

00000eb2 <dispTime30>:
		break;
		default:
		break;			
	}
}
void dispTime30(){
     eb2:	cf 93       	push	r28
     eb4:	df 93       	push	r29
     eb6:	cd b7       	in	r28, 0x3d	; 61
     eb8:	de b7       	in	r29, 0x3e	; 62
     eba:	a8 97       	sbiw	r28, 0x28	; 40
     ebc:	0f b6       	in	r0, 0x3f	; 63
     ebe:	f8 94       	cli
     ec0:	de bf       	out	0x3e, r29	; 62
     ec2:	0f be       	out	0x3f, r0	; 63
     ec4:	cd bf       	out	0x3d, r28	; 61
	// 30sec highlighted in the top left
	
	unsigned char sel3[8] = {0x1f, 0x11, 0x1d, 0x11, 0x1d, 0x11, 0x1f, 0x00};
     ec6:	88 e0       	ldi	r24, 0x08	; 8
     ec8:	ed e0       	ldi	r30, 0x0D	; 13
     eca:	f1 e0       	ldi	r31, 0x01	; 1
     ecc:	de 01       	movw	r26, r28
     ece:	11 96       	adiw	r26, 0x01	; 1
     ed0:	01 90       	ld	r0, Z+
     ed2:	0d 92       	st	X+, r0
     ed4:	8a 95       	dec	r24
     ed6:	e1 f7       	brne	.-8      	; 0xed0 <dispTime30+0x1e>
	unsigned char sel0[8] = {0x1f, 0x11, 0x15, 0x15, 0x15, 0x11, 0x1f, 0x00};
     ed8:	88 e0       	ldi	r24, 0x08	; 8
     eda:	e5 e1       	ldi	r30, 0x15	; 21
     edc:	f1 e0       	ldi	r31, 0x01	; 1
     ede:	de 01       	movw	r26, r28
     ee0:	19 96       	adiw	r26, 0x09	; 9
     ee2:	01 90       	ld	r0, Z+
     ee4:	0d 92       	st	X+, r0
     ee6:	8a 95       	dec	r24
     ee8:	e1 f7       	brne	.-8      	; 0xee2 <dispTime30+0x30>
	unsigned char selS[8] = {0x1f, 0x11, 0x17, 0x11, 0x1d, 0x11, 0x1f, 0x00};
     eea:	88 e0       	ldi	r24, 0x08	; 8
     eec:	ed e1       	ldi	r30, 0x1D	; 29
     eee:	f1 e0       	ldi	r31, 0x01	; 1
     ef0:	de 01       	movw	r26, r28
     ef2:	51 96       	adiw	r26, 0x11	; 17
     ef4:	01 90       	ld	r0, Z+
     ef6:	0d 92       	st	X+, r0
     ef8:	8a 95       	dec	r24
     efa:	e1 f7       	brne	.-8      	; 0xef4 <dispTime30+0x42>
	unsigned char selE[8] = {0x1f, 0x11, 0x17, 0x13, 0x17, 0x11, 0x1f, 0x00};
     efc:	88 e0       	ldi	r24, 0x08	; 8
     efe:	e5 e2       	ldi	r30, 0x25	; 37
     f00:	f1 e0       	ldi	r31, 0x01	; 1
     f02:	de 01       	movw	r26, r28
     f04:	59 96       	adiw	r26, 0x19	; 25
     f06:	01 90       	ld	r0, Z+
     f08:	0d 92       	st	X+, r0
     f0a:	8a 95       	dec	r24
     f0c:	e1 f7       	brne	.-8      	; 0xf06 <dispTime30+0x54>
	unsigned char selC[8] = {0x1f, 0x11, 0x17, 0x17, 0x17, 0x11, 0x1f, 0x00};	
     f0e:	88 e0       	ldi	r24, 0x08	; 8
     f10:	ed e2       	ldi	r30, 0x2D	; 45
     f12:	f1 e0       	ldi	r31, 0x01	; 1
     f14:	de 01       	movw	r26, r28
     f16:	91 96       	adiw	r26, 0x21	; 33
     f18:	01 90       	ld	r0, Z+
     f1a:	0d 92       	st	X+, r0
     f1c:	8a 95       	dec	r24
     f1e:	e1 f7       	brne	.-8      	; 0xf18 <dispTime30+0x66>
	
	LCD_Custom_Char(0, sel3);		// build at position 0...
     f20:	be 01       	movw	r22, r28
     f22:	6f 5f       	subi	r22, 0xFF	; 255
     f24:	7f 4f       	sbci	r23, 0xFF	; 255
     f26:	80 e0       	ldi	r24, 0x00	; 0
     f28:	ab df       	rcall	.-170    	; 0xe80 <LCD_Custom_Char>
	LCD_Custom_Char(1, sel0);
     f2a:	be 01       	movw	r22, r28
     f2c:	67 5f       	subi	r22, 0xF7	; 247
     f2e:	7f 4f       	sbci	r23, 0xFF	; 255
     f30:	81 e0       	ldi	r24, 0x01	; 1
     f32:	a6 df       	rcall	.-180    	; 0xe80 <LCD_Custom_Char>
	LCD_Custom_Char(2, selS);
     f34:	be 01       	movw	r22, r28
     f36:	6f 5e       	subi	r22, 0xEF	; 239
     f38:	7f 4f       	sbci	r23, 0xFF	; 255
     f3a:	82 e0       	ldi	r24, 0x02	; 2
     f3c:	a1 df       	rcall	.-190    	; 0xe80 <LCD_Custom_Char>
	LCD_Custom_Char(3, selE);
     f3e:	be 01       	movw	r22, r28
     f40:	67 5e       	subi	r22, 0xE7	; 231
     f42:	7f 4f       	sbci	r23, 0xFF	; 255
     f44:	83 e0       	ldi	r24, 0x03	; 3
     f46:	9c df       	rcall	.-200    	; 0xe80 <LCD_Custom_Char>
	LCD_Custom_Char(4, selC);
     f48:	be 01       	movw	r22, r28
     f4a:	6f 5d       	subi	r22, 0xDF	; 223
     f4c:	7f 4f       	sbci	r23, 0xFF	; 255
     f4e:	84 e0       	ldi	r24, 0x04	; 4
	
	unsigned char cur = 1;		// initialize cursor to 1
	
	LCD_Cursor(cur++);
     f50:	97 df       	rcall	.-210    	; 0xe80 <LCD_Custom_Char>
     f52:	81 e0       	ldi	r24, 0x01	; 1
	LCD_WriteData(0);
     f54:	3d da       	rcall	.-2950   	; 0x3d0 <LCD_Cursor>
     f56:	80 e0       	ldi	r24, 0x00	; 0
	LCD_Cursor(cur++);
     f58:	52 da       	rcall	.-2908   	; 0x3fe <LCD_WriteData>
     f5a:	82 e0       	ldi	r24, 0x02	; 2
	LCD_WriteData(1);
     f5c:	39 da       	rcall	.-2958   	; 0x3d0 <LCD_Cursor>
     f5e:	81 e0       	ldi	r24, 0x01	; 1
	LCD_Cursor(cur++);
     f60:	4e da       	rcall	.-2916   	; 0x3fe <LCD_WriteData>
     f62:	83 e0       	ldi	r24, 0x03	; 3
	LCD_WriteData(' ');
     f64:	35 da       	rcall	.-2966   	; 0x3d0 <LCD_Cursor>
     f66:	80 e2       	ldi	r24, 0x20	; 32
	LCD_Cursor(cur++);
     f68:	4a da       	rcall	.-2924   	; 0x3fe <LCD_WriteData>
     f6a:	84 e0       	ldi	r24, 0x04	; 4
	LCD_WriteData(2);
     f6c:	31 da       	rcall	.-2974   	; 0x3d0 <LCD_Cursor>
     f6e:	82 e0       	ldi	r24, 0x02	; 2
	LCD_Cursor(cur++);
     f70:	46 da       	rcall	.-2932   	; 0x3fe <LCD_WriteData>
     f72:	85 e0       	ldi	r24, 0x05	; 5
	LCD_WriteData(3);
     f74:	2d da       	rcall	.-2982   	; 0x3d0 <LCD_Cursor>
     f76:	83 e0       	ldi	r24, 0x03	; 3
	LCD_Cursor(cur++);
     f78:	42 da       	rcall	.-2940   	; 0x3fe <LCD_WriteData>
     f7a:	86 e0       	ldi	r24, 0x06	; 6
	LCD_WriteData(4);
     f7c:	29 da       	rcall	.-2990   	; 0x3d0 <LCD_Cursor>
     f7e:	84 e0       	ldi	r24, 0x04	; 4
	LCD_Cursor(cur++);
     f80:	3e da       	rcall	.-2948   	; 0x3fe <LCD_WriteData>
     f82:	87 e0       	ldi	r24, 0x07	; 7
	LCD_WriteData(' ');
     f84:	25 da       	rcall	.-2998   	; 0x3d0 <LCD_Cursor>
     f86:	80 e2       	ldi	r24, 0x20	; 32
	LCD_Cursor(cur++);
     f88:	3a da       	rcall	.-2956   	; 0x3fe <LCD_WriteData>
     f8a:	88 e0       	ldi	r24, 0x08	; 8
	LCD_WriteData(' ');
     f8c:	21 da       	rcall	.-3006   	; 0x3d0 <LCD_Cursor>
     f8e:	80 e2       	ldi	r24, 0x20	; 32
	LCD_Cursor(cur++);
     f90:	36 da       	rcall	.-2964   	; 0x3fe <LCD_WriteData>
     f92:	89 e0       	ldi	r24, 0x09	; 9
	LCD_WriteData(' ');
     f94:	1d da       	rcall	.-3014   	; 0x3d0 <LCD_Cursor>
     f96:	80 e2       	ldi	r24, 0x20	; 32
	LCD_Cursor(cur++);
     f98:	32 da       	rcall	.-2972   	; 0x3fe <LCD_WriteData>
     f9a:	8a e0       	ldi	r24, 0x0A	; 10
	LCD_WriteData(' ');
     f9c:	19 da       	rcall	.-3022   	; 0x3d0 <LCD_Cursor>
     f9e:	80 e2       	ldi	r24, 0x20	; 32
	LCD_Cursor(cur++);
     fa0:	2e da       	rcall	.-2980   	; 0x3fe <LCD_WriteData>
     fa2:	8b e0       	ldi	r24, 0x0B	; 11
	LCD_WriteData('6');
     fa4:	15 da       	rcall	.-3030   	; 0x3d0 <LCD_Cursor>
     fa6:	86 e3       	ldi	r24, 0x36	; 54
	LCD_Cursor(cur++);
     fa8:	2a da       	rcall	.-2988   	; 0x3fe <LCD_WriteData>
     faa:	8c e0       	ldi	r24, 0x0C	; 12
	LCD_WriteData('0');
     fac:	11 da       	rcall	.-3038   	; 0x3d0 <LCD_Cursor>
     fae:	80 e3       	ldi	r24, 0x30	; 48
	LCD_Cursor(cur++);
     fb0:	26 da       	rcall	.-2996   	; 0x3fe <LCD_WriteData>
     fb2:	8d e0       	ldi	r24, 0x0D	; 13
	LCD_WriteData(' ');
     fb4:	0d da       	rcall	.-3046   	; 0x3d0 <LCD_Cursor>
     fb6:	80 e2       	ldi	r24, 0x20	; 32
	LCD_Cursor(cur++);
     fb8:	22 da       	rcall	.-3004   	; 0x3fe <LCD_WriteData>
     fba:	8e e0       	ldi	r24, 0x0E	; 14
	LCD_WriteData('S');
     fbc:	09 da       	rcall	.-3054   	; 0x3d0 <LCD_Cursor>
     fbe:	83 e5       	ldi	r24, 0x53	; 83
	LCD_Cursor(cur++);
     fc0:	1e da       	rcall	.-3012   	; 0x3fe <LCD_WriteData>
     fc2:	8f e0       	ldi	r24, 0x0F	; 15
	LCD_WriteData('E');
     fc4:	05 da       	rcall	.-3062   	; 0x3d0 <LCD_Cursor>
     fc6:	85 e4       	ldi	r24, 0x45	; 69
	LCD_Cursor(cur++);
     fc8:	1a da       	rcall	.-3020   	; 0x3fe <LCD_WriteData>
     fca:	80 e1       	ldi	r24, 0x10	; 16
	LCD_WriteData('C');
     fcc:	01 da       	rcall	.-3070   	; 0x3d0 <LCD_Cursor>
     fce:	83 e4       	ldi	r24, 0x43	; 67
	LCD_Cursor(cur++);		// Newline here
     fd0:	16 da       	rcall	.-3028   	; 0x3fe <LCD_WriteData>
     fd2:	81 e1       	ldi	r24, 0x11	; 17
	LCD_WriteData('9');
     fd4:	fd d9       	rcall	.-3078   	; 0x3d0 <LCD_Cursor>
     fd6:	89 e3       	ldi	r24, 0x39	; 57
	LCD_Cursor(cur++);
     fd8:	12 da       	rcall	.-3036   	; 0x3fe <LCD_WriteData>
     fda:	82 e1       	ldi	r24, 0x12	; 18
	LCD_WriteData('0');
     fdc:	f9 d9       	rcall	.-3086   	; 0x3d0 <LCD_Cursor>
     fde:	80 e3       	ldi	r24, 0x30	; 48
	LCD_Cursor(cur++);
     fe0:	0e da       	rcall	.-3044   	; 0x3fe <LCD_WriteData>
     fe2:	83 e1       	ldi	r24, 0x13	; 19
	LCD_WriteData(' ');
     fe4:	f5 d9       	rcall	.-3094   	; 0x3d0 <LCD_Cursor>
     fe6:	80 e2       	ldi	r24, 0x20	; 32
	LCD_Cursor(cur++);
     fe8:	0a da       	rcall	.-3052   	; 0x3fe <LCD_WriteData>
     fea:	84 e1       	ldi	r24, 0x14	; 20
	LCD_WriteData('S');
     fec:	f1 d9       	rcall	.-3102   	; 0x3d0 <LCD_Cursor>
     fee:	83 e5       	ldi	r24, 0x53	; 83
	LCD_Cursor(cur++);
     ff0:	06 da       	rcall	.-3060   	; 0x3fe <LCD_WriteData>
     ff2:	85 e1       	ldi	r24, 0x15	; 21
	LCD_WriteData('E');
     ff4:	ed d9       	rcall	.-3110   	; 0x3d0 <LCD_Cursor>
     ff6:	85 e4       	ldi	r24, 0x45	; 69
     ff8:	02 da       	rcall	.-3068   	; 0x3fe <LCD_WriteData>
	LCD_Cursor(cur++);
     ffa:	86 e1       	ldi	r24, 0x16	; 22
     ffc:	e9 d9       	rcall	.-3118   	; 0x3d0 <LCD_Cursor>
     ffe:	83 e4       	ldi	r24, 0x43	; 67
	LCD_WriteData('C');
    1000:	fe d9       	rcall	.-3076   	; 0x3fe <LCD_WriteData>
    1002:	87 e1       	ldi	r24, 0x17	; 23
    1004:	e5 d9       	rcall	.-3126   	; 0x3d0 <LCD_Cursor>
	LCD_Cursor(cur++);
    1006:	80 e2       	ldi	r24, 0x20	; 32
    1008:	fa d9       	rcall	.-3084   	; 0x3fe <LCD_WriteData>
    100a:	88 e1       	ldi	r24, 0x18	; 24
	LCD_WriteData(' ');
    100c:	e1 d9       	rcall	.-3134   	; 0x3d0 <LCD_Cursor>
    100e:	80 e2       	ldi	r24, 0x20	; 32
    1010:	f6 d9       	rcall	.-3092   	; 0x3fe <LCD_WriteData>
	LCD_Cursor(cur++);
    1012:	89 e1       	ldi	r24, 0x19	; 25
    1014:	dd d9       	rcall	.-3142   	; 0x3d0 <LCD_Cursor>
    1016:	80 e2       	ldi	r24, 0x20	; 32
	LCD_WriteData(' ');
    1018:	f2 d9       	rcall	.-3100   	; 0x3fe <LCD_WriteData>
    101a:	8a e1       	ldi	r24, 0x1A	; 26
    101c:	d9 d9       	rcall	.-3150   	; 0x3d0 <LCD_Cursor>
	LCD_Cursor(cur++);
    101e:	80 e2       	ldi	r24, 0x20	; 32
    1020:	ee d9       	rcall	.-3108   	; 0x3fe <LCD_WriteData>
    1022:	8b e1       	ldi	r24, 0x1B	; 27
	LCD_WriteData(' ');
    1024:	d5 d9       	rcall	.-3158   	; 0x3d0 <LCD_Cursor>
    1026:	80 e2       	ldi	r24, 0x20	; 32
    1028:	ea d9       	rcall	.-3116   	; 0x3fe <LCD_WriteData>
	LCD_Cursor(cur++);
    102a:	8c e1       	ldi	r24, 0x1C	; 28
    102c:	d1 d9       	rcall	.-3166   	; 0x3d0 <LCD_Cursor>
    102e:	80 e2       	ldi	r24, 0x20	; 32
	LCD_WriteData(' ');
    1030:	e6 d9       	rcall	.-3124   	; 0x3fe <LCD_WriteData>
    1032:	8d e1       	ldi	r24, 0x1D	; 29
    1034:	cd d9       	rcall	.-3174   	; 0x3d0 <LCD_Cursor>
	LCD_Cursor(cur++);
    1036:	80 e2       	ldi	r24, 0x20	; 32
    1038:	e2 d9       	rcall	.-3132   	; 0x3fe <LCD_WriteData>
    103a:	8e e1       	ldi	r24, 0x1E	; 30
	LCD_WriteData(' ');
    103c:	c9 d9       	rcall	.-3182   	; 0x3d0 <LCD_Cursor>
    103e:	80 e2       	ldi	r24, 0x20	; 32
    1040:	de d9       	rcall	.-3140   	; 0x3fe <LCD_WriteData>
	LCD_Cursor(cur++);
    1042:	8f e1       	ldi	r24, 0x1F	; 31
    1044:	c5 d9       	rcall	.-3190   	; 0x3d0 <LCD_Cursor>
    1046:	80 e2       	ldi	r24, 0x20	; 32
	LCD_WriteData(' ');
    1048:	da d9       	rcall	.-3148   	; 0x3fe <LCD_WriteData>
    104a:	80 e2       	ldi	r24, 0x20	; 32
    104c:	c1 d9       	rcall	.-3198   	; 0x3d0 <LCD_Cursor>
	LCD_Cursor(cur++);
    104e:	80 e2       	ldi	r24, 0x20	; 32
    1050:	d6 d9       	rcall	.-3156   	; 0x3fe <LCD_WriteData>
    1052:	a8 96       	adiw	r28, 0x28	; 40
	LCD_WriteData(' ');
    1054:	0f b6       	in	r0, 0x3f	; 63
    1056:	f8 94       	cli
    1058:	de bf       	out	0x3e, r29	; 62
	LCD_Cursor(cur++);
    105a:	0f be       	out	0x3f, r0	; 63
    105c:	cd bf       	out	0x3d, r28	; 61
    105e:	df 91       	pop	r29
	LCD_WriteData(' ');
    1060:	cf 91       	pop	r28
    1062:	08 95       	ret

00001064 <dispTime60>:
    1064:	cf 93       	push	r28
	LCD_Cursor(cur++);
    1066:	df 93       	push	r29
    1068:	cd b7       	in	r28, 0x3d	; 61
    106a:	de b7       	in	r29, 0x3e	; 62
	LCD_WriteData(' ');
    106c:	a8 97       	sbiw	r28, 0x28	; 40
    106e:	0f b6       	in	r0, 0x3f	; 63
    1070:	f8 94       	cli
	LCD_Cursor(cur++);
    1072:	de bf       	out	0x3e, r29	; 62
    1074:	0f be       	out	0x3f, r0	; 63
    1076:	cd bf       	out	0x3d, r28	; 61
	LCD_WriteData(' ');
    1078:	88 e0       	ldi	r24, 0x08	; 8
    107a:	e5 e3       	ldi	r30, 0x35	; 53
    107c:	f1 e0       	ldi	r31, 0x01	; 1
}
    107e:	de 01       	movw	r26, r28
    1080:	11 96       	adiw	r26, 0x01	; 1
    1082:	01 90       	ld	r0, Z+
    1084:	0d 92       	st	X+, r0
    1086:	8a 95       	dec	r24
    1088:	e1 f7       	brne	.-8      	; 0x1082 <dispTime60+0x1e>
    108a:	88 e0       	ldi	r24, 0x08	; 8
    108c:	e5 e1       	ldi	r30, 0x15	; 21
    108e:	f1 e0       	ldi	r31, 0x01	; 1
void dispTime60(){
	// 30sec highlighted in the top left
	
	unsigned char sel6[8] = {0x1f, 0x11, 0x17, 0x11, 0x15, 0x11, 0x1f, 0x00};
	unsigned char sel0[8] = {0x1f, 0x11, 0x15, 0x15, 0x15, 0x11, 0x1f, 0x00};
    1090:	de 01       	movw	r26, r28
    1092:	19 96       	adiw	r26, 0x09	; 9
    1094:	01 90       	ld	r0, Z+
    1096:	0d 92       	st	X+, r0
    1098:	8a 95       	dec	r24
    109a:	e1 f7       	brne	.-8      	; 0x1094 <dispTime60+0x30>
	unsigned char selS[8] = {0x1f, 0x11, 0x17, 0x11, 0x1d, 0x11, 0x1f, 0x00};
    109c:	88 e0       	ldi	r24, 0x08	; 8
    109e:	ed e1       	ldi	r30, 0x1D	; 29
    10a0:	f1 e0       	ldi	r31, 0x01	; 1
    10a2:	de 01       	movw	r26, r28
    10a4:	51 96       	adiw	r26, 0x11	; 17
    10a6:	01 90       	ld	r0, Z+
    10a8:	0d 92       	st	X+, r0
    10aa:	8a 95       	dec	r24
    10ac:	e1 f7       	brne	.-8      	; 0x10a6 <dispTime60+0x42>
	unsigned char selE[8] = {0x1f, 0x11, 0x17, 0x13, 0x17, 0x11, 0x1f, 0x00};
    10ae:	88 e0       	ldi	r24, 0x08	; 8
    10b0:	e5 e2       	ldi	r30, 0x25	; 37
    10b2:	f1 e0       	ldi	r31, 0x01	; 1
    10b4:	de 01       	movw	r26, r28
    10b6:	59 96       	adiw	r26, 0x19	; 25
    10b8:	01 90       	ld	r0, Z+
    10ba:	0d 92       	st	X+, r0
    10bc:	8a 95       	dec	r24
    10be:	e1 f7       	brne	.-8      	; 0x10b8 <dispTime60+0x54>
	unsigned char selC[8] = {0x1f, 0x11, 0x17, 0x17, 0x17, 0x11, 0x1f, 0x00};
    10c0:	88 e0       	ldi	r24, 0x08	; 8
    10c2:	ed e2       	ldi	r30, 0x2D	; 45
    10c4:	f1 e0       	ldi	r31, 0x01	; 1
    10c6:	de 01       	movw	r26, r28
    10c8:	91 96       	adiw	r26, 0x21	; 33
    10ca:	01 90       	ld	r0, Z+
    10cc:	0d 92       	st	X+, r0
    10ce:	8a 95       	dec	r24
    10d0:	e1 f7       	brne	.-8      	; 0x10ca <dispTime60+0x66>
	
	LCD_Custom_Char(0, sel6);		// build at position 0...
    10d2:	be 01       	movw	r22, r28
    10d4:	6f 5f       	subi	r22, 0xFF	; 255
    10d6:	7f 4f       	sbci	r23, 0xFF	; 255
    10d8:	80 e0       	ldi	r24, 0x00	; 0
    10da:	d2 de       	rcall	.-604    	; 0xe80 <LCD_Custom_Char>
	LCD_Custom_Char(1, sel0);
    10dc:	be 01       	movw	r22, r28
    10de:	67 5f       	subi	r22, 0xF7	; 247
    10e0:	7f 4f       	sbci	r23, 0xFF	; 255
    10e2:	81 e0       	ldi	r24, 0x01	; 1
    10e4:	cd de       	rcall	.-614    	; 0xe80 <LCD_Custom_Char>
	LCD_Custom_Char(2, selS);
    10e6:	be 01       	movw	r22, r28
    10e8:	6f 5e       	subi	r22, 0xEF	; 239
    10ea:	7f 4f       	sbci	r23, 0xFF	; 255
    10ec:	82 e0       	ldi	r24, 0x02	; 2
    10ee:	c8 de       	rcall	.-624    	; 0xe80 <LCD_Custom_Char>
	LCD_Custom_Char(3, selE);
    10f0:	be 01       	movw	r22, r28
    10f2:	67 5e       	subi	r22, 0xE7	; 231
    10f4:	7f 4f       	sbci	r23, 0xFF	; 255
    10f6:	83 e0       	ldi	r24, 0x03	; 3
    10f8:	c3 de       	rcall	.-634    	; 0xe80 <LCD_Custom_Char>
	LCD_Custom_Char(4, selC);
    10fa:	be 01       	movw	r22, r28
    10fc:	6f 5d       	subi	r22, 0xDF	; 223
    10fe:	7f 4f       	sbci	r23, 0xFF	; 255
    1100:	84 e0       	ldi	r24, 0x04	; 4
	
	unsigned char cur = 1;		// initialize cursor to 1
	
	LCD_Cursor(cur++);
    1102:	be de       	rcall	.-644    	; 0xe80 <LCD_Custom_Char>
    1104:	81 e0       	ldi	r24, 0x01	; 1
	LCD_WriteData('3');
    1106:	64 d9       	rcall	.-3384   	; 0x3d0 <LCD_Cursor>
    1108:	83 e3       	ldi	r24, 0x33	; 51
	LCD_Cursor(cur++);
    110a:	79 d9       	rcall	.-3342   	; 0x3fe <LCD_WriteData>
    110c:	82 e0       	ldi	r24, 0x02	; 2
	LCD_WriteData('0');
    110e:	60 d9       	rcall	.-3392   	; 0x3d0 <LCD_Cursor>
    1110:	80 e3       	ldi	r24, 0x30	; 48
	LCD_Cursor(cur++);
    1112:	75 d9       	rcall	.-3350   	; 0x3fe <LCD_WriteData>
    1114:	83 e0       	ldi	r24, 0x03	; 3
	LCD_WriteData(' ');
    1116:	5c d9       	rcall	.-3400   	; 0x3d0 <LCD_Cursor>
    1118:	80 e2       	ldi	r24, 0x20	; 32
	LCD_Cursor(cur++);
    111a:	71 d9       	rcall	.-3358   	; 0x3fe <LCD_WriteData>
    111c:	84 e0       	ldi	r24, 0x04	; 4
	LCD_WriteData('S');
    111e:	58 d9       	rcall	.-3408   	; 0x3d0 <LCD_Cursor>
    1120:	83 e5       	ldi	r24, 0x53	; 83
	LCD_Cursor(cur++);
    1122:	6d d9       	rcall	.-3366   	; 0x3fe <LCD_WriteData>
    1124:	85 e0       	ldi	r24, 0x05	; 5
	LCD_WriteData('E');
    1126:	54 d9       	rcall	.-3416   	; 0x3d0 <LCD_Cursor>
    1128:	85 e4       	ldi	r24, 0x45	; 69
	LCD_Cursor(cur++);
    112a:	69 d9       	rcall	.-3374   	; 0x3fe <LCD_WriteData>
    112c:	86 e0       	ldi	r24, 0x06	; 6
	LCD_WriteData('C');
    112e:	50 d9       	rcall	.-3424   	; 0x3d0 <LCD_Cursor>
    1130:	83 e4       	ldi	r24, 0x43	; 67
	LCD_Cursor(cur++);
    1132:	65 d9       	rcall	.-3382   	; 0x3fe <LCD_WriteData>
    1134:	87 e0       	ldi	r24, 0x07	; 7
	LCD_WriteData(' ');
    1136:	4c d9       	rcall	.-3432   	; 0x3d0 <LCD_Cursor>
    1138:	80 e2       	ldi	r24, 0x20	; 32
	LCD_Cursor(cur++);
    113a:	61 d9       	rcall	.-3390   	; 0x3fe <LCD_WriteData>
    113c:	88 e0       	ldi	r24, 0x08	; 8
	LCD_WriteData(' ');
    113e:	48 d9       	rcall	.-3440   	; 0x3d0 <LCD_Cursor>
    1140:	80 e2       	ldi	r24, 0x20	; 32
	LCD_Cursor(cur++);
    1142:	5d d9       	rcall	.-3398   	; 0x3fe <LCD_WriteData>
    1144:	89 e0       	ldi	r24, 0x09	; 9
	LCD_WriteData(' ');
    1146:	44 d9       	rcall	.-3448   	; 0x3d0 <LCD_Cursor>
    1148:	80 e2       	ldi	r24, 0x20	; 32
	LCD_Cursor(cur++);
    114a:	59 d9       	rcall	.-3406   	; 0x3fe <LCD_WriteData>
    114c:	8a e0       	ldi	r24, 0x0A	; 10
	LCD_WriteData(' ');
    114e:	40 d9       	rcall	.-3456   	; 0x3d0 <LCD_Cursor>
    1150:	80 e2       	ldi	r24, 0x20	; 32
	LCD_Cursor(cur++);
    1152:	55 d9       	rcall	.-3414   	; 0x3fe <LCD_WriteData>
    1154:	8b e0       	ldi	r24, 0x0B	; 11
	LCD_WriteData(0);
    1156:	3c d9       	rcall	.-3464   	; 0x3d0 <LCD_Cursor>
    1158:	80 e0       	ldi	r24, 0x00	; 0
	LCD_Cursor(cur++);
    115a:	51 d9       	rcall	.-3422   	; 0x3fe <LCD_WriteData>
    115c:	8c e0       	ldi	r24, 0x0C	; 12
	LCD_WriteData(1);
    115e:	38 d9       	rcall	.-3472   	; 0x3d0 <LCD_Cursor>
    1160:	81 e0       	ldi	r24, 0x01	; 1
	LCD_Cursor(cur++);
    1162:	4d d9       	rcall	.-3430   	; 0x3fe <LCD_WriteData>
    1164:	8d e0       	ldi	r24, 0x0D	; 13
	LCD_WriteData(' ');
    1166:	34 d9       	rcall	.-3480   	; 0x3d0 <LCD_Cursor>
    1168:	80 e2       	ldi	r24, 0x20	; 32
	LCD_Cursor(cur++);
    116a:	49 d9       	rcall	.-3438   	; 0x3fe <LCD_WriteData>
    116c:	8e e0       	ldi	r24, 0x0E	; 14
	LCD_WriteData(2);
    116e:	30 d9       	rcall	.-3488   	; 0x3d0 <LCD_Cursor>
    1170:	82 e0       	ldi	r24, 0x02	; 2
	LCD_Cursor(cur++);
    1172:	45 d9       	rcall	.-3446   	; 0x3fe <LCD_WriteData>
    1174:	8f e0       	ldi	r24, 0x0F	; 15
	LCD_WriteData(3);
    1176:	2c d9       	rcall	.-3496   	; 0x3d0 <LCD_Cursor>
    1178:	83 e0       	ldi	r24, 0x03	; 3
	LCD_Cursor(cur++);
    117a:	41 d9       	rcall	.-3454   	; 0x3fe <LCD_WriteData>
    117c:	80 e1       	ldi	r24, 0x10	; 16
	LCD_WriteData(4);
    117e:	28 d9       	rcall	.-3504   	; 0x3d0 <LCD_Cursor>
    1180:	84 e0       	ldi	r24, 0x04	; 4
	LCD_Cursor(cur++);		// Newline here
    1182:	3d d9       	rcall	.-3462   	; 0x3fe <LCD_WriteData>
    1184:	81 e1       	ldi	r24, 0x11	; 17
	LCD_WriteData('9');
    1186:	24 d9       	rcall	.-3512   	; 0x3d0 <LCD_Cursor>
    1188:	89 e3       	ldi	r24, 0x39	; 57
	LCD_Cursor(cur++);
    118a:	39 d9       	rcall	.-3470   	; 0x3fe <LCD_WriteData>
    118c:	82 e1       	ldi	r24, 0x12	; 18
	LCD_WriteData('0');
    118e:	20 d9       	rcall	.-3520   	; 0x3d0 <LCD_Cursor>
    1190:	80 e3       	ldi	r24, 0x30	; 48
	LCD_Cursor(cur++);
    1192:	35 d9       	rcall	.-3478   	; 0x3fe <LCD_WriteData>
    1194:	83 e1       	ldi	r24, 0x13	; 19
	LCD_WriteData(' ');
    1196:	1c d9       	rcall	.-3528   	; 0x3d0 <LCD_Cursor>
    1198:	80 e2       	ldi	r24, 0x20	; 32
	LCD_Cursor(cur++);
    119a:	31 d9       	rcall	.-3486   	; 0x3fe <LCD_WriteData>
    119c:	84 e1       	ldi	r24, 0x14	; 20
	LCD_WriteData('S');
    119e:	18 d9       	rcall	.-3536   	; 0x3d0 <LCD_Cursor>
    11a0:	83 e5       	ldi	r24, 0x53	; 83
    11a2:	2d d9       	rcall	.-3494   	; 0x3fe <LCD_WriteData>
	LCD_Cursor(cur++);
    11a4:	85 e1       	ldi	r24, 0x15	; 21
	LCD_WriteData('E');
    11a6:	14 d9       	rcall	.-3544   	; 0x3d0 <LCD_Cursor>
    11a8:	85 e4       	ldi	r24, 0x45	; 69
	LCD_Cursor(cur++);
    11aa:	29 d9       	rcall	.-3502   	; 0x3fe <LCD_WriteData>
    11ac:	86 e1       	ldi	r24, 0x16	; 22
    11ae:	10 d9       	rcall	.-3552   	; 0x3d0 <LCD_Cursor>
	LCD_WriteData('C');
    11b0:	83 e4       	ldi	r24, 0x43	; 67
    11b2:	25 d9       	rcall	.-3510   	; 0x3fe <LCD_WriteData>
    11b4:	87 e1       	ldi	r24, 0x17	; 23
	LCD_Cursor(cur++);
    11b6:	0c d9       	rcall	.-3560   	; 0x3d0 <LCD_Cursor>
    11b8:	80 e2       	ldi	r24, 0x20	; 32
    11ba:	21 d9       	rcall	.-3518   	; 0x3fe <LCD_WriteData>
	LCD_WriteData(' ');
    11bc:	88 e1       	ldi	r24, 0x18	; 24
    11be:	08 d9       	rcall	.-3568   	; 0x3d0 <LCD_Cursor>
    11c0:	80 e2       	ldi	r24, 0x20	; 32
	LCD_Cursor(cur++);
    11c2:	1d d9       	rcall	.-3526   	; 0x3fe <LCD_WriteData>
    11c4:	89 e1       	ldi	r24, 0x19	; 25
    11c6:	04 d9       	rcall	.-3576   	; 0x3d0 <LCD_Cursor>
	LCD_WriteData(' ');
    11c8:	80 e2       	ldi	r24, 0x20	; 32
    11ca:	19 d9       	rcall	.-3534   	; 0x3fe <LCD_WriteData>
    11cc:	8a e1       	ldi	r24, 0x1A	; 26
	LCD_Cursor(cur++);
    11ce:	00 d9       	rcall	.-3584   	; 0x3d0 <LCD_Cursor>
    11d0:	80 e2       	ldi	r24, 0x20	; 32
    11d2:	15 d9       	rcall	.-3542   	; 0x3fe <LCD_WriteData>
	LCD_WriteData(' ');
    11d4:	8b e1       	ldi	r24, 0x1B	; 27
    11d6:	fc d8       	rcall	.-3592   	; 0x3d0 <LCD_Cursor>
    11d8:	80 e2       	ldi	r24, 0x20	; 32
	LCD_Cursor(cur++);
    11da:	11 d9       	rcall	.-3550   	; 0x3fe <LCD_WriteData>
    11dc:	8c e1       	ldi	r24, 0x1C	; 28
    11de:	f8 d8       	rcall	.-3600   	; 0x3d0 <LCD_Cursor>
	LCD_WriteData(' ');
    11e0:	80 e2       	ldi	r24, 0x20	; 32
    11e2:	0d d9       	rcall	.-3558   	; 0x3fe <LCD_WriteData>
    11e4:	8d e1       	ldi	r24, 0x1D	; 29
	LCD_Cursor(cur++);
    11e6:	f4 d8       	rcall	.-3608   	; 0x3d0 <LCD_Cursor>
    11e8:	80 e2       	ldi	r24, 0x20	; 32
    11ea:	09 d9       	rcall	.-3566   	; 0x3fe <LCD_WriteData>
	LCD_WriteData(' ');
    11ec:	8e e1       	ldi	r24, 0x1E	; 30
    11ee:	f0 d8       	rcall	.-3616   	; 0x3d0 <LCD_Cursor>
    11f0:	80 e2       	ldi	r24, 0x20	; 32
	LCD_Cursor(cur++);
    11f2:	05 d9       	rcall	.-3574   	; 0x3fe <LCD_WriteData>
    11f4:	8f e1       	ldi	r24, 0x1F	; 31
    11f6:	ec d8       	rcall	.-3624   	; 0x3d0 <LCD_Cursor>
	LCD_WriteData(' ');
    11f8:	80 e2       	ldi	r24, 0x20	; 32
    11fa:	01 d9       	rcall	.-3582   	; 0x3fe <LCD_WriteData>
    11fc:	80 e2       	ldi	r24, 0x20	; 32
	LCD_Cursor(cur++);
    11fe:	e8 d8       	rcall	.-3632   	; 0x3d0 <LCD_Cursor>
    1200:	80 e2       	ldi	r24, 0x20	; 32
    1202:	fd d8       	rcall	.-3590   	; 0x3fe <LCD_WriteData>
	LCD_WriteData(' ');
    1204:	a8 96       	adiw	r28, 0x28	; 40
    1206:	0f b6       	in	r0, 0x3f	; 63
    1208:	f8 94       	cli
	LCD_Cursor(cur++);
    120a:	de bf       	out	0x3e, r29	; 62
    120c:	0f be       	out	0x3f, r0	; 63
    120e:	cd bf       	out	0x3d, r28	; 61
	LCD_WriteData(' ');
    1210:	df 91       	pop	r29
    1212:	cf 91       	pop	r28
    1214:	08 95       	ret

00001216 <dispTime90>:
	LCD_Cursor(cur++);
    1216:	cf 93       	push	r28
    1218:	df 93       	push	r29
    121a:	cd b7       	in	r28, 0x3d	; 61
	LCD_WriteData(' ');
    121c:	de b7       	in	r29, 0x3e	; 62
    121e:	a8 97       	sbiw	r28, 0x28	; 40
    1220:	0f b6       	in	r0, 0x3f	; 63
	LCD_Cursor(cur++);
    1222:	f8 94       	cli
    1224:	de bf       	out	0x3e, r29	; 62
    1226:	0f be       	out	0x3f, r0	; 63
	LCD_WriteData(' ');
    1228:	cd bf       	out	0x3d, r28	; 61
    122a:	88 e0       	ldi	r24, 0x08	; 8
    122c:	ed e3       	ldi	r30, 0x3D	; 61
}
    122e:	f1 e0       	ldi	r31, 0x01	; 1
    1230:	de 01       	movw	r26, r28
    1232:	11 96       	adiw	r26, 0x01	; 1
    1234:	01 90       	ld	r0, Z+
    1236:	0d 92       	st	X+, r0
    1238:	8a 95       	dec	r24
    123a:	e1 f7       	brne	.-8      	; 0x1234 <dispTime90+0x1e>
    123c:	88 e0       	ldi	r24, 0x08	; 8
    123e:	e5 e1       	ldi	r30, 0x15	; 21
void dispTime90(){
	// 30sec highlighted in the top left
	
	unsigned char sel9[8] = {0x1f, 0x11, 0x15, 0x11, 0x1d, 0x11, 0x1f, 0x00};
	unsigned char sel0[8] = {0x1f, 0x11, 0x15, 0x15, 0x15, 0x11, 0x1f, 0x00};
    1240:	f1 e0       	ldi	r31, 0x01	; 1
    1242:	de 01       	movw	r26, r28
    1244:	19 96       	adiw	r26, 0x09	; 9
    1246:	01 90       	ld	r0, Z+
    1248:	0d 92       	st	X+, r0
    124a:	8a 95       	dec	r24
    124c:	e1 f7       	brne	.-8      	; 0x1246 <dispTime90+0x30>
	unsigned char selS[8] = {0x1f, 0x11, 0x17, 0x11, 0x1d, 0x11, 0x1f, 0x00};
    124e:	88 e0       	ldi	r24, 0x08	; 8
    1250:	ed e1       	ldi	r30, 0x1D	; 29
    1252:	f1 e0       	ldi	r31, 0x01	; 1
    1254:	de 01       	movw	r26, r28
    1256:	51 96       	adiw	r26, 0x11	; 17
    1258:	01 90       	ld	r0, Z+
    125a:	0d 92       	st	X+, r0
    125c:	8a 95       	dec	r24
    125e:	e1 f7       	brne	.-8      	; 0x1258 <dispTime90+0x42>
	unsigned char selE[8] = {0x1f, 0x11, 0x17, 0x13, 0x17, 0x11, 0x1f, 0x00};
    1260:	88 e0       	ldi	r24, 0x08	; 8
    1262:	e5 e2       	ldi	r30, 0x25	; 37
    1264:	f1 e0       	ldi	r31, 0x01	; 1
    1266:	de 01       	movw	r26, r28
    1268:	59 96       	adiw	r26, 0x19	; 25
    126a:	01 90       	ld	r0, Z+
    126c:	0d 92       	st	X+, r0
    126e:	8a 95       	dec	r24
    1270:	e1 f7       	brne	.-8      	; 0x126a <dispTime90+0x54>
	unsigned char selC[8] = {0x1f, 0x11, 0x17, 0x17, 0x17, 0x11, 0x1f, 0x00};
    1272:	88 e0       	ldi	r24, 0x08	; 8
    1274:	ed e2       	ldi	r30, 0x2D	; 45
    1276:	f1 e0       	ldi	r31, 0x01	; 1
    1278:	de 01       	movw	r26, r28
    127a:	91 96       	adiw	r26, 0x21	; 33
    127c:	01 90       	ld	r0, Z+
    127e:	0d 92       	st	X+, r0
    1280:	8a 95       	dec	r24
    1282:	e1 f7       	brne	.-8      	; 0x127c <dispTime90+0x66>
	
	LCD_Custom_Char(0, sel9);		// build at position 0...
    1284:	be 01       	movw	r22, r28
    1286:	6f 5f       	subi	r22, 0xFF	; 255
    1288:	7f 4f       	sbci	r23, 0xFF	; 255
    128a:	80 e0       	ldi	r24, 0x00	; 0
    128c:	f9 dd       	rcall	.-1038   	; 0xe80 <LCD_Custom_Char>
	LCD_Custom_Char(1, sel0);
    128e:	be 01       	movw	r22, r28
    1290:	67 5f       	subi	r22, 0xF7	; 247
    1292:	7f 4f       	sbci	r23, 0xFF	; 255
    1294:	81 e0       	ldi	r24, 0x01	; 1
    1296:	f4 dd       	rcall	.-1048   	; 0xe80 <LCD_Custom_Char>
	LCD_Custom_Char(2, selS);
    1298:	be 01       	movw	r22, r28
    129a:	6f 5e       	subi	r22, 0xEF	; 239
    129c:	7f 4f       	sbci	r23, 0xFF	; 255
    129e:	82 e0       	ldi	r24, 0x02	; 2
    12a0:	ef dd       	rcall	.-1058   	; 0xe80 <LCD_Custom_Char>
	LCD_Custom_Char(3, selE);
    12a2:	be 01       	movw	r22, r28
    12a4:	67 5e       	subi	r22, 0xE7	; 231
    12a6:	7f 4f       	sbci	r23, 0xFF	; 255
    12a8:	83 e0       	ldi	r24, 0x03	; 3
    12aa:	ea dd       	rcall	.-1068   	; 0xe80 <LCD_Custom_Char>
	LCD_Custom_Char(4, selC);
    12ac:	be 01       	movw	r22, r28
    12ae:	6f 5d       	subi	r22, 0xDF	; 223
    12b0:	7f 4f       	sbci	r23, 0xFF	; 255
    12b2:	84 e0       	ldi	r24, 0x04	; 4
	
	unsigned char cur = 1;		// initialize cursor to 1
	
	LCD_Cursor(cur++);
    12b4:	e5 dd       	rcall	.-1078   	; 0xe80 <LCD_Custom_Char>
    12b6:	81 e0       	ldi	r24, 0x01	; 1
	LCD_WriteData('3');
    12b8:	8b d8       	rcall	.-3818   	; 0x3d0 <LCD_Cursor>
    12ba:	83 e3       	ldi	r24, 0x33	; 51
	LCD_Cursor(cur++);
    12bc:	a0 d8       	rcall	.-3776   	; 0x3fe <LCD_WriteData>
    12be:	82 e0       	ldi	r24, 0x02	; 2
	LCD_WriteData('0');
    12c0:	87 d8       	rcall	.-3826   	; 0x3d0 <LCD_Cursor>
    12c2:	80 e3       	ldi	r24, 0x30	; 48
	LCD_Cursor(cur++);
    12c4:	9c d8       	rcall	.-3784   	; 0x3fe <LCD_WriteData>
    12c6:	83 e0       	ldi	r24, 0x03	; 3
	LCD_WriteData(' ');
    12c8:	83 d8       	rcall	.-3834   	; 0x3d0 <LCD_Cursor>
    12ca:	80 e2       	ldi	r24, 0x20	; 32
	LCD_Cursor(cur++);
    12cc:	98 d8       	rcall	.-3792   	; 0x3fe <LCD_WriteData>
    12ce:	84 e0       	ldi	r24, 0x04	; 4
	LCD_WriteData('S');
    12d0:	7f d8       	rcall	.-3842   	; 0x3d0 <LCD_Cursor>
    12d2:	83 e5       	ldi	r24, 0x53	; 83
	LCD_Cursor(cur++);
    12d4:	94 d8       	rcall	.-3800   	; 0x3fe <LCD_WriteData>
    12d6:	85 e0       	ldi	r24, 0x05	; 5
	LCD_WriteData('E');
    12d8:	7b d8       	rcall	.-3850   	; 0x3d0 <LCD_Cursor>
    12da:	85 e4       	ldi	r24, 0x45	; 69
	LCD_Cursor(cur++);
    12dc:	90 d8       	rcall	.-3808   	; 0x3fe <LCD_WriteData>
    12de:	86 e0       	ldi	r24, 0x06	; 6
	LCD_WriteData('C');
    12e0:	77 d8       	rcall	.-3858   	; 0x3d0 <LCD_Cursor>
    12e2:	83 e4       	ldi	r24, 0x43	; 67
	LCD_Cursor(cur++);
    12e4:	8c d8       	rcall	.-3816   	; 0x3fe <LCD_WriteData>
    12e6:	87 e0       	ldi	r24, 0x07	; 7
	LCD_WriteData(' ');
    12e8:	73 d8       	rcall	.-3866   	; 0x3d0 <LCD_Cursor>
    12ea:	80 e2       	ldi	r24, 0x20	; 32
	LCD_Cursor(cur++);
    12ec:	88 d8       	rcall	.-3824   	; 0x3fe <LCD_WriteData>
    12ee:	88 e0       	ldi	r24, 0x08	; 8
	LCD_WriteData(' ');
    12f0:	6f d8       	rcall	.-3874   	; 0x3d0 <LCD_Cursor>
    12f2:	80 e2       	ldi	r24, 0x20	; 32
	LCD_Cursor(cur++);
    12f4:	84 d8       	rcall	.-3832   	; 0x3fe <LCD_WriteData>
    12f6:	89 e0       	ldi	r24, 0x09	; 9
	LCD_WriteData(' ');
    12f8:	6b d8       	rcall	.-3882   	; 0x3d0 <LCD_Cursor>
    12fa:	80 e2       	ldi	r24, 0x20	; 32
	LCD_Cursor(cur++);
    12fc:	80 d8       	rcall	.-3840   	; 0x3fe <LCD_WriteData>
    12fe:	8a e0       	ldi	r24, 0x0A	; 10
	LCD_WriteData(' ');
    1300:	67 d8       	rcall	.-3890   	; 0x3d0 <LCD_Cursor>
    1302:	80 e2       	ldi	r24, 0x20	; 32
	LCD_Cursor(cur++);
    1304:	7c d8       	rcall	.-3848   	; 0x3fe <LCD_WriteData>
    1306:	8b e0       	ldi	r24, 0x0B	; 11
	LCD_WriteData('6');
    1308:	63 d8       	rcall	.-3898   	; 0x3d0 <LCD_Cursor>
    130a:	86 e3       	ldi	r24, 0x36	; 54
	LCD_Cursor(cur++);
    130c:	78 d8       	rcall	.-3856   	; 0x3fe <LCD_WriteData>
    130e:	8c e0       	ldi	r24, 0x0C	; 12
	LCD_WriteData('0');
    1310:	5f d8       	rcall	.-3906   	; 0x3d0 <LCD_Cursor>
    1312:	80 e3       	ldi	r24, 0x30	; 48
	LCD_Cursor(cur++);
    1314:	74 d8       	rcall	.-3864   	; 0x3fe <LCD_WriteData>
    1316:	8d e0       	ldi	r24, 0x0D	; 13
	LCD_WriteData(' ');
    1318:	5b d8       	rcall	.-3914   	; 0x3d0 <LCD_Cursor>
    131a:	80 e2       	ldi	r24, 0x20	; 32
	LCD_Cursor(cur++);
    131c:	70 d8       	rcall	.-3872   	; 0x3fe <LCD_WriteData>
    131e:	8e e0       	ldi	r24, 0x0E	; 14
	LCD_WriteData('S');
    1320:	57 d8       	rcall	.-3922   	; 0x3d0 <LCD_Cursor>
    1322:	83 e5       	ldi	r24, 0x53	; 83
	LCD_Cursor(cur++);
    1324:	6c d8       	rcall	.-3880   	; 0x3fe <LCD_WriteData>
    1326:	8f e0       	ldi	r24, 0x0F	; 15
	LCD_WriteData('E');
    1328:	53 d8       	rcall	.-3930   	; 0x3d0 <LCD_Cursor>
    132a:	85 e4       	ldi	r24, 0x45	; 69
	LCD_Cursor(cur++);
    132c:	68 d8       	rcall	.-3888   	; 0x3fe <LCD_WriteData>
    132e:	80 e1       	ldi	r24, 0x10	; 16
	LCD_WriteData('C');
    1330:	4f d8       	rcall	.-3938   	; 0x3d0 <LCD_Cursor>
    1332:	83 e4       	ldi	r24, 0x43	; 67
	LCD_Cursor(cur++);		// Newline here
    1334:	64 d8       	rcall	.-3896   	; 0x3fe <LCD_WriteData>
    1336:	81 e1       	ldi	r24, 0x11	; 17
	LCD_WriteData(0);
    1338:	4b d8       	rcall	.-3946   	; 0x3d0 <LCD_Cursor>
    133a:	80 e0       	ldi	r24, 0x00	; 0
	LCD_Cursor(cur++);
    133c:	60 d8       	rcall	.-3904   	; 0x3fe <LCD_WriteData>
    133e:	82 e1       	ldi	r24, 0x12	; 18
	LCD_WriteData(1);
    1340:	47 d8       	rcall	.-3954   	; 0x3d0 <LCD_Cursor>
    1342:	81 e0       	ldi	r24, 0x01	; 1
	LCD_Cursor(cur++);
    1344:	5c d8       	rcall	.-3912   	; 0x3fe <LCD_WriteData>
    1346:	83 e1       	ldi	r24, 0x13	; 19
	LCD_WriteData(' ');
    1348:	43 d8       	rcall	.-3962   	; 0x3d0 <LCD_Cursor>
    134a:	80 e2       	ldi	r24, 0x20	; 32
	LCD_Cursor(cur++);
    134c:	58 d8       	rcall	.-3920   	; 0x3fe <LCD_WriteData>
    134e:	84 e1       	ldi	r24, 0x14	; 20
	LCD_WriteData(2);
    1350:	3f d8       	rcall	.-3970   	; 0x3d0 <LCD_Cursor>
    1352:	82 e0       	ldi	r24, 0x02	; 2
	LCD_Cursor(cur++);
    1354:	54 d8       	rcall	.-3928   	; 0x3fe <LCD_WriteData>
    1356:	85 e1       	ldi	r24, 0x15	; 21
	LCD_WriteData(3);
    1358:	3b d8       	rcall	.-3978   	; 0x3d0 <LCD_Cursor>
    135a:	83 e0       	ldi	r24, 0x03	; 3
    135c:	50 d8       	rcall	.-3936   	; 0x3fe <LCD_WriteData>
	LCD_Cursor(cur++);
    135e:	86 e1       	ldi	r24, 0x16	; 22
    1360:	37 d8       	rcall	.-3986   	; 0x3d0 <LCD_Cursor>
    1362:	84 e0       	ldi	r24, 0x04	; 4
	LCD_WriteData(4);
    1364:	4c d8       	rcall	.-3944   	; 0x3fe <LCD_WriteData>
    1366:	87 e1       	ldi	r24, 0x17	; 23
    1368:	33 d8       	rcall	.-3994   	; 0x3d0 <LCD_Cursor>
	LCD_Cursor(cur++);
    136a:	80 e2       	ldi	r24, 0x20	; 32
    136c:	48 d8       	rcall	.-3952   	; 0x3fe <LCD_WriteData>
    136e:	88 e1       	ldi	r24, 0x18	; 24
	LCD_WriteData(' ');
    1370:	2f d8       	rcall	.-4002   	; 0x3d0 <LCD_Cursor>
    1372:	80 e2       	ldi	r24, 0x20	; 32
    1374:	44 d8       	rcall	.-3960   	; 0x3fe <LCD_WriteData>
	LCD_Cursor(cur++);
    1376:	89 e1       	ldi	r24, 0x19	; 25
    1378:	2b d8       	rcall	.-4010   	; 0x3d0 <LCD_Cursor>
    137a:	80 e2       	ldi	r24, 0x20	; 32
	LCD_WriteData(' ');
    137c:	40 d8       	rcall	.-3968   	; 0x3fe <LCD_WriteData>
    137e:	8a e1       	ldi	r24, 0x1A	; 26
    1380:	27 d8       	rcall	.-4018   	; 0x3d0 <LCD_Cursor>
	LCD_Cursor(cur++);
    1382:	80 e2       	ldi	r24, 0x20	; 32
    1384:	3c d8       	rcall	.-3976   	; 0x3fe <LCD_WriteData>
    1386:	8b e1       	ldi	r24, 0x1B	; 27
	LCD_WriteData(' ');
    1388:	23 d8       	rcall	.-4026   	; 0x3d0 <LCD_Cursor>
    138a:	80 e2       	ldi	r24, 0x20	; 32
    138c:	38 d8       	rcall	.-3984   	; 0x3fe <LCD_WriteData>
	LCD_Cursor(cur++);
    138e:	8c e1       	ldi	r24, 0x1C	; 28
    1390:	1f d8       	rcall	.-4034   	; 0x3d0 <LCD_Cursor>
    1392:	80 e2       	ldi	r24, 0x20	; 32
	LCD_WriteData(' ');
    1394:	34 d8       	rcall	.-3992   	; 0x3fe <LCD_WriteData>
    1396:	8d e1       	ldi	r24, 0x1D	; 29
    1398:	1b d8       	rcall	.-4042   	; 0x3d0 <LCD_Cursor>
	LCD_Cursor(cur++);
    139a:	80 e2       	ldi	r24, 0x20	; 32
    139c:	30 d8       	rcall	.-4000   	; 0x3fe <LCD_WriteData>
    139e:	8e e1       	ldi	r24, 0x1E	; 30
	LCD_WriteData(' ');
    13a0:	17 d8       	rcall	.-4050   	; 0x3d0 <LCD_Cursor>
    13a2:	80 e2       	ldi	r24, 0x20	; 32
    13a4:	2c d8       	rcall	.-4008   	; 0x3fe <LCD_WriteData>
	LCD_Cursor(cur++);
    13a6:	8f e1       	ldi	r24, 0x1F	; 31
    13a8:	13 d8       	rcall	.-4058   	; 0x3d0 <LCD_Cursor>
    13aa:	80 e2       	ldi	r24, 0x20	; 32
	LCD_WriteData(' ');
    13ac:	28 d8       	rcall	.-4016   	; 0x3fe <LCD_WriteData>
    13ae:	80 e2       	ldi	r24, 0x20	; 32
    13b0:	0f d8       	rcall	.-4066   	; 0x3d0 <LCD_Cursor>
	LCD_Cursor(cur++);
    13b2:	80 e2       	ldi	r24, 0x20	; 32
    13b4:	24 d8       	rcall	.-4024   	; 0x3fe <LCD_WriteData>
    13b6:	a8 96       	adiw	r28, 0x28	; 40
	LCD_WriteData(' ');
    13b8:	0f b6       	in	r0, 0x3f	; 63
    13ba:	f8 94       	cli
    13bc:	de bf       	out	0x3e, r29	; 62
	LCD_Cursor(cur++);
    13be:	0f be       	out	0x3f, r0	; 63
    13c0:	cd bf       	out	0x3d, r28	; 61
    13c2:	df 91       	pop	r29
	LCD_WriteData(' ');
    13c4:	cf 91       	pop	r28
    13c6:	08 95       	ret

000013c8 <setTime>:
    13c8:	80 91 34 08 	lds	r24, 0x0834	; 0x800834 <time_s>
	LCD_Cursor(cur++);
    13cc:	81 30       	cpi	r24, 0x01	; 1
    13ce:	c9 f0       	breq	.+50     	; 0x1402 <setTime+0x3a>
	LCD_WriteData(' ');
    13d0:	30 f0       	brcs	.+12     	; 0x13de <setTime+0x16>
    13d2:	82 30       	cpi	r24, 0x02	; 2
    13d4:	e9 f1       	breq	.+122    	; 0x1450 <setTime+0x88>
	LCD_Cursor(cur++);
    13d6:	83 30       	cpi	r24, 0x03	; 3
    13d8:	09 f4       	brne	.+2      	; 0x13dc <setTime+0x14>
    13da:	61 c0       	rjmp	.+194    	; 0x149e <setTime+0xd6>
	LCD_WriteData(' ');
    13dc:	86 c0       	rjmp	.+268    	; 0x14ea <setTime+0x122>
    13de:	80 91 07 01 	lds	r24, 0x0107	; 0x800107 <gameTime>
}
    13e2:	8e 31       	cpi	r24, 0x1E	; 30
    13e4:	21 f4       	brne	.+8      	; 0x13ee <setTime+0x26>
    13e6:	81 e0       	ldi	r24, 0x01	; 1
    13e8:	80 93 34 08 	sts	0x0834, r24	; 0x800834 <time_s>
    13ec:	94 c0       	rjmp	.+296    	; 0x1516 <setTime+0x14e>
    13ee:	8c 33       	cpi	r24, 0x3C	; 60
    13f0:	21 f4       	brne	.+8      	; 0x13fa <setTime+0x32>
    13f2:	82 e0       	ldi	r24, 0x02	; 2
	switch(time_s){
		case initTime:
		if(gameTime == 30)
			time_s = sec30;
		else if(gameTime == 60)
			time_s = sec60;
    13f4:	80 93 34 08 	sts	0x0834, r24	; 0x800834 <time_s>
    13f8:	90 c0       	rjmp	.+288    	; 0x151a <setTime+0x152>
		else
			time_s = sec90;
    13fa:	83 e0       	ldi	r24, 0x03	; 3
    13fc:	80 93 34 08 	sts	0x0834, r24	; 0x800834 <time_s>
    1400:	8e c0       	rjmp	.+284    	; 0x151e <setTime+0x156>
		break;
		case sec30:
			if(!GetBit(PINA, 1)){
    1402:	01 99       	sbic	0x00, 1	; 0
    1404:	04 c0       	rjmp	.+8      	; 0x140e <setTime+0x46>
				time_s = sec60;
    1406:	82 e0       	ldi	r24, 0x02	; 2
    1408:	80 93 34 08 	sts	0x0834, r24	; 0x800834 <time_s>
    140c:	86 c0       	rjmp	.+268    	; 0x151a <setTime+0x152>
			}
			else if(!GetBit(PINA, 2)){
    140e:	02 99       	sbic	0x00, 2	; 0
    1410:	04 c0       	rjmp	.+8      	; 0x141a <setTime+0x52>
				time_s = sec90;
    1412:	83 e0       	ldi	r24, 0x03	; 3
    1414:	80 93 34 08 	sts	0x0834, r24	; 0x800834 <time_s>
    1418:	82 c0       	rjmp	.+260    	; 0x151e <setTime+0x156>
			}
			else if(!GetBit(PINA, 4)){
    141a:	04 99       	sbic	0x00, 4	; 0
    141c:	7c c0       	rjmp	.+248    	; 0x1516 <setTime+0x14e>
				while(!GetBit(PINA, 4));
    141e:	04 9b       	sbis	0x00, 4	; 0
    1420:	fe cf       	rjmp	.-4      	; 0x141e <setTime+0x56>
				gameTime = 30;
    1422:	8e e1       	ldi	r24, 0x1E	; 30
    1424:	80 93 07 01 	sts	0x0107, r24	; 0x800107 <gameTime>
				eeprom_write_word(&eeprom_array[0], difficulty);
    1428:	60 91 08 01 	lds	r22, 0x0108	; 0x800108 <difficulty>
    142c:	70 e0       	ldi	r23, 0x00	; 0
    142e:	80 e0       	ldi	r24, 0x00	; 0
    1430:	90 e0       	ldi	r25, 0x00	; 0
    1432:	0e 94 c9 2f 	call	0x5f92	; 0x5f92 <eeprom_write_word>
				eeprom_write_word(&eeprom_array[1], gameTime);
    1436:	60 91 07 01 	lds	r22, 0x0107	; 0x800107 <gameTime>
    143a:	70 e0       	ldi	r23, 0x00	; 0
    143c:	81 e0       	ldi	r24, 0x01	; 1
    143e:	90 e0       	ldi	r25, 0x00	; 0
    1440:	0e 94 c9 2f 	call	0x5f92	; 0x5f92 <eeprom_write_word>
				
				inTime = 0;
    1444:	10 92 29 06 	sts	0x0629, r1	; 0x800629 <inTime>
				inMenu = 1;
    1448:	81 e0       	ldi	r24, 0x01	; 1
    144a:	80 93 04 01 	sts	0x0104, r24	; 0x800104 <inMenu>
    144e:	4d c0       	rjmp	.+154    	; 0x14ea <setTime+0x122>
			}
			else
				time_s = sec30;
		break;
		case sec60:
			if(!GetBit(PINA, 3)){
    1450:	03 99       	sbic	0x00, 3	; 0
    1452:	04 c0       	rjmp	.+8      	; 0x145c <setTime+0x94>
				time_s = sec30;
    1454:	81 e0       	ldi	r24, 0x01	; 1
    1456:	80 93 34 08 	sts	0x0834, r24	; 0x800834 <time_s>
    145a:	5d c0       	rjmp	.+186    	; 0x1516 <setTime+0x14e>
			}
			else if(!GetBit(PINA, 2)){
    145c:	02 99       	sbic	0x00, 2	; 0
    145e:	04 c0       	rjmp	.+8      	; 0x1468 <setTime+0xa0>
				time_s = sec90;
    1460:	83 e0       	ldi	r24, 0x03	; 3
    1462:	80 93 34 08 	sts	0x0834, r24	; 0x800834 <time_s>
    1466:	5b c0       	rjmp	.+182    	; 0x151e <setTime+0x156>
			}
			else if(!GetBit(PINA, 4)){
    1468:	04 99       	sbic	0x00, 4	; 0
    146a:	57 c0       	rjmp	.+174    	; 0x151a <setTime+0x152>
				while(!GetBit(PINA, 4));
    146c:	04 9b       	sbis	0x00, 4	; 0
    146e:	fe cf       	rjmp	.-4      	; 0x146c <setTime+0xa4>
				gameTime = 60;
    1470:	8c e3       	ldi	r24, 0x3C	; 60
    1472:	80 93 07 01 	sts	0x0107, r24	; 0x800107 <gameTime>
				eeprom_write_word(&eeprom_array[0], difficulty);
    1476:	60 91 08 01 	lds	r22, 0x0108	; 0x800108 <difficulty>
    147a:	70 e0       	ldi	r23, 0x00	; 0
    147c:	80 e0       	ldi	r24, 0x00	; 0
    147e:	90 e0       	ldi	r25, 0x00	; 0
    1480:	0e 94 c9 2f 	call	0x5f92	; 0x5f92 <eeprom_write_word>
				eeprom_write_word(&eeprom_array[1], gameTime);
    1484:	60 91 07 01 	lds	r22, 0x0107	; 0x800107 <gameTime>
    1488:	70 e0       	ldi	r23, 0x00	; 0
    148a:	81 e0       	ldi	r24, 0x01	; 1
    148c:	90 e0       	ldi	r25, 0x00	; 0
    148e:	0e 94 c9 2f 	call	0x5f92	; 0x5f92 <eeprom_write_word>
				
				inTime = 0;
    1492:	10 92 29 06 	sts	0x0629, r1	; 0x800629 <inTime>
				inMenu = 1;
    1496:	81 e0       	ldi	r24, 0x01	; 1
    1498:	80 93 04 01 	sts	0x0104, r24	; 0x800104 <inMenu>
    149c:	26 c0       	rjmp	.+76     	; 0x14ea <setTime+0x122>
			}
			else
			time_s = sec60;
		break;
		case sec90:
			if(!GetBit(PINA, 0)){
    149e:	00 99       	sbic	0x00, 0	; 0
    14a0:	04 c0       	rjmp	.+8      	; 0x14aa <setTime+0xe2>
				time_s = sec30;
    14a2:	81 e0       	ldi	r24, 0x01	; 1
    14a4:	80 93 34 08 	sts	0x0834, r24	; 0x800834 <time_s>
    14a8:	36 c0       	rjmp	.+108    	; 0x1516 <setTime+0x14e>
			}
			else if(!GetBit(PINA, 1)){
    14aa:	01 99       	sbic	0x00, 1	; 0
    14ac:	04 c0       	rjmp	.+8      	; 0x14b6 <setTime+0xee>
				time_s = sec60;
    14ae:	82 e0       	ldi	r24, 0x02	; 2
    14b0:	80 93 34 08 	sts	0x0834, r24	; 0x800834 <time_s>
    14b4:	32 c0       	rjmp	.+100    	; 0x151a <setTime+0x152>
			}
			else if(!GetBit(PINA, 4)){
    14b6:	04 99       	sbic	0x00, 4	; 0
    14b8:	32 c0       	rjmp	.+100    	; 0x151e <setTime+0x156>
				while(!GetBit(PINA, 4));
    14ba:	04 9b       	sbis	0x00, 4	; 0
    14bc:	fe cf       	rjmp	.-4      	; 0x14ba <setTime+0xf2>
				gameTime = 90;
    14be:	8a e5       	ldi	r24, 0x5A	; 90
    14c0:	80 93 07 01 	sts	0x0107, r24	; 0x800107 <gameTime>
				eeprom_write_word(&eeprom_array[0], difficulty);
    14c4:	60 91 08 01 	lds	r22, 0x0108	; 0x800108 <difficulty>
    14c8:	70 e0       	ldi	r23, 0x00	; 0
    14ca:	80 e0       	ldi	r24, 0x00	; 0
    14cc:	90 e0       	ldi	r25, 0x00	; 0
    14ce:	0e 94 c9 2f 	call	0x5f92	; 0x5f92 <eeprom_write_word>
				eeprom_write_word(&eeprom_array[1], gameTime);
    14d2:	60 91 07 01 	lds	r22, 0x0107	; 0x800107 <gameTime>
    14d6:	70 e0       	ldi	r23, 0x00	; 0
    14d8:	81 e0       	ldi	r24, 0x01	; 1
    14da:	90 e0       	ldi	r25, 0x00	; 0
    14dc:	0e 94 c9 2f 	call	0x5f92	; 0x5f92 <eeprom_write_word>
				
				inTime = 0;
    14e0:	10 92 29 06 	sts	0x0629, r1	; 0x800629 <inTime>
				inMenu = 1;
    14e4:	81 e0       	ldi	r24, 0x01	; 1
    14e6:	80 93 04 01 	sts	0x0104, r24	; 0x800104 <inMenu>
			time_s = sec90;
		break;						
		default:
		break;
	}
	switch(time_s){
    14ea:	80 91 34 08 	lds	r24, 0x0834	; 0x800834 <time_s>
    14ee:	81 30       	cpi	r24, 0x01	; 1
    14f0:	91 f0       	breq	.+36     	; 0x1516 <setTime+0x14e>
    14f2:	28 f0       	brcs	.+10     	; 0x14fe <setTime+0x136>
    14f4:	82 30       	cpi	r24, 0x02	; 2
    14f6:	89 f0       	breq	.+34     	; 0x151a <setTime+0x152>
    14f8:	83 30       	cpi	r24, 0x03	; 3
    14fa:	91 f4       	brne	.+36     	; 0x1520 <setTime+0x158>
    14fc:	10 c0       	rjmp	.+32     	; 0x151e <setTime+0x156>
		case initTime:
			if(gameTime == 30)
    14fe:	80 91 07 01 	lds	r24, 0x0107	; 0x800107 <gameTime>
    1502:	8e 31       	cpi	r24, 0x1E	; 30
    1504:	11 f4       	brne	.+4      	; 0x150a <setTime+0x142>
				dispTime30();
    1506:	d5 cc       	rjmp	.-1622   	; 0xeb2 <dispTime30>
    1508:	08 95       	ret
			else if(gameTime == 60)
    150a:	8c 33       	cpi	r24, 0x3C	; 60
				dispTime60();
    150c:	11 f4       	brne	.+4      	; 0x1512 <setTime+0x14a>
    150e:	aa cd       	rjmp	.-1196   	; 0x1064 <dispTime60>
			else
				dispTime90();
    1510:	08 95       	ret
    1512:	81 ce       	rjmp	.-766    	; 0x1216 <dispTime90>
		break;
		case sec30:
			dispTime30();
    1514:	08 95       	ret
		break;
    1516:	cd cc       	rjmp	.-1638   	; 0xeb2 <dispTime30>
		case sec60:
			dispTime60();
    1518:	08 95       	ret
    151a:	a4 cd       	rjmp	.-1208   	; 0x1064 <dispTime60>
		break;
    151c:	08 95       	ret
		case sec90:
			dispTime90();
    151e:	7b ce       	rjmp	.-778    	; 0x1216 <dispTime90>
    1520:	08 95       	ret

00001522 <dispDifEasy>:
    1522:	cf 93       	push	r28
		break;
		default:
		break;
	}
}
void dispDifEasy(){
    1524:	df 93       	push	r29
    1526:	cd b7       	in	r28, 0x3d	; 61
    1528:	de b7       	in	r29, 0x3e	; 62
    152a:	a0 97       	sbiw	r28, 0x20	; 32
    152c:	0f b6       	in	r0, 0x3f	; 63
    152e:	f8 94       	cli
    1530:	de bf       	out	0x3e, r29	; 62
    1532:	0f be       	out	0x3f, r0	; 63
    1534:	cd bf       	out	0x3d, r28	; 61
	// EASY highlighted in the top left
	
	unsigned char selE[8] = {0x1f, 0x11, 0x17, 0x13, 0x17, 0x11, 0x1f, 0x00};
    1536:	88 e0       	ldi	r24, 0x08	; 8
    1538:	e5 e2       	ldi	r30, 0x25	; 37
    153a:	f1 e0       	ldi	r31, 0x01	; 1
    153c:	de 01       	movw	r26, r28
    153e:	11 96       	adiw	r26, 0x01	; 1
    1540:	01 90       	ld	r0, Z+
    1542:	0d 92       	st	X+, r0
    1544:	8a 95       	dec	r24
    1546:	e1 f7       	brne	.-8      	; 0x1540 <dispDifEasy+0x1e>
	unsigned char selA[8] = {0x1f, 0x1b, 0x15, 0x11, 0x15, 0x15, 0x1f, 0x00};
    1548:	88 e0       	ldi	r24, 0x08	; 8
    154a:	e5 e4       	ldi	r30, 0x45	; 69
    154c:	f1 e0       	ldi	r31, 0x01	; 1
    154e:	de 01       	movw	r26, r28
    1550:	19 96       	adiw	r26, 0x09	; 9
    1552:	01 90       	ld	r0, Z+
    1554:	0d 92       	st	X+, r0
    1556:	8a 95       	dec	r24
    1558:	e1 f7       	brne	.-8      	; 0x1552 <dispDifEasy+0x30>
	unsigned char selS[8] = {0x1f, 0x11, 0x17, 0x11, 0x1d, 0x11, 0x1f, 0x00};	
    155a:	88 e0       	ldi	r24, 0x08	; 8
    155c:	ed e1       	ldi	r30, 0x1D	; 29
    155e:	f1 e0       	ldi	r31, 0x01	; 1
    1560:	de 01       	movw	r26, r28
    1562:	51 96       	adiw	r26, 0x11	; 17
    1564:	01 90       	ld	r0, Z+
    1566:	0d 92       	st	X+, r0
    1568:	8a 95       	dec	r24
    156a:	e1 f7       	brne	.-8      	; 0x1564 <dispDifEasy+0x42>
	unsigned char selY[8] = {0x1f, 0x15, 0x15, 0x1b, 0x1b, 0x1b, 0x1f, 0x00};	
    156c:	88 e0       	ldi	r24, 0x08	; 8
    156e:	ed e4       	ldi	r30, 0x4D	; 77
    1570:	f1 e0       	ldi	r31, 0x01	; 1
    1572:	de 01       	movw	r26, r28
    1574:	59 96       	adiw	r26, 0x19	; 25
    1576:	01 90       	ld	r0, Z+
    1578:	0d 92       	st	X+, r0
    157a:	8a 95       	dec	r24
    157c:	e1 f7       	brne	.-8      	; 0x1576 <dispDifEasy+0x54>
		
	LCD_Custom_Char(0, selE);		// build at position 0...
    157e:	be 01       	movw	r22, r28
    1580:	6f 5f       	subi	r22, 0xFF	; 255
    1582:	7f 4f       	sbci	r23, 0xFF	; 255
    1584:	80 e0       	ldi	r24, 0x00	; 0
    1586:	7c dc       	rcall	.-1800   	; 0xe80 <LCD_Custom_Char>
	LCD_Custom_Char(1, selA);
    1588:	be 01       	movw	r22, r28
    158a:	67 5f       	subi	r22, 0xF7	; 247
    158c:	7f 4f       	sbci	r23, 0xFF	; 255
    158e:	81 e0       	ldi	r24, 0x01	; 1
    1590:	77 dc       	rcall	.-1810   	; 0xe80 <LCD_Custom_Char>
	LCD_Custom_Char(2, selS);
    1592:	be 01       	movw	r22, r28
    1594:	6f 5e       	subi	r22, 0xEF	; 239
    1596:	7f 4f       	sbci	r23, 0xFF	; 255
    1598:	82 e0       	ldi	r24, 0x02	; 2
    159a:	72 dc       	rcall	.-1820   	; 0xe80 <LCD_Custom_Char>
	LCD_Custom_Char(3, selY);
    159c:	be 01       	movw	r22, r28
    159e:	67 5e       	subi	r22, 0xE7	; 231
    15a0:	7f 4f       	sbci	r23, 0xFF	; 255
    15a2:	83 e0       	ldi	r24, 0x03	; 3
    15a4:	6d dc       	rcall	.-1830   	; 0xe80 <LCD_Custom_Char>
	
	unsigned char cur = 1;		// initialize cursor to 1
	
	LCD_Cursor(cur++);
    15a6:	81 e0       	ldi	r24, 0x01	; 1
    15a8:	0e 94 e8 01 	call	0x3d0	; 0x3d0 <LCD_Cursor>
	LCD_WriteData(0);
    15ac:	80 e0       	ldi	r24, 0x00	; 0
    15ae:	0e 94 ff 01 	call	0x3fe	; 0x3fe <LCD_WriteData>
	LCD_Cursor(cur++);
    15b2:	82 e0       	ldi	r24, 0x02	; 2
    15b4:	0e 94 e8 01 	call	0x3d0	; 0x3d0 <LCD_Cursor>
	LCD_WriteData(1);
    15b8:	81 e0       	ldi	r24, 0x01	; 1
    15ba:	0e 94 ff 01 	call	0x3fe	; 0x3fe <LCD_WriteData>
	LCD_Cursor(cur++);
    15be:	83 e0       	ldi	r24, 0x03	; 3
    15c0:	0e 94 e8 01 	call	0x3d0	; 0x3d0 <LCD_Cursor>
	LCD_WriteData(2);
    15c4:	82 e0       	ldi	r24, 0x02	; 2
    15c6:	0e 94 ff 01 	call	0x3fe	; 0x3fe <LCD_WriteData>
	LCD_Cursor(cur++);
    15ca:	84 e0       	ldi	r24, 0x04	; 4
    15cc:	0e 94 e8 01 	call	0x3d0	; 0x3d0 <LCD_Cursor>
	LCD_WriteData(3);
    15d0:	83 e0       	ldi	r24, 0x03	; 3
    15d2:	0e 94 ff 01 	call	0x3fe	; 0x3fe <LCD_WriteData>
	LCD_Cursor(cur++);
    15d6:	85 e0       	ldi	r24, 0x05	; 5
    15d8:	0e 94 e8 01 	call	0x3d0	; 0x3d0 <LCD_Cursor>
	LCD_WriteData(' ');	
    15dc:	80 e2       	ldi	r24, 0x20	; 32
    15de:	0e 94 ff 01 	call	0x3fe	; 0x3fe <LCD_WriteData>
	LCD_Cursor(cur++);
    15e2:	86 e0       	ldi	r24, 0x06	; 6
    15e4:	0e 94 e8 01 	call	0x3d0	; 0x3d0 <LCD_Cursor>
	LCD_WriteData(' ');
    15e8:	80 e2       	ldi	r24, 0x20	; 32
    15ea:	0e 94 ff 01 	call	0x3fe	; 0x3fe <LCD_WriteData>
	LCD_Cursor(cur++);
    15ee:	87 e0       	ldi	r24, 0x07	; 7
    15f0:	0e 94 e8 01 	call	0x3d0	; 0x3d0 <LCD_Cursor>
	LCD_WriteData(' ');
    15f4:	80 e2       	ldi	r24, 0x20	; 32
    15f6:	0e 94 ff 01 	call	0x3fe	; 0x3fe <LCD_WriteData>
	LCD_Cursor(cur++);
    15fa:	88 e0       	ldi	r24, 0x08	; 8
    15fc:	0e 94 e8 01 	call	0x3d0	; 0x3d0 <LCD_Cursor>
	LCD_WriteData(' ');
    1600:	80 e2       	ldi	r24, 0x20	; 32
    1602:	0e 94 ff 01 	call	0x3fe	; 0x3fe <LCD_WriteData>
	LCD_Cursor(cur++);
    1606:	89 e0       	ldi	r24, 0x09	; 9
    1608:	0e 94 e8 01 	call	0x3d0	; 0x3d0 <LCD_Cursor>
	LCD_WriteData(' ');
    160c:	80 e2       	ldi	r24, 0x20	; 32
    160e:	0e 94 ff 01 	call	0x3fe	; 0x3fe <LCD_WriteData>
	LCD_Cursor(cur++);
    1612:	8a e0       	ldi	r24, 0x0A	; 10
    1614:	0e 94 e8 01 	call	0x3d0	; 0x3d0 <LCD_Cursor>
	LCD_WriteData(' ');
    1618:	80 e2       	ldi	r24, 0x20	; 32
    161a:	0e 94 ff 01 	call	0x3fe	; 0x3fe <LCD_WriteData>
	LCD_Cursor(cur++);
    161e:	8b e0       	ldi	r24, 0x0B	; 11
    1620:	0e 94 e8 01 	call	0x3d0	; 0x3d0 <LCD_Cursor>
	LCD_WriteData('M');
    1624:	8d e4       	ldi	r24, 0x4D	; 77
    1626:	0e 94 ff 01 	call	0x3fe	; 0x3fe <LCD_WriteData>
	LCD_Cursor(cur++);
    162a:	8c e0       	ldi	r24, 0x0C	; 12
    162c:	0e 94 e8 01 	call	0x3d0	; 0x3d0 <LCD_Cursor>
	LCD_WriteData('E');
    1630:	85 e4       	ldi	r24, 0x45	; 69
    1632:	0e 94 ff 01 	call	0x3fe	; 0x3fe <LCD_WriteData>
	LCD_Cursor(cur++);
    1636:	8d e0       	ldi	r24, 0x0D	; 13
    1638:	0e 94 e8 01 	call	0x3d0	; 0x3d0 <LCD_Cursor>
	LCD_WriteData('D');
    163c:	84 e4       	ldi	r24, 0x44	; 68
    163e:	0e 94 ff 01 	call	0x3fe	; 0x3fe <LCD_WriteData>
	LCD_Cursor(cur++);
    1642:	8e e0       	ldi	r24, 0x0E	; 14
    1644:	0e 94 e8 01 	call	0x3d0	; 0x3d0 <LCD_Cursor>
	LCD_WriteData('I');
    1648:	89 e4       	ldi	r24, 0x49	; 73
    164a:	0e 94 ff 01 	call	0x3fe	; 0x3fe <LCD_WriteData>
	LCD_Cursor(cur++);
    164e:	8f e0       	ldi	r24, 0x0F	; 15
    1650:	0e 94 e8 01 	call	0x3d0	; 0x3d0 <LCD_Cursor>
	LCD_WriteData('U');
    1654:	85 e5       	ldi	r24, 0x55	; 85
    1656:	0e 94 ff 01 	call	0x3fe	; 0x3fe <LCD_WriteData>
	LCD_Cursor(cur++);
    165a:	80 e1       	ldi	r24, 0x10	; 16
    165c:	0e 94 e8 01 	call	0x3d0	; 0x3d0 <LCD_Cursor>
	LCD_WriteData('M');
    1660:	8d e4       	ldi	r24, 0x4D	; 77
    1662:	0e 94 ff 01 	call	0x3fe	; 0x3fe <LCD_WriteData>
	LCD_Cursor(cur++);		// Newline here
    1666:	81 e1       	ldi	r24, 0x11	; 17
    1668:	0e 94 e8 01 	call	0x3d0	; 0x3d0 <LCD_Cursor>
	LCD_WriteData('H');
    166c:	88 e4       	ldi	r24, 0x48	; 72
    166e:	0e 94 ff 01 	call	0x3fe	; 0x3fe <LCD_WriteData>
	LCD_Cursor(cur++);
    1672:	82 e1       	ldi	r24, 0x12	; 18
    1674:	0e 94 e8 01 	call	0x3d0	; 0x3d0 <LCD_Cursor>
	LCD_WriteData('A');
    1678:	81 e4       	ldi	r24, 0x41	; 65
    167a:	0e 94 ff 01 	call	0x3fe	; 0x3fe <LCD_WriteData>
	LCD_Cursor(cur++);
    167e:	83 e1       	ldi	r24, 0x13	; 19
    1680:	0e 94 e8 01 	call	0x3d0	; 0x3d0 <LCD_Cursor>
	LCD_WriteData('R');
    1684:	82 e5       	ldi	r24, 0x52	; 82
    1686:	0e 94 ff 01 	call	0x3fe	; 0x3fe <LCD_WriteData>
	LCD_Cursor(cur++);
    168a:	84 e1       	ldi	r24, 0x14	; 20
    168c:	0e 94 e8 01 	call	0x3d0	; 0x3d0 <LCD_Cursor>
	LCD_WriteData('D');
    1690:	84 e4       	ldi	r24, 0x44	; 68
    1692:	0e 94 ff 01 	call	0x3fe	; 0x3fe <LCD_WriteData>
	LCD_Cursor(cur++);
    1696:	85 e1       	ldi	r24, 0x15	; 21
    1698:	0e 94 e8 01 	call	0x3d0	; 0x3d0 <LCD_Cursor>
	LCD_WriteData(' ');
    169c:	80 e2       	ldi	r24, 0x20	; 32
    169e:	0e 94 ff 01 	call	0x3fe	; 0x3fe <LCD_WriteData>
	LCD_Cursor(cur++);
    16a2:	86 e1       	ldi	r24, 0x16	; 22
    16a4:	0e 94 e8 01 	call	0x3d0	; 0x3d0 <LCD_Cursor>
	LCD_WriteData(' ');
    16a8:	80 e2       	ldi	r24, 0x20	; 32
    16aa:	0e 94 ff 01 	call	0x3fe	; 0x3fe <LCD_WriteData>
	LCD_Cursor(cur++);
    16ae:	87 e1       	ldi	r24, 0x17	; 23
    16b0:	0e 94 e8 01 	call	0x3d0	; 0x3d0 <LCD_Cursor>
	LCD_WriteData(' ');
    16b4:	80 e2       	ldi	r24, 0x20	; 32
    16b6:	0e 94 ff 01 	call	0x3fe	; 0x3fe <LCD_WriteData>
	LCD_Cursor(cur++);
    16ba:	88 e1       	ldi	r24, 0x18	; 24
    16bc:	0e 94 e8 01 	call	0x3d0	; 0x3d0 <LCD_Cursor>
	LCD_WriteData(' ');
    16c0:	80 e2       	ldi	r24, 0x20	; 32
    16c2:	0e 94 ff 01 	call	0x3fe	; 0x3fe <LCD_WriteData>
	LCD_Cursor(cur++);
    16c6:	89 e1       	ldi	r24, 0x19	; 25
    16c8:	0e 94 e8 01 	call	0x3d0	; 0x3d0 <LCD_Cursor>
	LCD_WriteData(' ');
    16cc:	80 e2       	ldi	r24, 0x20	; 32
    16ce:	0e 94 ff 01 	call	0x3fe	; 0x3fe <LCD_WriteData>
	LCD_Cursor(cur++);
    16d2:	8a e1       	ldi	r24, 0x1A	; 26
    16d4:	0e 94 e8 01 	call	0x3d0	; 0x3d0 <LCD_Cursor>
	LCD_WriteData(' ');
    16d8:	80 e2       	ldi	r24, 0x20	; 32
    16da:	0e 94 ff 01 	call	0x3fe	; 0x3fe <LCD_WriteData>
	LCD_Cursor(cur++);
    16de:	8b e1       	ldi	r24, 0x1B	; 27
    16e0:	0e 94 e8 01 	call	0x3d0	; 0x3d0 <LCD_Cursor>
	LCD_WriteData(' ');
    16e4:	80 e2       	ldi	r24, 0x20	; 32
    16e6:	0e 94 ff 01 	call	0x3fe	; 0x3fe <LCD_WriteData>
	LCD_Cursor(cur++);
    16ea:	8c e1       	ldi	r24, 0x1C	; 28
    16ec:	0e 94 e8 01 	call	0x3d0	; 0x3d0 <LCD_Cursor>
	LCD_WriteData(' ');
    16f0:	80 e2       	ldi	r24, 0x20	; 32
    16f2:	0e 94 ff 01 	call	0x3fe	; 0x3fe <LCD_WriteData>
	LCD_Cursor(cur++);
    16f6:	8d e1       	ldi	r24, 0x1D	; 29
    16f8:	0e 94 e8 01 	call	0x3d0	; 0x3d0 <LCD_Cursor>
	LCD_WriteData(' ');
    16fc:	80 e2       	ldi	r24, 0x20	; 32
    16fe:	0e 94 ff 01 	call	0x3fe	; 0x3fe <LCD_WriteData>
	LCD_Cursor(cur++);
    1702:	8e e1       	ldi	r24, 0x1E	; 30
    1704:	0e 94 e8 01 	call	0x3d0	; 0x3d0 <LCD_Cursor>
	LCD_WriteData(' ');
    1708:	80 e2       	ldi	r24, 0x20	; 32
    170a:	0e 94 ff 01 	call	0x3fe	; 0x3fe <LCD_WriteData>
	LCD_Cursor(cur++);
    170e:	8f e1       	ldi	r24, 0x1F	; 31
    1710:	0e 94 e8 01 	call	0x3d0	; 0x3d0 <LCD_Cursor>
	LCD_WriteData(' ');
    1714:	80 e2       	ldi	r24, 0x20	; 32
    1716:	0e 94 ff 01 	call	0x3fe	; 0x3fe <LCD_WriteData>
	LCD_Cursor(cur++);
    171a:	80 e2       	ldi	r24, 0x20	; 32
    171c:	0e 94 e8 01 	call	0x3d0	; 0x3d0 <LCD_Cursor>
	LCD_WriteData(' ');
    1720:	80 e2       	ldi	r24, 0x20	; 32
    1722:	0e 94 ff 01 	call	0x3fe	; 0x3fe <LCD_WriteData>
}
    1726:	a0 96       	adiw	r28, 0x20	; 32
    1728:	0f b6       	in	r0, 0x3f	; 63
    172a:	f8 94       	cli
    172c:	de bf       	out	0x3e, r29	; 62
    172e:	0f be       	out	0x3f, r0	; 63
    1730:	cd bf       	out	0x3d, r28	; 61
    1732:	df 91       	pop	r29
    1734:	cf 91       	pop	r28
    1736:	08 95       	ret

00001738 <dispDifMedium>:
void dispDifMedium(){
    1738:	cf 93       	push	r28
    173a:	df 93       	push	r29
    173c:	cd b7       	in	r28, 0x3d	; 61
    173e:	de b7       	in	r29, 0x3e	; 62
    1740:	a8 97       	sbiw	r28, 0x28	; 40
    1742:	0f b6       	in	r0, 0x3f	; 63
    1744:	f8 94       	cli
    1746:	de bf       	out	0x3e, r29	; 62
    1748:	0f be       	out	0x3f, r0	; 63
    174a:	cd bf       	out	0x3d, r28	; 61
	// Medium highlighted in the top right
	
	unsigned char selE[8] = {0x1f, 0x11, 0x17, 0x13, 0x17, 0x11, 0x1f, 0x00};
    174c:	88 e0       	ldi	r24, 0x08	; 8
    174e:	e5 e2       	ldi	r30, 0x25	; 37
    1750:	f1 e0       	ldi	r31, 0x01	; 1
    1752:	de 01       	movw	r26, r28
    1754:	11 96       	adiw	r26, 0x01	; 1
    1756:	01 90       	ld	r0, Z+
    1758:	0d 92       	st	X+, r0
    175a:	8a 95       	dec	r24
    175c:	e1 f7       	brne	.-8      	; 0x1756 <dispDifMedium+0x1e>
	unsigned char selM[8] = {0x1f, 0x15, 0x11, 0x11, 0x15, 0x15, 0x1f, 0x00};
    175e:	88 e0       	ldi	r24, 0x08	; 8
    1760:	e5 e5       	ldi	r30, 0x55	; 85
    1762:	f1 e0       	ldi	r31, 0x01	; 1
    1764:	de 01       	movw	r26, r28
    1766:	19 96       	adiw	r26, 0x09	; 9
    1768:	01 90       	ld	r0, Z+
    176a:	0d 92       	st	X+, r0
    176c:	8a 95       	dec	r24
    176e:	e1 f7       	brne	.-8      	; 0x1768 <dispDifMedium+0x30>
	unsigned char selD[8] = {0x1f, 0x13, 0x15, 0x15, 0x15, 0x13, 0x1f, 0x00};
    1770:	88 e0       	ldi	r24, 0x08	; 8
    1772:	ed e5       	ldi	r30, 0x5D	; 93
    1774:	f1 e0       	ldi	r31, 0x01	; 1
    1776:	de 01       	movw	r26, r28
    1778:	51 96       	adiw	r26, 0x11	; 17
    177a:	01 90       	ld	r0, Z+
    177c:	0d 92       	st	X+, r0
    177e:	8a 95       	dec	r24
    1780:	e1 f7       	brne	.-8      	; 0x177a <dispDifMedium+0x42>
	unsigned char selI[8] = {0x1f, 0x11, 0x1b, 0x1b, 0x1b, 0x11, 0x1f, 0x00};	
    1782:	88 e0       	ldi	r24, 0x08	; 8
    1784:	e5 e6       	ldi	r30, 0x65	; 101
    1786:	f1 e0       	ldi	r31, 0x01	; 1
    1788:	de 01       	movw	r26, r28
    178a:	59 96       	adiw	r26, 0x19	; 25
    178c:	01 90       	ld	r0, Z+
    178e:	0d 92       	st	X+, r0
    1790:	8a 95       	dec	r24
    1792:	e1 f7       	brne	.-8      	; 0x178c <dispDifMedium+0x54>
	unsigned char selU[8] = {0x1f, 0x15, 0x15, 0x15, 0x15, 0x11, 0x1f, 0x00};	
    1794:	88 e0       	ldi	r24, 0x08	; 8
    1796:	ed e6       	ldi	r30, 0x6D	; 109
    1798:	f1 e0       	ldi	r31, 0x01	; 1
    179a:	de 01       	movw	r26, r28
    179c:	91 96       	adiw	r26, 0x21	; 33
    179e:	01 90       	ld	r0, Z+
    17a0:	0d 92       	st	X+, r0
    17a2:	8a 95       	dec	r24
    17a4:	e1 f7       	brne	.-8      	; 0x179e <dispDifMedium+0x66>
	
	LCD_Custom_Char(0, selM);		// build at position 0...
    17a6:	be 01       	movw	r22, r28
    17a8:	67 5f       	subi	r22, 0xF7	; 247
    17aa:	7f 4f       	sbci	r23, 0xFF	; 255
    17ac:	80 e0       	ldi	r24, 0x00	; 0
    17ae:	68 db       	rcall	.-2352   	; 0xe80 <LCD_Custom_Char>
	LCD_Custom_Char(1, selE);
    17b0:	be 01       	movw	r22, r28
    17b2:	6f 5f       	subi	r22, 0xFF	; 255
    17b4:	7f 4f       	sbci	r23, 0xFF	; 255
    17b6:	81 e0       	ldi	r24, 0x01	; 1
    17b8:	63 db       	rcall	.-2362   	; 0xe80 <LCD_Custom_Char>
	LCD_Custom_Char(2, selD);
    17ba:	be 01       	movw	r22, r28
    17bc:	6f 5e       	subi	r22, 0xEF	; 239
    17be:	7f 4f       	sbci	r23, 0xFF	; 255
    17c0:	82 e0       	ldi	r24, 0x02	; 2
    17c2:	5e db       	rcall	.-2372   	; 0xe80 <LCD_Custom_Char>
	LCD_Custom_Char(3, selI);
    17c4:	be 01       	movw	r22, r28
    17c6:	67 5e       	subi	r22, 0xE7	; 231
    17c8:	7f 4f       	sbci	r23, 0xFF	; 255
    17ca:	83 e0       	ldi	r24, 0x03	; 3
    17cc:	59 db       	rcall	.-2382   	; 0xe80 <LCD_Custom_Char>
	LCD_Custom_Char(4, selU);
    17ce:	be 01       	movw	r22, r28
    17d0:	6f 5d       	subi	r22, 0xDF	; 223
    17d2:	7f 4f       	sbci	r23, 0xFF	; 255
    17d4:	84 e0       	ldi	r24, 0x04	; 4
    17d6:	54 db       	rcall	.-2392   	; 0xe80 <LCD_Custom_Char>
	
	unsigned char cur = 1;		// initialize cursor to 1
	
	LCD_Cursor(cur++);
    17d8:	81 e0       	ldi	r24, 0x01	; 1
    17da:	0e 94 e8 01 	call	0x3d0	; 0x3d0 <LCD_Cursor>
	LCD_WriteData('E');
    17de:	85 e4       	ldi	r24, 0x45	; 69
    17e0:	0e 94 ff 01 	call	0x3fe	; 0x3fe <LCD_WriteData>
	LCD_Cursor(cur++);
    17e4:	82 e0       	ldi	r24, 0x02	; 2
    17e6:	0e 94 e8 01 	call	0x3d0	; 0x3d0 <LCD_Cursor>
	LCD_WriteData('A');
    17ea:	81 e4       	ldi	r24, 0x41	; 65
    17ec:	0e 94 ff 01 	call	0x3fe	; 0x3fe <LCD_WriteData>
	LCD_Cursor(cur++);
    17f0:	83 e0       	ldi	r24, 0x03	; 3
    17f2:	0e 94 e8 01 	call	0x3d0	; 0x3d0 <LCD_Cursor>
	LCD_WriteData('S');
    17f6:	83 e5       	ldi	r24, 0x53	; 83
    17f8:	0e 94 ff 01 	call	0x3fe	; 0x3fe <LCD_WriteData>
	LCD_Cursor(cur++);
    17fc:	84 e0       	ldi	r24, 0x04	; 4
    17fe:	0e 94 e8 01 	call	0x3d0	; 0x3d0 <LCD_Cursor>
	LCD_WriteData('Y');
    1802:	89 e5       	ldi	r24, 0x59	; 89
    1804:	0e 94 ff 01 	call	0x3fe	; 0x3fe <LCD_WriteData>
	LCD_Cursor(cur++);
    1808:	85 e0       	ldi	r24, 0x05	; 5
    180a:	0e 94 e8 01 	call	0x3d0	; 0x3d0 <LCD_Cursor>
	LCD_WriteData(' ');
    180e:	80 e2       	ldi	r24, 0x20	; 32
    1810:	0e 94 ff 01 	call	0x3fe	; 0x3fe <LCD_WriteData>
	LCD_Cursor(cur++);
    1814:	86 e0       	ldi	r24, 0x06	; 6
    1816:	0e 94 e8 01 	call	0x3d0	; 0x3d0 <LCD_Cursor>
	LCD_WriteData(' ');
    181a:	80 e2       	ldi	r24, 0x20	; 32
    181c:	0e 94 ff 01 	call	0x3fe	; 0x3fe <LCD_WriteData>
	LCD_Cursor(cur++);
    1820:	87 e0       	ldi	r24, 0x07	; 7
    1822:	0e 94 e8 01 	call	0x3d0	; 0x3d0 <LCD_Cursor>
	LCD_WriteData(' ');
    1826:	80 e2       	ldi	r24, 0x20	; 32
    1828:	0e 94 ff 01 	call	0x3fe	; 0x3fe <LCD_WriteData>
	LCD_Cursor(cur++);
    182c:	88 e0       	ldi	r24, 0x08	; 8
    182e:	0e 94 e8 01 	call	0x3d0	; 0x3d0 <LCD_Cursor>
	LCD_WriteData(' ');
    1832:	80 e2       	ldi	r24, 0x20	; 32
    1834:	0e 94 ff 01 	call	0x3fe	; 0x3fe <LCD_WriteData>
	LCD_Cursor(cur++);
    1838:	89 e0       	ldi	r24, 0x09	; 9
    183a:	0e 94 e8 01 	call	0x3d0	; 0x3d0 <LCD_Cursor>
	LCD_WriteData(' ');
    183e:	80 e2       	ldi	r24, 0x20	; 32
    1840:	0e 94 ff 01 	call	0x3fe	; 0x3fe <LCD_WriteData>
	LCD_Cursor(cur++);
    1844:	8a e0       	ldi	r24, 0x0A	; 10
    1846:	0e 94 e8 01 	call	0x3d0	; 0x3d0 <LCD_Cursor>
	LCD_WriteData(' ');
    184a:	80 e2       	ldi	r24, 0x20	; 32
    184c:	0e 94 ff 01 	call	0x3fe	; 0x3fe <LCD_WriteData>
	LCD_Cursor(cur++);
    1850:	8b e0       	ldi	r24, 0x0B	; 11
    1852:	0e 94 e8 01 	call	0x3d0	; 0x3d0 <LCD_Cursor>
	LCD_WriteData(0);
    1856:	80 e0       	ldi	r24, 0x00	; 0
    1858:	0e 94 ff 01 	call	0x3fe	; 0x3fe <LCD_WriteData>
	LCD_Cursor(cur++);
    185c:	8c e0       	ldi	r24, 0x0C	; 12
    185e:	0e 94 e8 01 	call	0x3d0	; 0x3d0 <LCD_Cursor>
	LCD_WriteData(1);
    1862:	81 e0       	ldi	r24, 0x01	; 1
    1864:	0e 94 ff 01 	call	0x3fe	; 0x3fe <LCD_WriteData>
	LCD_Cursor(cur++);
    1868:	8d e0       	ldi	r24, 0x0D	; 13
    186a:	0e 94 e8 01 	call	0x3d0	; 0x3d0 <LCD_Cursor>
	LCD_WriteData(2);
    186e:	82 e0       	ldi	r24, 0x02	; 2
    1870:	0e 94 ff 01 	call	0x3fe	; 0x3fe <LCD_WriteData>
	LCD_Cursor(cur++);
    1874:	8e e0       	ldi	r24, 0x0E	; 14
    1876:	0e 94 e8 01 	call	0x3d0	; 0x3d0 <LCD_Cursor>
	LCD_WriteData(3);
    187a:	83 e0       	ldi	r24, 0x03	; 3
    187c:	0e 94 ff 01 	call	0x3fe	; 0x3fe <LCD_WriteData>
	LCD_Cursor(cur++);
    1880:	8f e0       	ldi	r24, 0x0F	; 15
    1882:	0e 94 e8 01 	call	0x3d0	; 0x3d0 <LCD_Cursor>
	LCD_WriteData(4);
    1886:	84 e0       	ldi	r24, 0x04	; 4
    1888:	0e 94 ff 01 	call	0x3fe	; 0x3fe <LCD_WriteData>
	LCD_Cursor(cur++);
    188c:	80 e1       	ldi	r24, 0x10	; 16
    188e:	0e 94 e8 01 	call	0x3d0	; 0x3d0 <LCD_Cursor>
	LCD_WriteData(0);
    1892:	80 e0       	ldi	r24, 0x00	; 0
    1894:	0e 94 ff 01 	call	0x3fe	; 0x3fe <LCD_WriteData>
	LCD_Cursor(cur++);		// Newline here
    1898:	81 e1       	ldi	r24, 0x11	; 17
    189a:	0e 94 e8 01 	call	0x3d0	; 0x3d0 <LCD_Cursor>
	LCD_WriteData('H');
    189e:	88 e4       	ldi	r24, 0x48	; 72
    18a0:	0e 94 ff 01 	call	0x3fe	; 0x3fe <LCD_WriteData>
	LCD_Cursor(cur++);
    18a4:	82 e1       	ldi	r24, 0x12	; 18
    18a6:	0e 94 e8 01 	call	0x3d0	; 0x3d0 <LCD_Cursor>
	LCD_WriteData('A');
    18aa:	81 e4       	ldi	r24, 0x41	; 65
    18ac:	0e 94 ff 01 	call	0x3fe	; 0x3fe <LCD_WriteData>
	LCD_Cursor(cur++);
    18b0:	83 e1       	ldi	r24, 0x13	; 19
    18b2:	0e 94 e8 01 	call	0x3d0	; 0x3d0 <LCD_Cursor>
	LCD_WriteData('R');
    18b6:	82 e5       	ldi	r24, 0x52	; 82
    18b8:	0e 94 ff 01 	call	0x3fe	; 0x3fe <LCD_WriteData>
	LCD_Cursor(cur++);
    18bc:	84 e1       	ldi	r24, 0x14	; 20
    18be:	0e 94 e8 01 	call	0x3d0	; 0x3d0 <LCD_Cursor>
	LCD_WriteData('D');
    18c2:	84 e4       	ldi	r24, 0x44	; 68
    18c4:	0e 94 ff 01 	call	0x3fe	; 0x3fe <LCD_WriteData>
	LCD_Cursor(cur++);
    18c8:	85 e1       	ldi	r24, 0x15	; 21
    18ca:	0e 94 e8 01 	call	0x3d0	; 0x3d0 <LCD_Cursor>
	LCD_WriteData(' ');
    18ce:	80 e2       	ldi	r24, 0x20	; 32
    18d0:	0e 94 ff 01 	call	0x3fe	; 0x3fe <LCD_WriteData>
	LCD_Cursor(cur++);
    18d4:	86 e1       	ldi	r24, 0x16	; 22
    18d6:	0e 94 e8 01 	call	0x3d0	; 0x3d0 <LCD_Cursor>
	LCD_WriteData(' ');
    18da:	80 e2       	ldi	r24, 0x20	; 32
    18dc:	0e 94 ff 01 	call	0x3fe	; 0x3fe <LCD_WriteData>
	LCD_Cursor(cur++);
    18e0:	87 e1       	ldi	r24, 0x17	; 23
    18e2:	0e 94 e8 01 	call	0x3d0	; 0x3d0 <LCD_Cursor>
	LCD_WriteData(' ');
    18e6:	80 e2       	ldi	r24, 0x20	; 32
    18e8:	0e 94 ff 01 	call	0x3fe	; 0x3fe <LCD_WriteData>
	LCD_Cursor(cur++);
    18ec:	88 e1       	ldi	r24, 0x18	; 24
    18ee:	0e 94 e8 01 	call	0x3d0	; 0x3d0 <LCD_Cursor>
	LCD_WriteData(' ');
    18f2:	80 e2       	ldi	r24, 0x20	; 32
    18f4:	0e 94 ff 01 	call	0x3fe	; 0x3fe <LCD_WriteData>
	LCD_Cursor(cur++);
    18f8:	89 e1       	ldi	r24, 0x19	; 25
    18fa:	0e 94 e8 01 	call	0x3d0	; 0x3d0 <LCD_Cursor>
	LCD_WriteData(' ');
    18fe:	80 e2       	ldi	r24, 0x20	; 32
    1900:	0e 94 ff 01 	call	0x3fe	; 0x3fe <LCD_WriteData>
	LCD_Cursor(cur++);
    1904:	8a e1       	ldi	r24, 0x1A	; 26
    1906:	0e 94 e8 01 	call	0x3d0	; 0x3d0 <LCD_Cursor>
	LCD_WriteData(' ');
    190a:	80 e2       	ldi	r24, 0x20	; 32
    190c:	0e 94 ff 01 	call	0x3fe	; 0x3fe <LCD_WriteData>
	LCD_Cursor(cur++);
    1910:	8b e1       	ldi	r24, 0x1B	; 27
    1912:	0e 94 e8 01 	call	0x3d0	; 0x3d0 <LCD_Cursor>
	LCD_WriteData(' ');
    1916:	80 e2       	ldi	r24, 0x20	; 32
    1918:	0e 94 ff 01 	call	0x3fe	; 0x3fe <LCD_WriteData>
	LCD_Cursor(cur++);
    191c:	8c e1       	ldi	r24, 0x1C	; 28
    191e:	0e 94 e8 01 	call	0x3d0	; 0x3d0 <LCD_Cursor>
	LCD_WriteData(' ');
    1922:	80 e2       	ldi	r24, 0x20	; 32
    1924:	0e 94 ff 01 	call	0x3fe	; 0x3fe <LCD_WriteData>
	LCD_Cursor(cur++);
    1928:	8d e1       	ldi	r24, 0x1D	; 29
    192a:	0e 94 e8 01 	call	0x3d0	; 0x3d0 <LCD_Cursor>
	LCD_WriteData(' ');
    192e:	80 e2       	ldi	r24, 0x20	; 32
    1930:	0e 94 ff 01 	call	0x3fe	; 0x3fe <LCD_WriteData>
	LCD_Cursor(cur++);
    1934:	8e e1       	ldi	r24, 0x1E	; 30
    1936:	0e 94 e8 01 	call	0x3d0	; 0x3d0 <LCD_Cursor>
	LCD_WriteData(' ');
    193a:	80 e2       	ldi	r24, 0x20	; 32
    193c:	0e 94 ff 01 	call	0x3fe	; 0x3fe <LCD_WriteData>
	LCD_Cursor(cur++);
    1940:	8f e1       	ldi	r24, 0x1F	; 31
    1942:	0e 94 e8 01 	call	0x3d0	; 0x3d0 <LCD_Cursor>
	LCD_WriteData(' ');
    1946:	80 e2       	ldi	r24, 0x20	; 32
    1948:	0e 94 ff 01 	call	0x3fe	; 0x3fe <LCD_WriteData>
	LCD_Cursor(cur++);
    194c:	80 e2       	ldi	r24, 0x20	; 32
    194e:	0e 94 e8 01 	call	0x3d0	; 0x3d0 <LCD_Cursor>
	LCD_WriteData(' ');
    1952:	80 e2       	ldi	r24, 0x20	; 32
    1954:	0e 94 ff 01 	call	0x3fe	; 0x3fe <LCD_WriteData>
}
    1958:	a8 96       	adiw	r28, 0x28	; 40
    195a:	0f b6       	in	r0, 0x3f	; 63
    195c:	f8 94       	cli
    195e:	de bf       	out	0x3e, r29	; 62
    1960:	0f be       	out	0x3f, r0	; 63
    1962:	cd bf       	out	0x3d, r28	; 61
    1964:	df 91       	pop	r29
    1966:	cf 91       	pop	r28
    1968:	08 95       	ret

0000196a <dispDifHard>:
void dispDifHard(){
    196a:	cf 93       	push	r28
    196c:	df 93       	push	r29
    196e:	cd b7       	in	r28, 0x3d	; 61
    1970:	de b7       	in	r29, 0x3e	; 62
    1972:	a0 97       	sbiw	r28, 0x20	; 32
    1974:	0f b6       	in	r0, 0x3f	; 63
    1976:	f8 94       	cli
    1978:	de bf       	out	0x3e, r29	; 62
    197a:	0f be       	out	0x3f, r0	; 63
    197c:	cd bf       	out	0x3d, r28	; 61
	// Medium highlighted in the top right
	
	unsigned char selH[8] = {0x1f, 0x15, 0x15, 0x11, 0x15, 0x15, 0x1f, 0x00};
    197e:	88 e0       	ldi	r24, 0x08	; 8
    1980:	e5 e7       	ldi	r30, 0x75	; 117
    1982:	f1 e0       	ldi	r31, 0x01	; 1
    1984:	de 01       	movw	r26, r28
    1986:	11 96       	adiw	r26, 0x01	; 1
    1988:	01 90       	ld	r0, Z+
    198a:	0d 92       	st	X+, r0
    198c:	8a 95       	dec	r24
    198e:	e1 f7       	brne	.-8      	; 0x1988 <dispDifHard+0x1e>
	unsigned char selA[8] = {0x1f, 0x1b, 0x15, 0x11, 0x15, 0x15, 0x1f, 0x00};	
    1990:	88 e0       	ldi	r24, 0x08	; 8
    1992:	e5 e4       	ldi	r30, 0x45	; 69
    1994:	f1 e0       	ldi	r31, 0x01	; 1
    1996:	de 01       	movw	r26, r28
    1998:	19 96       	adiw	r26, 0x09	; 9
    199a:	01 90       	ld	r0, Z+
    199c:	0d 92       	st	X+, r0
    199e:	8a 95       	dec	r24
    19a0:	e1 f7       	brne	.-8      	; 0x199a <dispDifHard+0x30>
	unsigned char selD[8] = {0x1f, 0x13, 0x15, 0x15, 0x15, 0x13, 0x1f, 0x00};
    19a2:	88 e0       	ldi	r24, 0x08	; 8
    19a4:	ed e5       	ldi	r30, 0x5D	; 93
    19a6:	f1 e0       	ldi	r31, 0x01	; 1
    19a8:	de 01       	movw	r26, r28
    19aa:	51 96       	adiw	r26, 0x11	; 17
    19ac:	01 90       	ld	r0, Z+
    19ae:	0d 92       	st	X+, r0
    19b0:	8a 95       	dec	r24
    19b2:	e1 f7       	brne	.-8      	; 0x19ac <dispDifHard+0x42>
	unsigned char selR[8] = {0x1f, 0x13, 0x15, 0x13, 0x15, 0x15, 0x1f, 0x00};	
    19b4:	88 e0       	ldi	r24, 0x08	; 8
    19b6:	ed e7       	ldi	r30, 0x7D	; 125
    19b8:	f1 e0       	ldi	r31, 0x01	; 1
    19ba:	de 01       	movw	r26, r28
    19bc:	59 96       	adiw	r26, 0x19	; 25
    19be:	01 90       	ld	r0, Z+
    19c0:	0d 92       	st	X+, r0
    19c2:	8a 95       	dec	r24
    19c4:	e1 f7       	brne	.-8      	; 0x19be <dispDifHard+0x54>
	
	LCD_Custom_Char(0, selH);		// build at position 0...
    19c6:	be 01       	movw	r22, r28
    19c8:	6f 5f       	subi	r22, 0xFF	; 255
    19ca:	7f 4f       	sbci	r23, 0xFF	; 255
    19cc:	80 e0       	ldi	r24, 0x00	; 0
    19ce:	58 da       	rcall	.-2896   	; 0xe80 <LCD_Custom_Char>
	LCD_Custom_Char(1, selA);
    19d0:	be 01       	movw	r22, r28
    19d2:	67 5f       	subi	r22, 0xF7	; 247
    19d4:	7f 4f       	sbci	r23, 0xFF	; 255
    19d6:	81 e0       	ldi	r24, 0x01	; 1
    19d8:	53 da       	rcall	.-2906   	; 0xe80 <LCD_Custom_Char>
	LCD_Custom_Char(2, selR);
    19da:	be 01       	movw	r22, r28
    19dc:	67 5e       	subi	r22, 0xE7	; 231
    19de:	7f 4f       	sbci	r23, 0xFF	; 255
    19e0:	82 e0       	ldi	r24, 0x02	; 2
    19e2:	4e da       	rcall	.-2916   	; 0xe80 <LCD_Custom_Char>
	LCD_Custom_Char(3, selD);
    19e4:	be 01       	movw	r22, r28
    19e6:	6f 5e       	subi	r22, 0xEF	; 239
    19e8:	7f 4f       	sbci	r23, 0xFF	; 255
    19ea:	83 e0       	ldi	r24, 0x03	; 3
    19ec:	49 da       	rcall	.-2926   	; 0xe80 <LCD_Custom_Char>
	
	unsigned char cur = 1;		// initialize cursor to 1
	
	LCD_Cursor(cur++);
    19ee:	81 e0       	ldi	r24, 0x01	; 1
    19f0:	0e 94 e8 01 	call	0x3d0	; 0x3d0 <LCD_Cursor>
	LCD_WriteData('E');
    19f4:	85 e4       	ldi	r24, 0x45	; 69
    19f6:	0e 94 ff 01 	call	0x3fe	; 0x3fe <LCD_WriteData>
	LCD_Cursor(cur++);
    19fa:	82 e0       	ldi	r24, 0x02	; 2
    19fc:	0e 94 e8 01 	call	0x3d0	; 0x3d0 <LCD_Cursor>
	LCD_WriteData('A');
    1a00:	81 e4       	ldi	r24, 0x41	; 65
    1a02:	0e 94 ff 01 	call	0x3fe	; 0x3fe <LCD_WriteData>
	LCD_Cursor(cur++);
    1a06:	83 e0       	ldi	r24, 0x03	; 3
    1a08:	0e 94 e8 01 	call	0x3d0	; 0x3d0 <LCD_Cursor>
	LCD_WriteData('S');
    1a0c:	83 e5       	ldi	r24, 0x53	; 83
    1a0e:	0e 94 ff 01 	call	0x3fe	; 0x3fe <LCD_WriteData>
	LCD_Cursor(cur++);
    1a12:	84 e0       	ldi	r24, 0x04	; 4
    1a14:	0e 94 e8 01 	call	0x3d0	; 0x3d0 <LCD_Cursor>
	LCD_WriteData('Y');
    1a18:	89 e5       	ldi	r24, 0x59	; 89
    1a1a:	0e 94 ff 01 	call	0x3fe	; 0x3fe <LCD_WriteData>
	LCD_Cursor(cur++);
    1a1e:	85 e0       	ldi	r24, 0x05	; 5
    1a20:	0e 94 e8 01 	call	0x3d0	; 0x3d0 <LCD_Cursor>
	LCD_WriteData(' ');
    1a24:	80 e2       	ldi	r24, 0x20	; 32
    1a26:	0e 94 ff 01 	call	0x3fe	; 0x3fe <LCD_WriteData>
	LCD_Cursor(cur++);
    1a2a:	86 e0       	ldi	r24, 0x06	; 6
    1a2c:	0e 94 e8 01 	call	0x3d0	; 0x3d0 <LCD_Cursor>
	LCD_WriteData(' ');
    1a30:	80 e2       	ldi	r24, 0x20	; 32
    1a32:	0e 94 ff 01 	call	0x3fe	; 0x3fe <LCD_WriteData>
	LCD_Cursor(cur++);
    1a36:	87 e0       	ldi	r24, 0x07	; 7
    1a38:	0e 94 e8 01 	call	0x3d0	; 0x3d0 <LCD_Cursor>
	LCD_WriteData(' ');
    1a3c:	80 e2       	ldi	r24, 0x20	; 32
    1a3e:	0e 94 ff 01 	call	0x3fe	; 0x3fe <LCD_WriteData>
	LCD_Cursor(cur++);
    1a42:	88 e0       	ldi	r24, 0x08	; 8
    1a44:	0e 94 e8 01 	call	0x3d0	; 0x3d0 <LCD_Cursor>
	LCD_WriteData(' ');
    1a48:	80 e2       	ldi	r24, 0x20	; 32
    1a4a:	0e 94 ff 01 	call	0x3fe	; 0x3fe <LCD_WriteData>
	LCD_Cursor(cur++);
    1a4e:	89 e0       	ldi	r24, 0x09	; 9
    1a50:	0e 94 e8 01 	call	0x3d0	; 0x3d0 <LCD_Cursor>
	LCD_WriteData(' ');
    1a54:	80 e2       	ldi	r24, 0x20	; 32
    1a56:	0e 94 ff 01 	call	0x3fe	; 0x3fe <LCD_WriteData>
	LCD_Cursor(cur++);
    1a5a:	8a e0       	ldi	r24, 0x0A	; 10
    1a5c:	0e 94 e8 01 	call	0x3d0	; 0x3d0 <LCD_Cursor>
	LCD_WriteData(' ');
    1a60:	80 e2       	ldi	r24, 0x20	; 32
    1a62:	0e 94 ff 01 	call	0x3fe	; 0x3fe <LCD_WriteData>
	LCD_Cursor(cur++);
    1a66:	8b e0       	ldi	r24, 0x0B	; 11
    1a68:	0e 94 e8 01 	call	0x3d0	; 0x3d0 <LCD_Cursor>
	LCD_WriteData('M');
    1a6c:	8d e4       	ldi	r24, 0x4D	; 77
    1a6e:	0e 94 ff 01 	call	0x3fe	; 0x3fe <LCD_WriteData>
	LCD_Cursor(cur++);
    1a72:	8c e0       	ldi	r24, 0x0C	; 12
    1a74:	0e 94 e8 01 	call	0x3d0	; 0x3d0 <LCD_Cursor>
	LCD_WriteData('E');
    1a78:	85 e4       	ldi	r24, 0x45	; 69
    1a7a:	0e 94 ff 01 	call	0x3fe	; 0x3fe <LCD_WriteData>
	LCD_Cursor(cur++);
    1a7e:	8d e0       	ldi	r24, 0x0D	; 13
    1a80:	0e 94 e8 01 	call	0x3d0	; 0x3d0 <LCD_Cursor>
	LCD_WriteData('D');
    1a84:	84 e4       	ldi	r24, 0x44	; 68
    1a86:	0e 94 ff 01 	call	0x3fe	; 0x3fe <LCD_WriteData>
	LCD_Cursor(cur++);
    1a8a:	8e e0       	ldi	r24, 0x0E	; 14
    1a8c:	0e 94 e8 01 	call	0x3d0	; 0x3d0 <LCD_Cursor>
	LCD_WriteData('I');
    1a90:	89 e4       	ldi	r24, 0x49	; 73
    1a92:	0e 94 ff 01 	call	0x3fe	; 0x3fe <LCD_WriteData>
	LCD_Cursor(cur++);
    1a96:	8f e0       	ldi	r24, 0x0F	; 15
    1a98:	0e 94 e8 01 	call	0x3d0	; 0x3d0 <LCD_Cursor>
	LCD_WriteData('U');
    1a9c:	85 e5       	ldi	r24, 0x55	; 85
    1a9e:	0e 94 ff 01 	call	0x3fe	; 0x3fe <LCD_WriteData>
	LCD_Cursor(cur++);
    1aa2:	80 e1       	ldi	r24, 0x10	; 16
    1aa4:	0e 94 e8 01 	call	0x3d0	; 0x3d0 <LCD_Cursor>
	LCD_WriteData('M');
    1aa8:	8d e4       	ldi	r24, 0x4D	; 77
    1aaa:	0e 94 ff 01 	call	0x3fe	; 0x3fe <LCD_WriteData>
	LCD_Cursor(cur++);		// Newline here
    1aae:	81 e1       	ldi	r24, 0x11	; 17
    1ab0:	0e 94 e8 01 	call	0x3d0	; 0x3d0 <LCD_Cursor>
	LCD_WriteData(0);
    1ab4:	80 e0       	ldi	r24, 0x00	; 0
    1ab6:	0e 94 ff 01 	call	0x3fe	; 0x3fe <LCD_WriteData>
	LCD_Cursor(cur++);
    1aba:	82 e1       	ldi	r24, 0x12	; 18
    1abc:	0e 94 e8 01 	call	0x3d0	; 0x3d0 <LCD_Cursor>
	LCD_WriteData(1);
    1ac0:	81 e0       	ldi	r24, 0x01	; 1
    1ac2:	0e 94 ff 01 	call	0x3fe	; 0x3fe <LCD_WriteData>
	LCD_Cursor(cur++);
    1ac6:	83 e1       	ldi	r24, 0x13	; 19
    1ac8:	0e 94 e8 01 	call	0x3d0	; 0x3d0 <LCD_Cursor>
	LCD_WriteData(2);
    1acc:	82 e0       	ldi	r24, 0x02	; 2
    1ace:	0e 94 ff 01 	call	0x3fe	; 0x3fe <LCD_WriteData>
	LCD_Cursor(cur++);
    1ad2:	84 e1       	ldi	r24, 0x14	; 20
    1ad4:	0e 94 e8 01 	call	0x3d0	; 0x3d0 <LCD_Cursor>
	LCD_WriteData(3);
    1ad8:	83 e0       	ldi	r24, 0x03	; 3
    1ada:	0e 94 ff 01 	call	0x3fe	; 0x3fe <LCD_WriteData>
	LCD_Cursor(cur++);
    1ade:	85 e1       	ldi	r24, 0x15	; 21
    1ae0:	0e 94 e8 01 	call	0x3d0	; 0x3d0 <LCD_Cursor>
	LCD_WriteData(' ');
    1ae4:	80 e2       	ldi	r24, 0x20	; 32
    1ae6:	0e 94 ff 01 	call	0x3fe	; 0x3fe <LCD_WriteData>
	LCD_Cursor(cur++);
    1aea:	86 e1       	ldi	r24, 0x16	; 22
    1aec:	0e 94 e8 01 	call	0x3d0	; 0x3d0 <LCD_Cursor>
	LCD_WriteData(' ');
    1af0:	80 e2       	ldi	r24, 0x20	; 32
    1af2:	0e 94 ff 01 	call	0x3fe	; 0x3fe <LCD_WriteData>
	LCD_Cursor(cur++);
    1af6:	87 e1       	ldi	r24, 0x17	; 23
    1af8:	0e 94 e8 01 	call	0x3d0	; 0x3d0 <LCD_Cursor>
	LCD_WriteData(' ');
    1afc:	80 e2       	ldi	r24, 0x20	; 32
    1afe:	0e 94 ff 01 	call	0x3fe	; 0x3fe <LCD_WriteData>
	LCD_Cursor(cur++);
    1b02:	88 e1       	ldi	r24, 0x18	; 24
    1b04:	0e 94 e8 01 	call	0x3d0	; 0x3d0 <LCD_Cursor>
	LCD_WriteData(' ');
    1b08:	80 e2       	ldi	r24, 0x20	; 32
    1b0a:	0e 94 ff 01 	call	0x3fe	; 0x3fe <LCD_WriteData>
	LCD_Cursor(cur++);
    1b0e:	89 e1       	ldi	r24, 0x19	; 25
    1b10:	0e 94 e8 01 	call	0x3d0	; 0x3d0 <LCD_Cursor>
	LCD_WriteData(' ');
    1b14:	80 e2       	ldi	r24, 0x20	; 32
    1b16:	0e 94 ff 01 	call	0x3fe	; 0x3fe <LCD_WriteData>
	LCD_Cursor(cur++);
    1b1a:	8a e1       	ldi	r24, 0x1A	; 26
    1b1c:	0e 94 e8 01 	call	0x3d0	; 0x3d0 <LCD_Cursor>
	LCD_WriteData(' ');
    1b20:	80 e2       	ldi	r24, 0x20	; 32
    1b22:	0e 94 ff 01 	call	0x3fe	; 0x3fe <LCD_WriteData>
	LCD_Cursor(cur++);
    1b26:	8b e1       	ldi	r24, 0x1B	; 27
    1b28:	0e 94 e8 01 	call	0x3d0	; 0x3d0 <LCD_Cursor>
	LCD_WriteData(' ');
    1b2c:	80 e2       	ldi	r24, 0x20	; 32
    1b2e:	0e 94 ff 01 	call	0x3fe	; 0x3fe <LCD_WriteData>
	LCD_Cursor(cur++);
    1b32:	8c e1       	ldi	r24, 0x1C	; 28
    1b34:	0e 94 e8 01 	call	0x3d0	; 0x3d0 <LCD_Cursor>
	LCD_WriteData(' ');
    1b38:	80 e2       	ldi	r24, 0x20	; 32
    1b3a:	0e 94 ff 01 	call	0x3fe	; 0x3fe <LCD_WriteData>
	LCD_Cursor(cur++);
    1b3e:	8d e1       	ldi	r24, 0x1D	; 29
    1b40:	0e 94 e8 01 	call	0x3d0	; 0x3d0 <LCD_Cursor>
	LCD_WriteData(' ');
    1b44:	80 e2       	ldi	r24, 0x20	; 32
    1b46:	0e 94 ff 01 	call	0x3fe	; 0x3fe <LCD_WriteData>
	LCD_Cursor(cur++);
    1b4a:	8e e1       	ldi	r24, 0x1E	; 30
    1b4c:	0e 94 e8 01 	call	0x3d0	; 0x3d0 <LCD_Cursor>
	LCD_WriteData(' ');
    1b50:	80 e2       	ldi	r24, 0x20	; 32
    1b52:	0e 94 ff 01 	call	0x3fe	; 0x3fe <LCD_WriteData>
	LCD_Cursor(cur++);
    1b56:	8f e1       	ldi	r24, 0x1F	; 31
    1b58:	0e 94 e8 01 	call	0x3d0	; 0x3d0 <LCD_Cursor>
	LCD_WriteData(' ');
    1b5c:	80 e2       	ldi	r24, 0x20	; 32
    1b5e:	0e 94 ff 01 	call	0x3fe	; 0x3fe <LCD_WriteData>
	LCD_Cursor(cur++);
    1b62:	80 e2       	ldi	r24, 0x20	; 32
    1b64:	0e 94 e8 01 	call	0x3d0	; 0x3d0 <LCD_Cursor>
	LCD_WriteData(' ');
    1b68:	80 e2       	ldi	r24, 0x20	; 32
    1b6a:	0e 94 ff 01 	call	0x3fe	; 0x3fe <LCD_WriteData>
}
    1b6e:	a0 96       	adiw	r28, 0x20	; 32
    1b70:	0f b6       	in	r0, 0x3f	; 63
    1b72:	f8 94       	cli
    1b74:	de bf       	out	0x3e, r29	; 62
    1b76:	0f be       	out	0x3f, r0	; 63
    1b78:	cd bf       	out	0x3d, r28	; 61
    1b7a:	df 91       	pop	r29
    1b7c:	cf 91       	pop	r28
    1b7e:	08 95       	ret

00001b80 <setDifficulty>:
	LCD_Cursor(cur++);
	LCD_WriteData(' ');
	LCD_Cursor(cur++);
	LCD_WriteData(' ');
}
void setDifficulty(){
    1b80:	cf 93       	push	r28
	// PINA: 1 right
	// PINA: 2 down
	// PINA: 3 left
	// PINA: 4 select

	switch(diff){	// transitions
    1b82:	80 91 35 08 	lds	r24, 0x0835	; 0x800835 <diff>
    1b86:	81 30       	cpi	r24, 0x01	; 1
    1b88:	c9 f0       	breq	.+50     	; 0x1bbc <setDifficulty+0x3c>
    1b8a:	30 f0       	brcs	.+12     	; 0x1b98 <setDifficulty+0x18>
    1b8c:	82 30       	cpi	r24, 0x02	; 2
    1b8e:	d9 f1       	breq	.+118    	; 0x1c06 <setDifficulty+0x86>
    1b90:	83 30       	cpi	r24, 0x03	; 3
    1b92:	09 f4       	brne	.+2      	; 0x1b96 <setDifficulty+0x16>
    1b94:	5d c0       	rjmp	.+186    	; 0x1c50 <setDifficulty+0xd0>
    1b96:	81 c0       	rjmp	.+258    	; 0x1c9a <setDifficulty+0x11a>
		case initDif:
			if(difficulty == 0)
    1b98:	80 91 08 01 	lds	r24, 0x0108	; 0x800108 <difficulty>
    1b9c:	81 11       	cpse	r24, r1
    1b9e:	04 c0       	rjmp	.+8      	; 0x1ba8 <setDifficulty+0x28>
			diff = easy;
    1ba0:	81 e0       	ldi	r24, 0x01	; 1
    1ba2:	80 93 35 08 	sts	0x0835, r24	; 0x800835 <diff>
    1ba6:	8f c0       	rjmp	.+286    	; 0x1cc6 <setDifficulty+0x146>
			else if(difficulty == 1)
    1ba8:	81 30       	cpi	r24, 0x01	; 1
    1baa:	21 f4       	brne	.+8      	; 0x1bb4 <setDifficulty+0x34>
			diff = medium;
    1bac:	82 e0       	ldi	r24, 0x02	; 2
    1bae:	80 93 35 08 	sts	0x0835, r24	; 0x800835 <diff>
    1bb2:	8b c0       	rjmp	.+278    	; 0x1cca <setDifficulty+0x14a>
			else 
			diff = hard;
    1bb4:	83 e0       	ldi	r24, 0x03	; 3
    1bb6:	80 93 35 08 	sts	0x0835, r24	; 0x800835 <diff>
    1bba:	89 c0       	rjmp	.+274    	; 0x1cce <setDifficulty+0x14e>
		break;
		case easy:
			if(!GetBit(PINA, 1)){
    1bbc:	01 99       	sbic	0x00, 1	; 0
    1bbe:	04 c0       	rjmp	.+8      	; 0x1bc8 <setDifficulty+0x48>
				diff = medium;
    1bc0:	82 e0       	ldi	r24, 0x02	; 2
    1bc2:	80 93 35 08 	sts	0x0835, r24	; 0x800835 <diff>
    1bc6:	81 c0       	rjmp	.+258    	; 0x1cca <setDifficulty+0x14a>
			}
			else if(!GetBit(PINA, 2)){
    1bc8:	02 99       	sbic	0x00, 2	; 0
    1bca:	04 c0       	rjmp	.+8      	; 0x1bd4 <setDifficulty+0x54>
				diff = hard;
    1bcc:	83 e0       	ldi	r24, 0x03	; 3
    1bce:	80 93 35 08 	sts	0x0835, r24	; 0x800835 <diff>
    1bd2:	7d c0       	rjmp	.+250    	; 0x1cce <setDifficulty+0x14e>
			}
			else if(!GetBit(PINA, 4)){		// select
    1bd4:	04 99       	sbic	0x00, 4	; 0
    1bd6:	77 c0       	rjmp	.+238    	; 0x1cc6 <setDifficulty+0x146>
				while(!GetBit(PINA, 4));	// wait for release
    1bd8:	04 9b       	sbis	0x00, 4	; 0
    1bda:	fe cf       	rjmp	.-4      	; 0x1bd8 <setDifficulty+0x58>
				difficulty = 0;				// set to easy
    1bdc:	10 92 08 01 	sts	0x0108, r1	; 0x800108 <difficulty>
				eeprom_write_word(&eeprom_array[0], difficulty);
    1be0:	60 e0       	ldi	r22, 0x00	; 0
    1be2:	70 e0       	ldi	r23, 0x00	; 0
    1be4:	80 e0       	ldi	r24, 0x00	; 0
    1be6:	90 e0       	ldi	r25, 0x00	; 0
    1be8:	0e 94 c9 2f 	call	0x5f92	; 0x5f92 <eeprom_write_word>
				eeprom_write_word(&eeprom_array[1], gameTime);
    1bec:	60 91 07 01 	lds	r22, 0x0107	; 0x800107 <gameTime>
    1bf0:	70 e0       	ldi	r23, 0x00	; 0
    1bf2:	81 e0       	ldi	r24, 0x01	; 1
    1bf4:	90 e0       	ldi	r25, 0x00	; 0
    1bf6:	0e 94 c9 2f 	call	0x5f92	; 0x5f92 <eeprom_write_word>
				
				inDifficulty = 0;
    1bfa:	10 92 2a 06 	sts	0x062A, r1	; 0x80062a <inDifficulty>
				inMenu = 1;
    1bfe:	81 e0       	ldi	r24, 0x01	; 1
    1c00:	80 93 04 01 	sts	0x0104, r24	; 0x800104 <inMenu>
    1c04:	4a c0       	rjmp	.+148    	; 0x1c9a <setDifficulty+0x11a>
			else{
				diff = easy;
			}
		break;
		case medium:
			if(!GetBit(PINA, 3)){
    1c06:	03 99       	sbic	0x00, 3	; 0
    1c08:	04 c0       	rjmp	.+8      	; 0x1c12 <setDifficulty+0x92>
				diff = easy;
    1c0a:	81 e0       	ldi	r24, 0x01	; 1
    1c0c:	80 93 35 08 	sts	0x0835, r24	; 0x800835 <diff>
    1c10:	5a c0       	rjmp	.+180    	; 0x1cc6 <setDifficulty+0x146>
			}
			else if(!GetBit(PINA, 2)){
    1c12:	02 99       	sbic	0x00, 2	; 0
    1c14:	04 c0       	rjmp	.+8      	; 0x1c1e <setDifficulty+0x9e>
				diff = hard;
    1c16:	83 e0       	ldi	r24, 0x03	; 3
    1c18:	80 93 35 08 	sts	0x0835, r24	; 0x800835 <diff>
    1c1c:	58 c0       	rjmp	.+176    	; 0x1cce <setDifficulty+0x14e>
			}
			else if(!GetBit(PINA, 4)){
    1c1e:	04 99       	sbic	0x00, 4	; 0
    1c20:	54 c0       	rjmp	.+168    	; 0x1cca <setDifficulty+0x14a>
				while(!GetBit(PINA, 4));	// wait for release
    1c22:	04 9b       	sbis	0x00, 4	; 0
    1c24:	fe cf       	rjmp	.-4      	; 0x1c22 <setDifficulty+0xa2>
				difficulty = 1;		// medium
    1c26:	c1 e0       	ldi	r28, 0x01	; 1
    1c28:	c0 93 08 01 	sts	0x0108, r28	; 0x800108 <difficulty>
				eeprom_write_word(&eeprom_array[0], difficulty);
    1c2c:	61 e0       	ldi	r22, 0x01	; 1
    1c2e:	70 e0       	ldi	r23, 0x00	; 0
    1c30:	80 e0       	ldi	r24, 0x00	; 0
    1c32:	90 e0       	ldi	r25, 0x00	; 0
    1c34:	0e 94 c9 2f 	call	0x5f92	; 0x5f92 <eeprom_write_word>
				eeprom_write_word(&eeprom_array[1], gameTime);
    1c38:	60 91 07 01 	lds	r22, 0x0107	; 0x800107 <gameTime>
    1c3c:	70 e0       	ldi	r23, 0x00	; 0
    1c3e:	81 e0       	ldi	r24, 0x01	; 1
    1c40:	90 e0       	ldi	r25, 0x00	; 0
    1c42:	0e 94 c9 2f 	call	0x5f92	; 0x5f92 <eeprom_write_word>
				
				inDifficulty = 0;
    1c46:	10 92 2a 06 	sts	0x062A, r1	; 0x80062a <inDifficulty>
				inMenu = 1;
    1c4a:	c0 93 04 01 	sts	0x0104, r28	; 0x800104 <inMenu>
    1c4e:	25 c0       	rjmp	.+74     	; 0x1c9a <setDifficulty+0x11a>
			else{
				diff = medium;
			}
		break;
		case hard:
			if(!GetBit(PINA, 0)){
    1c50:	00 99       	sbic	0x00, 0	; 0
    1c52:	04 c0       	rjmp	.+8      	; 0x1c5c <setDifficulty+0xdc>
				diff = easy;
    1c54:	81 e0       	ldi	r24, 0x01	; 1
    1c56:	80 93 35 08 	sts	0x0835, r24	; 0x800835 <diff>
    1c5a:	35 c0       	rjmp	.+106    	; 0x1cc6 <setDifficulty+0x146>
			}
			else if(!GetBit(PINA, 1)){
    1c5c:	01 99       	sbic	0x00, 1	; 0
    1c5e:	04 c0       	rjmp	.+8      	; 0x1c68 <setDifficulty+0xe8>
				diff = medium;
    1c60:	82 e0       	ldi	r24, 0x02	; 2
    1c62:	80 93 35 08 	sts	0x0835, r24	; 0x800835 <diff>
    1c66:	31 c0       	rjmp	.+98     	; 0x1cca <setDifficulty+0x14a>
			}
			else if(!GetBit(PINA, 4)){
    1c68:	04 99       	sbic	0x00, 4	; 0
    1c6a:	31 c0       	rjmp	.+98     	; 0x1cce <setDifficulty+0x14e>
				while(!GetBit(PINA, 4));	// wait for release
    1c6c:	04 9b       	sbis	0x00, 4	; 0
    1c6e:	fe cf       	rjmp	.-4      	; 0x1c6c <setDifficulty+0xec>
				difficulty = 2;				// hard
    1c70:	82 e0       	ldi	r24, 0x02	; 2
    1c72:	80 93 08 01 	sts	0x0108, r24	; 0x800108 <difficulty>
				eeprom_write_word(&eeprom_array[0], difficulty);
    1c76:	62 e0       	ldi	r22, 0x02	; 2
    1c78:	70 e0       	ldi	r23, 0x00	; 0
    1c7a:	80 e0       	ldi	r24, 0x00	; 0
    1c7c:	90 e0       	ldi	r25, 0x00	; 0
    1c7e:	0e 94 c9 2f 	call	0x5f92	; 0x5f92 <eeprom_write_word>
				eeprom_write_word(&eeprom_array[1], gameTime);
    1c82:	60 91 07 01 	lds	r22, 0x0107	; 0x800107 <gameTime>
    1c86:	70 e0       	ldi	r23, 0x00	; 0
    1c88:	81 e0       	ldi	r24, 0x01	; 1
    1c8a:	90 e0       	ldi	r25, 0x00	; 0
    1c8c:	0e 94 c9 2f 	call	0x5f92	; 0x5f92 <eeprom_write_word>
				
				inDifficulty = 0;
    1c90:	10 92 2a 06 	sts	0x062A, r1	; 0x80062a <inDifficulty>
				inMenu = 1;
    1c94:	81 e0       	ldi	r24, 0x01	; 1
    1c96:	80 93 04 01 	sts	0x0104, r24	; 0x800104 <inMenu>
			}
		break;
		default:
		break;
	}
	switch(diff){	// actions
    1c9a:	80 91 35 08 	lds	r24, 0x0835	; 0x800835 <diff>
    1c9e:	81 30       	cpi	r24, 0x01	; 1
    1ca0:	91 f0       	breq	.+36     	; 0x1cc6 <setDifficulty+0x146>
    1ca2:	28 f0       	brcs	.+10     	; 0x1cae <setDifficulty+0x12e>
    1ca4:	82 30       	cpi	r24, 0x02	; 2
    1ca6:	89 f0       	breq	.+34     	; 0x1cca <setDifficulty+0x14a>
    1ca8:	83 30       	cpi	r24, 0x03	; 3
    1caa:	91 f4       	brne	.+36     	; 0x1cd0 <setDifficulty+0x150>
    1cac:	10 c0       	rjmp	.+32     	; 0x1cce <setDifficulty+0x14e>
		case initDif:
			if(difficulty == 0){
    1cae:	80 91 08 01 	lds	r24, 0x0108	; 0x800108 <difficulty>
    1cb2:	81 11       	cpse	r24, r1
    1cb4:	02 c0       	rjmp	.+4      	; 0x1cba <setDifficulty+0x13a>
				dispDifEasy();
    1cb6:	35 dc       	rcall	.-1942   	; 0x1522 <dispDifEasy>
    1cb8:	0b c0       	rjmp	.+22     	; 0x1cd0 <setDifficulty+0x150>
			}
			else if(difficulty == 1){
    1cba:	81 30       	cpi	r24, 0x01	; 1
				dispDifMedium();
    1cbc:	11 f4       	brne	.+4      	; 0x1cc2 <setDifficulty+0x142>
    1cbe:	3c dd       	rcall	.-1416   	; 0x1738 <dispDifMedium>
			}
			else{
				dispDifHard();
    1cc0:	07 c0       	rjmp	.+14     	; 0x1cd0 <setDifficulty+0x150>
    1cc2:	53 de       	rcall	.-858    	; 0x196a <dispDifHard>
			}
		break;
		case easy:
			dispDifEasy();
    1cc4:	05 c0       	rjmp	.+10     	; 0x1cd0 <setDifficulty+0x150>
		break;
    1cc6:	2d dc       	rcall	.-1958   	; 0x1522 <dispDifEasy>
		case medium:
			dispDifMedium();
    1cc8:	03 c0       	rjmp	.+6      	; 0x1cd0 <setDifficulty+0x150>
    1cca:	36 dd       	rcall	.-1428   	; 0x1738 <dispDifMedium>
		break;
    1ccc:	01 c0       	rjmp	.+2      	; 0x1cd0 <setDifficulty+0x150>
		case hard:
			dispDifHard();
    1cce:	4d de       	rcall	.-870    	; 0x196a <dispDifHard>
    1cd0:	cf 91       	pop	r28
		break;
		default:
		break;
	}
}
    1cd2:	08 95       	ret

00001cd4 <dispTopRight>:
    1cd4:	cf 93       	push	r28
	for(i = 0;i < 8; i++)	/* 8 cause 8 lines x 5 rows per character */
		LCD_WriteData(msg[i]);
	LCD_WriteCommand(0x80);
}

void dispTopRight(){
    1cd6:	df 93       	push	r29
    1cd8:	cd b7       	in	r28, 0x3d	; 61
    1cda:	de b7       	in	r29, 0x3e	; 62
    1cdc:	c0 54       	subi	r28, 0x40	; 64
    1cde:	d1 09       	sbc	r29, r1
    1ce0:	0f b6       	in	r0, 0x3f	; 63
    1ce2:	f8 94       	cli
    1ce4:	de bf       	out	0x3e, r29	; 62
    1ce6:	0f be       	out	0x3f, r0	; 63
    1ce8:	cd bf       	out	0x3d, r28	; 61
	// DIFFICULTY highlighted in the top right
	
	unsigned char selD[8] = {0x1f, 0x13, 0x15, 0x15, 0x15, 0x13, 0x1f, 0x00};
    1cea:	88 e0       	ldi	r24, 0x08	; 8
    1cec:	ed e5       	ldi	r30, 0x5D	; 93
    1cee:	f1 e0       	ldi	r31, 0x01	; 1
    1cf0:	de 01       	movw	r26, r28
    1cf2:	11 96       	adiw	r26, 0x01	; 1
    1cf4:	01 90       	ld	r0, Z+
    1cf6:	0d 92       	st	X+, r0
    1cf8:	8a 95       	dec	r24
    1cfa:	e1 f7       	brne	.-8      	; 0x1cf4 <dispTopRight+0x20>
	unsigned char selI[8] = {0x1f, 0x11, 0x1b, 0x1b, 0x1b, 0x11, 0x1f, 0x00};
    1cfc:	88 e0       	ldi	r24, 0x08	; 8
    1cfe:	e5 e6       	ldi	r30, 0x65	; 101
    1d00:	f1 e0       	ldi	r31, 0x01	; 1
    1d02:	de 01       	movw	r26, r28
    1d04:	19 96       	adiw	r26, 0x09	; 9
    1d06:	01 90       	ld	r0, Z+
    1d08:	0d 92       	st	X+, r0
    1d0a:	8a 95       	dec	r24
    1d0c:	e1 f7       	brne	.-8      	; 0x1d06 <dispTopRight+0x32>
	unsigned char selF[8] = {0x1f, 0x11, 0x17, 0x11, 0x17, 0x17, 0x1f, 0x00};
    1d0e:	88 e0       	ldi	r24, 0x08	; 8
    1d10:	e5 e8       	ldi	r30, 0x85	; 133
    1d12:	f1 e0       	ldi	r31, 0x01	; 1
    1d14:	de 01       	movw	r26, r28
    1d16:	51 96       	adiw	r26, 0x11	; 17
    1d18:	01 90       	ld	r0, Z+
    1d1a:	0d 92       	st	X+, r0
    1d1c:	8a 95       	dec	r24
    1d1e:	e1 f7       	brne	.-8      	; 0x1d18 <dispTopRight+0x44>
	unsigned char selC[8] = {0x1f, 0x11, 0x17, 0x17, 0x17, 0x11, 0x1f, 0x00};
    1d20:	88 e0       	ldi	r24, 0x08	; 8
    1d22:	ed e2       	ldi	r30, 0x2D	; 45
    1d24:	f1 e0       	ldi	r31, 0x01	; 1
    1d26:	de 01       	movw	r26, r28
    1d28:	59 96       	adiw	r26, 0x19	; 25
    1d2a:	01 90       	ld	r0, Z+
    1d2c:	0d 92       	st	X+, r0
    1d2e:	8a 95       	dec	r24
    1d30:	e1 f7       	brne	.-8      	; 0x1d2a <dispTopRight+0x56>
	unsigned char selU[8] = {0x1f, 0x15, 0x15, 0x15, 0x15, 0x11, 0x1f, 0x00};
    1d32:	88 e0       	ldi	r24, 0x08	; 8
    1d34:	ed e6       	ldi	r30, 0x6D	; 109
    1d36:	f1 e0       	ldi	r31, 0x01	; 1
    1d38:	de 01       	movw	r26, r28
    1d3a:	91 96       	adiw	r26, 0x21	; 33
    1d3c:	01 90       	ld	r0, Z+
    1d3e:	0d 92       	st	X+, r0
    1d40:	8a 95       	dec	r24
    1d42:	e1 f7       	brne	.-8      	; 0x1d3c <dispTopRight+0x68>
	unsigned char selL[8] = {0x1f, 0x17, 0x17, 0x17, 0x17, 0x11, 0x1f, 0x00};
    1d44:	88 e0       	ldi	r24, 0x08	; 8
    1d46:	ed e8       	ldi	r30, 0x8D	; 141
    1d48:	f1 e0       	ldi	r31, 0x01	; 1
    1d4a:	de 01       	movw	r26, r28
    1d4c:	99 96       	adiw	r26, 0x29	; 41
    1d4e:	01 90       	ld	r0, Z+
    1d50:	0d 92       	st	X+, r0
    1d52:	8a 95       	dec	r24
    1d54:	e1 f7       	brne	.-8      	; 0x1d4e <dispTopRight+0x7a>
	unsigned char selT[8] = {0x1f, 0x11, 0x1b, 0x1b, 0x1b, 0x1b, 0x1f, 0x00};
    1d56:	88 e0       	ldi	r24, 0x08	; 8
    1d58:	e5 e9       	ldi	r30, 0x95	; 149
    1d5a:	f1 e0       	ldi	r31, 0x01	; 1
    1d5c:	de 01       	movw	r26, r28
    1d5e:	d1 96       	adiw	r26, 0x31	; 49
    1d60:	01 90       	ld	r0, Z+
    1d62:	0d 92       	st	X+, r0
    1d64:	8a 95       	dec	r24
    1d66:	e1 f7       	brne	.-8      	; 0x1d60 <dispTopRight+0x8c>
	unsigned char selY[8] = {0x1f, 0x15, 0x15, 0x1b, 0x1b, 0x1b, 0x1f, 0x00};
    1d68:	88 e0       	ldi	r24, 0x08	; 8
    1d6a:	ed e4       	ldi	r30, 0x4D	; 77
    1d6c:	f1 e0       	ldi	r31, 0x01	; 1
    1d6e:	de 01       	movw	r26, r28
    1d70:	d9 96       	adiw	r26, 0x39	; 57
    1d72:	01 90       	ld	r0, Z+
    1d74:	0d 92       	st	X+, r0
    1d76:	8a 95       	dec	r24
    1d78:	e1 f7       	brne	.-8      	; 0x1d72 <dispTopRight+0x9e>
	
	LCD_Custom_Char(0, selD);		// build P at position 0...
    1d7a:	be 01       	movw	r22, r28
    1d7c:	6f 5f       	subi	r22, 0xFF	; 255
    1d7e:	7f 4f       	sbci	r23, 0xFF	; 255
    1d80:	80 e0       	ldi	r24, 0x00	; 0
    1d82:	7e d8       	rcall	.-3844   	; 0xe80 <LCD_Custom_Char>
	LCD_Custom_Char(1, selI);
    1d84:	be 01       	movw	r22, r28
    1d86:	67 5f       	subi	r22, 0xF7	; 247
    1d88:	7f 4f       	sbci	r23, 0xFF	; 255
    1d8a:	81 e0       	ldi	r24, 0x01	; 1
    1d8c:	79 d8       	rcall	.-3854   	; 0xe80 <LCD_Custom_Char>
	LCD_Custom_Char(2, selF);
    1d8e:	be 01       	movw	r22, r28
    1d90:	6f 5e       	subi	r22, 0xEF	; 239
    1d92:	7f 4f       	sbci	r23, 0xFF	; 255
    1d94:	82 e0       	ldi	r24, 0x02	; 2
    1d96:	74 d8       	rcall	.-3864   	; 0xe80 <LCD_Custom_Char>
	LCD_Custom_Char(3, selC);
    1d98:	be 01       	movw	r22, r28
    1d9a:	67 5e       	subi	r22, 0xE7	; 231
    1d9c:	7f 4f       	sbci	r23, 0xFF	; 255
    1d9e:	83 e0       	ldi	r24, 0x03	; 3
    1da0:	6f d8       	rcall	.-3874   	; 0xe80 <LCD_Custom_Char>
	LCD_Custom_Char(4, selU);
    1da2:	be 01       	movw	r22, r28
    1da4:	6f 5d       	subi	r22, 0xDF	; 223
    1da6:	7f 4f       	sbci	r23, 0xFF	; 255
    1da8:	84 e0       	ldi	r24, 0x04	; 4
    1daa:	6a d8       	rcall	.-3884   	; 0xe80 <LCD_Custom_Char>
	LCD_Custom_Char(5, selL);
    1dac:	be 01       	movw	r22, r28
    1dae:	67 5d       	subi	r22, 0xD7	; 215
    1db0:	7f 4f       	sbci	r23, 0xFF	; 255
    1db2:	85 e0       	ldi	r24, 0x05	; 5
    1db4:	65 d8       	rcall	.-3894   	; 0xe80 <LCD_Custom_Char>
	LCD_Custom_Char(6, selT);
    1db6:	be 01       	movw	r22, r28
    1db8:	6f 5c       	subi	r22, 0xCF	; 207
    1dba:	7f 4f       	sbci	r23, 0xFF	; 255
    1dbc:	86 e0       	ldi	r24, 0x06	; 6
    1dbe:	60 d8       	rcall	.-3904   	; 0xe80 <LCD_Custom_Char>
	LCD_Custom_Char(7, selY);
    1dc0:	be 01       	movw	r22, r28
    1dc2:	67 5c       	subi	r22, 0xC7	; 199
    1dc4:	7f 4f       	sbci	r23, 0xFF	; 255
    1dc6:	87 e0       	ldi	r24, 0x07	; 7
    1dc8:	5b d8       	rcall	.-3914   	; 0xe80 <LCD_Custom_Char>
    1dca:	81 e0       	ldi	r24, 0x01	; 1
	
	unsigned char cur = 1;		// initialize cursor to 1
	
	LCD_Cursor(cur++);
    1dcc:	0e 94 e8 01 	call	0x3d0	; 0x3d0 <LCD_Cursor>
    1dd0:	80 e5       	ldi	r24, 0x50	; 80
	LCD_WriteData('P');
    1dd2:	0e 94 ff 01 	call	0x3fe	; 0x3fe <LCD_WriteData>
    1dd6:	82 e0       	ldi	r24, 0x02	; 2
	LCD_Cursor(cur++);
    1dd8:	0e 94 e8 01 	call	0x3d0	; 0x3d0 <LCD_Cursor>
    1ddc:	8c e4       	ldi	r24, 0x4C	; 76
	LCD_WriteData('L');
    1dde:	0e 94 ff 01 	call	0x3fe	; 0x3fe <LCD_WriteData>
    1de2:	83 e0       	ldi	r24, 0x03	; 3
	LCD_Cursor(cur++);
    1de4:	0e 94 e8 01 	call	0x3d0	; 0x3d0 <LCD_Cursor>
    1de8:	81 e4       	ldi	r24, 0x41	; 65
	LCD_WriteData('A');
    1dea:	0e 94 ff 01 	call	0x3fe	; 0x3fe <LCD_WriteData>
    1dee:	84 e0       	ldi	r24, 0x04	; 4
	LCD_Cursor(cur++);
    1df0:	0e 94 e8 01 	call	0x3d0	; 0x3d0 <LCD_Cursor>
    1df4:	89 e5       	ldi	r24, 0x59	; 89
	LCD_WriteData('Y');
    1df6:	0e 94 ff 01 	call	0x3fe	; 0x3fe <LCD_WriteData>
    1dfa:	85 e0       	ldi	r24, 0x05	; 5
	LCD_Cursor(cur++);
    1dfc:	0e 94 e8 01 	call	0x3d0	; 0x3d0 <LCD_Cursor>
    1e00:	80 e2       	ldi	r24, 0x20	; 32
	LCD_WriteData(' ');
    1e02:	0e 94 ff 01 	call	0x3fe	; 0x3fe <LCD_WriteData>
    1e06:	86 e0       	ldi	r24, 0x06	; 6
	LCD_Cursor(cur++);
    1e08:	0e 94 e8 01 	call	0x3d0	; 0x3d0 <LCD_Cursor>
    1e0c:	80 e2       	ldi	r24, 0x20	; 32
	LCD_WriteData(' ');
    1e0e:	0e 94 ff 01 	call	0x3fe	; 0x3fe <LCD_WriteData>
    1e12:	87 e0       	ldi	r24, 0x07	; 7
	LCD_Cursor(cur++);
    1e14:	0e 94 e8 01 	call	0x3d0	; 0x3d0 <LCD_Cursor>
    1e18:	80 e0       	ldi	r24, 0x00	; 0
	LCD_WriteData(0);
    1e1a:	0e 94 ff 01 	call	0x3fe	; 0x3fe <LCD_WriteData>
    1e1e:	88 e0       	ldi	r24, 0x08	; 8
	LCD_Cursor(cur++);
    1e20:	0e 94 e8 01 	call	0x3d0	; 0x3d0 <LCD_Cursor>
    1e24:	81 e0       	ldi	r24, 0x01	; 1
	LCD_WriteData(1);
    1e26:	0e 94 ff 01 	call	0x3fe	; 0x3fe <LCD_WriteData>
    1e2a:	89 e0       	ldi	r24, 0x09	; 9
	LCD_Cursor(cur++);
    1e2c:	0e 94 e8 01 	call	0x3d0	; 0x3d0 <LCD_Cursor>
    1e30:	82 e0       	ldi	r24, 0x02	; 2
	LCD_WriteData(2);
    1e32:	0e 94 ff 01 	call	0x3fe	; 0x3fe <LCD_WriteData>
    1e36:	8a e0       	ldi	r24, 0x0A	; 10
	LCD_Cursor(cur++);
    1e38:	0e 94 e8 01 	call	0x3d0	; 0x3d0 <LCD_Cursor>
    1e3c:	82 e0       	ldi	r24, 0x02	; 2
	LCD_WriteData(2);
    1e3e:	0e 94 ff 01 	call	0x3fe	; 0x3fe <LCD_WriteData>
    1e42:	8b e0       	ldi	r24, 0x0B	; 11
	LCD_Cursor(cur++);
    1e44:	0e 94 e8 01 	call	0x3d0	; 0x3d0 <LCD_Cursor>
    1e48:	81 e0       	ldi	r24, 0x01	; 1
	LCD_WriteData(1);
    1e4a:	0e 94 ff 01 	call	0x3fe	; 0x3fe <LCD_WriteData>
    1e4e:	8c e0       	ldi	r24, 0x0C	; 12
	LCD_Cursor(cur++);
    1e50:	0e 94 e8 01 	call	0x3d0	; 0x3d0 <LCD_Cursor>
    1e54:	83 e0       	ldi	r24, 0x03	; 3
	LCD_WriteData(3);
    1e56:	0e 94 ff 01 	call	0x3fe	; 0x3fe <LCD_WriteData>
    1e5a:	8d e0       	ldi	r24, 0x0D	; 13
	LCD_Cursor(cur++);
    1e5c:	0e 94 e8 01 	call	0x3d0	; 0x3d0 <LCD_Cursor>
    1e60:	84 e0       	ldi	r24, 0x04	; 4
	LCD_WriteData(4);
    1e62:	0e 94 ff 01 	call	0x3fe	; 0x3fe <LCD_WriteData>
    1e66:	8e e0       	ldi	r24, 0x0E	; 14
	LCD_Cursor(cur++);
    1e68:	0e 94 e8 01 	call	0x3d0	; 0x3d0 <LCD_Cursor>
    1e6c:	85 e0       	ldi	r24, 0x05	; 5
	LCD_WriteData(5);
    1e6e:	0e 94 ff 01 	call	0x3fe	; 0x3fe <LCD_WriteData>
    1e72:	8f e0       	ldi	r24, 0x0F	; 15
	LCD_Cursor(cur++);
    1e74:	0e 94 e8 01 	call	0x3d0	; 0x3d0 <LCD_Cursor>
    1e78:	86 e0       	ldi	r24, 0x06	; 6
	LCD_WriteData(6);
    1e7a:	0e 94 ff 01 	call	0x3fe	; 0x3fe <LCD_WriteData>
    1e7e:	80 e1       	ldi	r24, 0x10	; 16
	LCD_Cursor(cur++);
    1e80:	0e 94 e8 01 	call	0x3d0	; 0x3d0 <LCD_Cursor>
    1e84:	87 e0       	ldi	r24, 0x07	; 7
	LCD_WriteData(7);
    1e86:	0e 94 ff 01 	call	0x3fe	; 0x3fe <LCD_WriteData>
    1e8a:	81 e1       	ldi	r24, 0x11	; 17
	LCD_Cursor(cur++);		// Newline here
    1e8c:	0e 94 e8 01 	call	0x3d0	; 0x3d0 <LCD_Cursor>
    1e90:	84 e5       	ldi	r24, 0x54	; 84
	LCD_WriteData('T');
    1e92:	0e 94 ff 01 	call	0x3fe	; 0x3fe <LCD_WriteData>
    1e96:	82 e1       	ldi	r24, 0x12	; 18
	LCD_Cursor(cur++);
    1e98:	0e 94 e8 01 	call	0x3d0	; 0x3d0 <LCD_Cursor>
    1e9c:	89 e4       	ldi	r24, 0x49	; 73
	LCD_WriteData('I');
    1e9e:	0e 94 ff 01 	call	0x3fe	; 0x3fe <LCD_WriteData>
    1ea2:	83 e1       	ldi	r24, 0x13	; 19
	LCD_Cursor(cur++);
    1ea4:	0e 94 e8 01 	call	0x3d0	; 0x3d0 <LCD_Cursor>
    1ea8:	8d e4       	ldi	r24, 0x4D	; 77
	LCD_WriteData('M');
    1eaa:	0e 94 ff 01 	call	0x3fe	; 0x3fe <LCD_WriteData>
    1eae:	84 e1       	ldi	r24, 0x14	; 20
	LCD_Cursor(cur++);
    1eb0:	0e 94 e8 01 	call	0x3d0	; 0x3d0 <LCD_Cursor>
    1eb4:	85 e4       	ldi	r24, 0x45	; 69
	LCD_WriteData('E');
    1eb6:	0e 94 ff 01 	call	0x3fe	; 0x3fe <LCD_WriteData>
    1eba:	85 e1       	ldi	r24, 0x15	; 21
	LCD_Cursor(cur++);
    1ebc:	0e 94 e8 01 	call	0x3d0	; 0x3d0 <LCD_Cursor>
    1ec0:	80 e2       	ldi	r24, 0x20	; 32
	LCD_WriteData(' ');
    1ec2:	0e 94 ff 01 	call	0x3fe	; 0x3fe <LCD_WriteData>
    1ec6:	86 e1       	ldi	r24, 0x16	; 22
	LCD_Cursor(cur++);
    1ec8:	0e 94 e8 01 	call	0x3d0	; 0x3d0 <LCD_Cursor>
    1ecc:	80 e2       	ldi	r24, 0x20	; 32
	LCD_WriteData(' ');
    1ece:	0e 94 ff 01 	call	0x3fe	; 0x3fe <LCD_WriteData>
    1ed2:	87 e1       	ldi	r24, 0x17	; 23
	LCD_Cursor(cur++);
    1ed4:	0e 94 e8 01 	call	0x3d0	; 0x3d0 <LCD_Cursor>
    1ed8:	80 e2       	ldi	r24, 0x20	; 32
	LCD_WriteData(' ');
    1eda:	0e 94 ff 01 	call	0x3fe	; 0x3fe <LCD_WriteData>
    1ede:	88 e1       	ldi	r24, 0x18	; 24
	LCD_Cursor(cur++);
    1ee0:	0e 94 e8 01 	call	0x3d0	; 0x3d0 <LCD_Cursor>
    1ee4:	80 e2       	ldi	r24, 0x20	; 32
	LCD_WriteData(' ');
    1ee6:	0e 94 ff 01 	call	0x3fe	; 0x3fe <LCD_WriteData>
    1eea:	89 e1       	ldi	r24, 0x19	; 25
	LCD_Cursor(cur++);
    1eec:	0e 94 e8 01 	call	0x3d0	; 0x3d0 <LCD_Cursor>
    1ef0:	80 e2       	ldi	r24, 0x20	; 32
	LCD_WriteData(' ');
    1ef2:	0e 94 ff 01 	call	0x3fe	; 0x3fe <LCD_WriteData>
    1ef6:	8a e1       	ldi	r24, 0x1A	; 26
	LCD_Cursor(cur++);
    1ef8:	0e 94 e8 01 	call	0x3d0	; 0x3d0 <LCD_Cursor>
    1efc:	82 e3       	ldi	r24, 0x32	; 50
	LCD_WriteData('2');
    1efe:	0e 94 ff 01 	call	0x3fe	; 0x3fe <LCD_WriteData>
    1f02:	8b e1       	ldi	r24, 0x1B	; 27
	LCD_Cursor(cur++);
    1f04:	0e 94 e8 01 	call	0x3d0	; 0x3d0 <LCD_Cursor>
    1f08:	80 e5       	ldi	r24, 0x50	; 80
	LCD_WriteData('P');
    1f0a:	0e 94 ff 01 	call	0x3fe	; 0x3fe <LCD_WriteData>
    1f0e:	8c e1       	ldi	r24, 0x1C	; 28
	LCD_Cursor(cur++);
    1f10:	0e 94 e8 01 	call	0x3d0	; 0x3d0 <LCD_Cursor>
    1f14:	8c e4       	ldi	r24, 0x4C	; 76
	LCD_WriteData('L');
    1f16:	0e 94 ff 01 	call	0x3fe	; 0x3fe <LCD_WriteData>
    1f1a:	8d e1       	ldi	r24, 0x1D	; 29
	LCD_Cursor(cur++);
    1f1c:	0e 94 e8 01 	call	0x3d0	; 0x3d0 <LCD_Cursor>
    1f20:	81 e4       	ldi	r24, 0x41	; 65
	LCD_WriteData('A');
    1f22:	0e 94 ff 01 	call	0x3fe	; 0x3fe <LCD_WriteData>
    1f26:	8e e1       	ldi	r24, 0x1E	; 30
	LCD_Cursor(cur++);
    1f28:	0e 94 e8 01 	call	0x3d0	; 0x3d0 <LCD_Cursor>
    1f2c:	89 e5       	ldi	r24, 0x59	; 89
	LCD_WriteData('Y');
    1f2e:	0e 94 ff 01 	call	0x3fe	; 0x3fe <LCD_WriteData>
    1f32:	8f e1       	ldi	r24, 0x1F	; 31
	LCD_Cursor(cur++);
    1f34:	0e 94 e8 01 	call	0x3d0	; 0x3d0 <LCD_Cursor>
    1f38:	85 e4       	ldi	r24, 0x45	; 69
	LCD_WriteData('E');
    1f3a:	0e 94 ff 01 	call	0x3fe	; 0x3fe <LCD_WriteData>
    1f3e:	80 e2       	ldi	r24, 0x20	; 32
	LCD_Cursor(cur++);
    1f40:	0e 94 e8 01 	call	0x3d0	; 0x3d0 <LCD_Cursor>
    1f44:	82 e5       	ldi	r24, 0x52	; 82
	LCD_WriteData('R');
    1f46:	0e 94 ff 01 	call	0x3fe	; 0x3fe <LCD_WriteData>
    1f4a:	c0 5c       	subi	r28, 0xC0	; 192
}
    1f4c:	df 4f       	sbci	r29, 0xFF	; 255
    1f4e:	0f b6       	in	r0, 0x3f	; 63
    1f50:	f8 94       	cli
    1f52:	de bf       	out	0x3e, r29	; 62
    1f54:	0f be       	out	0x3f, r0	; 63
    1f56:	cd bf       	out	0x3d, r28	; 61
    1f58:	df 91       	pop	r29
    1f5a:	cf 91       	pop	r28
    1f5c:	08 95       	ret

00001f5e <dispTopLeft>:
    1f5e:	cf 93       	push	r28
void dispTopLeft(){
    1f60:	df 93       	push	r29
    1f62:	cd b7       	in	r28, 0x3d	; 61
    1f64:	de b7       	in	r29, 0x3e	; 62
    1f66:	a0 97       	sbiw	r28, 0x20	; 32
    1f68:	0f b6       	in	r0, 0x3f	; 63
    1f6a:	f8 94       	cli
    1f6c:	de bf       	out	0x3e, r29	; 62
    1f6e:	0f be       	out	0x3f, r0	; 63
    1f70:	cd bf       	out	0x3d, r28	; 61
	// PLAY highlighted in the top left
	
	unsigned char selP[8] = {0x1f, 0x11, 0x15, 0x11, 0x17, 0x17, 0x1f, 0x00};
    1f72:	88 e0       	ldi	r24, 0x08	; 8
    1f74:	ed e9       	ldi	r30, 0x9D	; 157
    1f76:	f1 e0       	ldi	r31, 0x01	; 1
    1f78:	de 01       	movw	r26, r28
    1f7a:	11 96       	adiw	r26, 0x01	; 1
    1f7c:	01 90       	ld	r0, Z+
    1f7e:	0d 92       	st	X+, r0
    1f80:	8a 95       	dec	r24
    1f82:	e1 f7       	brne	.-8      	; 0x1f7c <dispTopLeft+0x1e>
	unsigned char selL[8] = {0x1f, 0x17, 0x17, 0x17, 0x17, 0x11, 0x1f, 0x00};
    1f84:	88 e0       	ldi	r24, 0x08	; 8
    1f86:	ed e8       	ldi	r30, 0x8D	; 141
    1f88:	f1 e0       	ldi	r31, 0x01	; 1
    1f8a:	de 01       	movw	r26, r28
    1f8c:	19 96       	adiw	r26, 0x09	; 9
    1f8e:	01 90       	ld	r0, Z+
    1f90:	0d 92       	st	X+, r0
    1f92:	8a 95       	dec	r24
    1f94:	e1 f7       	brne	.-8      	; 0x1f8e <dispTopLeft+0x30>
	unsigned char selA[8] = {0x1f, 0x1b, 0x15, 0x11, 0x15, 0x15, 0x1f, 0x00};
    1f96:	88 e0       	ldi	r24, 0x08	; 8
    1f98:	e5 e4       	ldi	r30, 0x45	; 69
    1f9a:	f1 e0       	ldi	r31, 0x01	; 1
    1f9c:	de 01       	movw	r26, r28
    1f9e:	51 96       	adiw	r26, 0x11	; 17
    1fa0:	01 90       	ld	r0, Z+
    1fa2:	0d 92       	st	X+, r0
    1fa4:	8a 95       	dec	r24
    1fa6:	e1 f7       	brne	.-8      	; 0x1fa0 <dispTopLeft+0x42>
	unsigned char selY[8] = {0x1f, 0x15, 0x15, 0x1b, 0x1b, 0x1b, 0x1f, 0x00};
    1fa8:	88 e0       	ldi	r24, 0x08	; 8
    1faa:	ed e4       	ldi	r30, 0x4D	; 77
    1fac:	f1 e0       	ldi	r31, 0x01	; 1
    1fae:	de 01       	movw	r26, r28
    1fb0:	59 96       	adiw	r26, 0x19	; 25
    1fb2:	01 90       	ld	r0, Z+
    1fb4:	0d 92       	st	X+, r0
    1fb6:	8a 95       	dec	r24
    1fb8:	e1 f7       	brne	.-8      	; 0x1fb2 <dispTopLeft+0x54>
		
	LCD_Custom_Char(0, selP);		// build P at position 0...
    1fba:	be 01       	movw	r22, r28
    1fbc:	6f 5f       	subi	r22, 0xFF	; 255
    1fbe:	7f 4f       	sbci	r23, 0xFF	; 255
    1fc0:	80 e0       	ldi	r24, 0x00	; 0
    1fc2:	0e 94 40 07 	call	0xe80	; 0xe80 <LCD_Custom_Char>
	LCD_Custom_Char(1, selL);
    1fc6:	be 01       	movw	r22, r28
    1fc8:	67 5f       	subi	r22, 0xF7	; 247
    1fca:	7f 4f       	sbci	r23, 0xFF	; 255
    1fcc:	81 e0       	ldi	r24, 0x01	; 1
    1fce:	0e 94 40 07 	call	0xe80	; 0xe80 <LCD_Custom_Char>
	LCD_Custom_Char(2, selA);
    1fd2:	be 01       	movw	r22, r28
    1fd4:	6f 5e       	subi	r22, 0xEF	; 239
    1fd6:	7f 4f       	sbci	r23, 0xFF	; 255
    1fd8:	82 e0       	ldi	r24, 0x02	; 2
    1fda:	0e 94 40 07 	call	0xe80	; 0xe80 <LCD_Custom_Char>
	LCD_Custom_Char(3, selY);
    1fde:	be 01       	movw	r22, r28
    1fe0:	67 5e       	subi	r22, 0xE7	; 231
    1fe2:	7f 4f       	sbci	r23, 0xFF	; 255
    1fe4:	83 e0       	ldi	r24, 0x03	; 3
    1fe6:	0e 94 40 07 	call	0xe80	; 0xe80 <LCD_Custom_Char>
	
	unsigned char cur = 1;		// initialize cursor to 1
	
	LCD_Cursor(cur++);
    1fea:	81 e0       	ldi	r24, 0x01	; 1
    1fec:	0e 94 e8 01 	call	0x3d0	; 0x3d0 <LCD_Cursor>
	LCD_WriteData(0);
    1ff0:	80 e0       	ldi	r24, 0x00	; 0
    1ff2:	0e 94 ff 01 	call	0x3fe	; 0x3fe <LCD_WriteData>
	LCD_Cursor(cur++);
    1ff6:	82 e0       	ldi	r24, 0x02	; 2
    1ff8:	0e 94 e8 01 	call	0x3d0	; 0x3d0 <LCD_Cursor>
	LCD_WriteData(1);
    1ffc:	81 e0       	ldi	r24, 0x01	; 1
    1ffe:	0e 94 ff 01 	call	0x3fe	; 0x3fe <LCD_WriteData>
	LCD_Cursor(cur++);
    2002:	83 e0       	ldi	r24, 0x03	; 3
    2004:	0e 94 e8 01 	call	0x3d0	; 0x3d0 <LCD_Cursor>
	LCD_WriteData(2);
    2008:	82 e0       	ldi	r24, 0x02	; 2
    200a:	0e 94 ff 01 	call	0x3fe	; 0x3fe <LCD_WriteData>
	LCD_Cursor(cur++);
    200e:	84 e0       	ldi	r24, 0x04	; 4
    2010:	0e 94 e8 01 	call	0x3d0	; 0x3d0 <LCD_Cursor>
	LCD_WriteData(3);
    2014:	83 e0       	ldi	r24, 0x03	; 3
    2016:	0e 94 ff 01 	call	0x3fe	; 0x3fe <LCD_WriteData>
	LCD_Cursor(cur++);
    201a:	85 e0       	ldi	r24, 0x05	; 5
    201c:	0e 94 e8 01 	call	0x3d0	; 0x3d0 <LCD_Cursor>
	LCD_WriteData(' ');	
    2020:	80 e2       	ldi	r24, 0x20	; 32
    2022:	0e 94 ff 01 	call	0x3fe	; 0x3fe <LCD_WriteData>
	LCD_Cursor(cur++);
    2026:	86 e0       	ldi	r24, 0x06	; 6
    2028:	0e 94 e8 01 	call	0x3d0	; 0x3d0 <LCD_Cursor>
	LCD_WriteData(' ');
    202c:	80 e2       	ldi	r24, 0x20	; 32
    202e:	0e 94 ff 01 	call	0x3fe	; 0x3fe <LCD_WriteData>
	LCD_Cursor(cur++);
    2032:	87 e0       	ldi	r24, 0x07	; 7
    2034:	0e 94 e8 01 	call	0x3d0	; 0x3d0 <LCD_Cursor>
	LCD_WriteData('D');
    2038:	84 e4       	ldi	r24, 0x44	; 68
    203a:	0e 94 ff 01 	call	0x3fe	; 0x3fe <LCD_WriteData>
	LCD_Cursor(cur++);
    203e:	88 e0       	ldi	r24, 0x08	; 8
    2040:	0e 94 e8 01 	call	0x3d0	; 0x3d0 <LCD_Cursor>
	LCD_WriteData('I');
    2044:	89 e4       	ldi	r24, 0x49	; 73
    2046:	0e 94 ff 01 	call	0x3fe	; 0x3fe <LCD_WriteData>
	LCD_Cursor(cur++);
    204a:	89 e0       	ldi	r24, 0x09	; 9
    204c:	0e 94 e8 01 	call	0x3d0	; 0x3d0 <LCD_Cursor>
	LCD_WriteData('F');
    2050:	86 e4       	ldi	r24, 0x46	; 70
    2052:	0e 94 ff 01 	call	0x3fe	; 0x3fe <LCD_WriteData>
	LCD_Cursor(cur++);
    2056:	8a e0       	ldi	r24, 0x0A	; 10
    2058:	0e 94 e8 01 	call	0x3d0	; 0x3d0 <LCD_Cursor>
	LCD_WriteData('F');
    205c:	86 e4       	ldi	r24, 0x46	; 70
    205e:	0e 94 ff 01 	call	0x3fe	; 0x3fe <LCD_WriteData>
	LCD_Cursor(cur++);
    2062:	8b e0       	ldi	r24, 0x0B	; 11
    2064:	0e 94 e8 01 	call	0x3d0	; 0x3d0 <LCD_Cursor>
	LCD_WriteData('I');
    2068:	89 e4       	ldi	r24, 0x49	; 73
    206a:	0e 94 ff 01 	call	0x3fe	; 0x3fe <LCD_WriteData>
	LCD_Cursor(cur++);
    206e:	8c e0       	ldi	r24, 0x0C	; 12
    2070:	0e 94 e8 01 	call	0x3d0	; 0x3d0 <LCD_Cursor>
	LCD_WriteData('C');
    2074:	83 e4       	ldi	r24, 0x43	; 67
    2076:	0e 94 ff 01 	call	0x3fe	; 0x3fe <LCD_WriteData>
	LCD_Cursor(cur++);
    207a:	8d e0       	ldi	r24, 0x0D	; 13
    207c:	0e 94 e8 01 	call	0x3d0	; 0x3d0 <LCD_Cursor>
	LCD_WriteData('U');
    2080:	85 e5       	ldi	r24, 0x55	; 85
    2082:	0e 94 ff 01 	call	0x3fe	; 0x3fe <LCD_WriteData>
	LCD_Cursor(cur++);
    2086:	8e e0       	ldi	r24, 0x0E	; 14
    2088:	0e 94 e8 01 	call	0x3d0	; 0x3d0 <LCD_Cursor>
	LCD_WriteData('L');
    208c:	8c e4       	ldi	r24, 0x4C	; 76
    208e:	0e 94 ff 01 	call	0x3fe	; 0x3fe <LCD_WriteData>
	LCD_Cursor(cur++);
    2092:	8f e0       	ldi	r24, 0x0F	; 15
    2094:	0e 94 e8 01 	call	0x3d0	; 0x3d0 <LCD_Cursor>
	LCD_WriteData('T');
    2098:	84 e5       	ldi	r24, 0x54	; 84
    209a:	0e 94 ff 01 	call	0x3fe	; 0x3fe <LCD_WriteData>
	LCD_Cursor(cur++);
    209e:	80 e1       	ldi	r24, 0x10	; 16
    20a0:	0e 94 e8 01 	call	0x3d0	; 0x3d0 <LCD_Cursor>
	LCD_WriteData('Y');
    20a4:	89 e5       	ldi	r24, 0x59	; 89
    20a6:	0e 94 ff 01 	call	0x3fe	; 0x3fe <LCD_WriteData>
	LCD_Cursor(cur++);		// Newline here
    20aa:	81 e1       	ldi	r24, 0x11	; 17
    20ac:	0e 94 e8 01 	call	0x3d0	; 0x3d0 <LCD_Cursor>
	LCD_WriteData('T');
    20b0:	84 e5       	ldi	r24, 0x54	; 84
    20b2:	0e 94 ff 01 	call	0x3fe	; 0x3fe <LCD_WriteData>
	LCD_Cursor(cur++);
    20b6:	82 e1       	ldi	r24, 0x12	; 18
    20b8:	0e 94 e8 01 	call	0x3d0	; 0x3d0 <LCD_Cursor>
	LCD_WriteData('I');
    20bc:	89 e4       	ldi	r24, 0x49	; 73
    20be:	0e 94 ff 01 	call	0x3fe	; 0x3fe <LCD_WriteData>
	LCD_Cursor(cur++);
    20c2:	83 e1       	ldi	r24, 0x13	; 19
    20c4:	0e 94 e8 01 	call	0x3d0	; 0x3d0 <LCD_Cursor>
	LCD_WriteData('M');
    20c8:	8d e4       	ldi	r24, 0x4D	; 77
    20ca:	0e 94 ff 01 	call	0x3fe	; 0x3fe <LCD_WriteData>
	LCD_Cursor(cur++);
    20ce:	84 e1       	ldi	r24, 0x14	; 20
    20d0:	0e 94 e8 01 	call	0x3d0	; 0x3d0 <LCD_Cursor>
	LCD_WriteData('E');
    20d4:	85 e4       	ldi	r24, 0x45	; 69
    20d6:	0e 94 ff 01 	call	0x3fe	; 0x3fe <LCD_WriteData>
	LCD_Cursor(cur++);
    20da:	85 e1       	ldi	r24, 0x15	; 21
    20dc:	0e 94 e8 01 	call	0x3d0	; 0x3d0 <LCD_Cursor>
	LCD_WriteData(' ');
    20e0:	80 e2       	ldi	r24, 0x20	; 32
    20e2:	0e 94 ff 01 	call	0x3fe	; 0x3fe <LCD_WriteData>
	LCD_Cursor(cur++);
    20e6:	86 e1       	ldi	r24, 0x16	; 22
    20e8:	0e 94 e8 01 	call	0x3d0	; 0x3d0 <LCD_Cursor>
	LCD_WriteData(' ');
    20ec:	80 e2       	ldi	r24, 0x20	; 32
    20ee:	0e 94 ff 01 	call	0x3fe	; 0x3fe <LCD_WriteData>
	LCD_Cursor(cur++);
    20f2:	87 e1       	ldi	r24, 0x17	; 23
    20f4:	0e 94 e8 01 	call	0x3d0	; 0x3d0 <LCD_Cursor>
	LCD_WriteData(' ');
    20f8:	80 e2       	ldi	r24, 0x20	; 32
    20fa:	0e 94 ff 01 	call	0x3fe	; 0x3fe <LCD_WriteData>
	LCD_Cursor(cur++);
    20fe:	88 e1       	ldi	r24, 0x18	; 24
    2100:	0e 94 e8 01 	call	0x3d0	; 0x3d0 <LCD_Cursor>
	LCD_WriteData(' ');
    2104:	80 e2       	ldi	r24, 0x20	; 32
    2106:	0e 94 ff 01 	call	0x3fe	; 0x3fe <LCD_WriteData>
	LCD_Cursor(cur++);
    210a:	89 e1       	ldi	r24, 0x19	; 25
    210c:	0e 94 e8 01 	call	0x3d0	; 0x3d0 <LCD_Cursor>
	LCD_WriteData(' ');
    2110:	80 e2       	ldi	r24, 0x20	; 32
    2112:	0e 94 ff 01 	call	0x3fe	; 0x3fe <LCD_WriteData>
	LCD_Cursor(cur++);
    2116:	8a e1       	ldi	r24, 0x1A	; 26
    2118:	0e 94 e8 01 	call	0x3d0	; 0x3d0 <LCD_Cursor>
	LCD_WriteData('2');
    211c:	82 e3       	ldi	r24, 0x32	; 50
    211e:	0e 94 ff 01 	call	0x3fe	; 0x3fe <LCD_WriteData>
	LCD_Cursor(cur++);
    2122:	8b e1       	ldi	r24, 0x1B	; 27
    2124:	0e 94 e8 01 	call	0x3d0	; 0x3d0 <LCD_Cursor>
	LCD_WriteData('P');
    2128:	80 e5       	ldi	r24, 0x50	; 80
    212a:	0e 94 ff 01 	call	0x3fe	; 0x3fe <LCD_WriteData>
	LCD_Cursor(cur++);
    212e:	8c e1       	ldi	r24, 0x1C	; 28
    2130:	0e 94 e8 01 	call	0x3d0	; 0x3d0 <LCD_Cursor>
	LCD_WriteData('L');
    2134:	8c e4       	ldi	r24, 0x4C	; 76
    2136:	0e 94 ff 01 	call	0x3fe	; 0x3fe <LCD_WriteData>
	LCD_Cursor(cur++);
    213a:	8d e1       	ldi	r24, 0x1D	; 29
    213c:	0e 94 e8 01 	call	0x3d0	; 0x3d0 <LCD_Cursor>
	LCD_WriteData('A');
    2140:	81 e4       	ldi	r24, 0x41	; 65
    2142:	0e 94 ff 01 	call	0x3fe	; 0x3fe <LCD_WriteData>
	LCD_Cursor(cur++);
    2146:	8e e1       	ldi	r24, 0x1E	; 30
    2148:	0e 94 e8 01 	call	0x3d0	; 0x3d0 <LCD_Cursor>
	LCD_WriteData('Y');
    214c:	89 e5       	ldi	r24, 0x59	; 89
    214e:	0e 94 ff 01 	call	0x3fe	; 0x3fe <LCD_WriteData>
	LCD_Cursor(cur++);
    2152:	8f e1       	ldi	r24, 0x1F	; 31
    2154:	0e 94 e8 01 	call	0x3d0	; 0x3d0 <LCD_Cursor>
	LCD_WriteData('E');
    2158:	85 e4       	ldi	r24, 0x45	; 69
    215a:	0e 94 ff 01 	call	0x3fe	; 0x3fe <LCD_WriteData>
	LCD_Cursor(cur++);
    215e:	80 e2       	ldi	r24, 0x20	; 32
    2160:	0e 94 e8 01 	call	0x3d0	; 0x3d0 <LCD_Cursor>
	LCD_WriteData('R');
    2164:	82 e5       	ldi	r24, 0x52	; 82
    2166:	0e 94 ff 01 	call	0x3fe	; 0x3fe <LCD_WriteData>
}
    216a:	a0 96       	adiw	r28, 0x20	; 32
    216c:	0f b6       	in	r0, 0x3f	; 63
    216e:	f8 94       	cli
    2170:	de bf       	out	0x3e, r29	; 62
    2172:	0f be       	out	0x3f, r0	; 63
    2174:	cd bf       	out	0x3d, r28	; 61
    2176:	df 91       	pop	r29
    2178:	cf 91       	pop	r28
    217a:	08 95       	ret

0000217c <dispBottomRight>:
void dispBottomRight(){
    217c:	cf 93       	push	r28
    217e:	df 93       	push	r29
    2180:	cd b7       	in	r28, 0x3d	; 61
    2182:	de b7       	in	r29, 0x3e	; 62
    2184:	e8 97       	sbiw	r28, 0x38	; 56
    2186:	0f b6       	in	r0, 0x3f	; 63
    2188:	f8 94       	cli
    218a:	de bf       	out	0x3e, r29	; 62
    218c:	0f be       	out	0x3f, r0	; 63
    218e:	cd bf       	out	0x3d, r28	; 61
	// 2PLAYER highlighted in the bottom right
	
	unsigned char sel2[8] = {0x1f, 0x13, 0x1d, 0x1d, 0x1b, 0x11, 0x1f, 0x00};
    2190:	88 e0       	ldi	r24, 0x08	; 8
    2192:	e5 ea       	ldi	r30, 0xA5	; 165
    2194:	f1 e0       	ldi	r31, 0x01	; 1
    2196:	de 01       	movw	r26, r28
    2198:	11 96       	adiw	r26, 0x01	; 1
    219a:	01 90       	ld	r0, Z+
    219c:	0d 92       	st	X+, r0
    219e:	8a 95       	dec	r24
    21a0:	e1 f7       	brne	.-8      	; 0x219a <dispBottomRight+0x1e>
	unsigned char selP[8] = {0x1f, 0x11, 0x15, 0x11, 0x17, 0x17, 0x1f, 0x00};
    21a2:	88 e0       	ldi	r24, 0x08	; 8
    21a4:	ed e9       	ldi	r30, 0x9D	; 157
    21a6:	f1 e0       	ldi	r31, 0x01	; 1
    21a8:	de 01       	movw	r26, r28
    21aa:	19 96       	adiw	r26, 0x09	; 9
    21ac:	01 90       	ld	r0, Z+
    21ae:	0d 92       	st	X+, r0
    21b0:	8a 95       	dec	r24
    21b2:	e1 f7       	brne	.-8      	; 0x21ac <dispBottomRight+0x30>
	unsigned char selL[8] = {0x1f, 0x17, 0x17, 0x17, 0x17, 0x11, 0x1f, 0x00};
    21b4:	88 e0       	ldi	r24, 0x08	; 8
    21b6:	ed e8       	ldi	r30, 0x8D	; 141
    21b8:	f1 e0       	ldi	r31, 0x01	; 1
    21ba:	de 01       	movw	r26, r28
    21bc:	51 96       	adiw	r26, 0x11	; 17
    21be:	01 90       	ld	r0, Z+
    21c0:	0d 92       	st	X+, r0
    21c2:	8a 95       	dec	r24
    21c4:	e1 f7       	brne	.-8      	; 0x21be <dispBottomRight+0x42>
	unsigned char selA[8] = {0x1f, 0x1b, 0x15, 0x11, 0x15, 0x15, 0x1f, 0x00};
    21c6:	88 e0       	ldi	r24, 0x08	; 8
    21c8:	e5 e4       	ldi	r30, 0x45	; 69
    21ca:	f1 e0       	ldi	r31, 0x01	; 1
    21cc:	de 01       	movw	r26, r28
    21ce:	59 96       	adiw	r26, 0x19	; 25
    21d0:	01 90       	ld	r0, Z+
    21d2:	0d 92       	st	X+, r0
    21d4:	8a 95       	dec	r24
    21d6:	e1 f7       	brne	.-8      	; 0x21d0 <dispBottomRight+0x54>
	unsigned char selY[8] = {0x1f, 0x15, 0x15, 0x1b, 0x1b, 0x1b, 0x1f, 0x00};
    21d8:	88 e0       	ldi	r24, 0x08	; 8
    21da:	ed e4       	ldi	r30, 0x4D	; 77
    21dc:	f1 e0       	ldi	r31, 0x01	; 1
    21de:	de 01       	movw	r26, r28
    21e0:	91 96       	adiw	r26, 0x21	; 33
    21e2:	01 90       	ld	r0, Z+
    21e4:	0d 92       	st	X+, r0
    21e6:	8a 95       	dec	r24
    21e8:	e1 f7       	brne	.-8      	; 0x21e2 <dispBottomRight+0x66>
	unsigned char selE[8] = {0x1f, 0x11, 0x17, 0x13, 0x17, 0x11, 0x1f, 0x00};
    21ea:	88 e0       	ldi	r24, 0x08	; 8
    21ec:	e5 e2       	ldi	r30, 0x25	; 37
    21ee:	f1 e0       	ldi	r31, 0x01	; 1
    21f0:	de 01       	movw	r26, r28
    21f2:	99 96       	adiw	r26, 0x29	; 41
    21f4:	01 90       	ld	r0, Z+
    21f6:	0d 92       	st	X+, r0
    21f8:	8a 95       	dec	r24
    21fa:	e1 f7       	brne	.-8      	; 0x21f4 <dispBottomRight+0x78>
	unsigned char selR[8] = {0x1f, 0x13, 0x15, 0x13, 0x15, 0x15, 0x1f, 0x00};
    21fc:	88 e0       	ldi	r24, 0x08	; 8
    21fe:	ed e7       	ldi	r30, 0x7D	; 125
    2200:	f1 e0       	ldi	r31, 0x01	; 1
    2202:	de 01       	movw	r26, r28
    2204:	d1 96       	adiw	r26, 0x31	; 49
    2206:	01 90       	ld	r0, Z+
    2208:	0d 92       	st	X+, r0
    220a:	8a 95       	dec	r24
    220c:	e1 f7       	brne	.-8      	; 0x2206 <dispBottomRight+0x8a>
	
	LCD_Custom_Char(0, sel2);		// build T at position 0...
    220e:	be 01       	movw	r22, r28
    2210:	6f 5f       	subi	r22, 0xFF	; 255
    2212:	7f 4f       	sbci	r23, 0xFF	; 255
    2214:	80 e0       	ldi	r24, 0x00	; 0
    2216:	0e 94 40 07 	call	0xe80	; 0xe80 <LCD_Custom_Char>
	LCD_Custom_Char(1, selP);
    221a:	be 01       	movw	r22, r28
    221c:	67 5f       	subi	r22, 0xF7	; 247
    221e:	7f 4f       	sbci	r23, 0xFF	; 255
    2220:	81 e0       	ldi	r24, 0x01	; 1
    2222:	0e 94 40 07 	call	0xe80	; 0xe80 <LCD_Custom_Char>
	LCD_Custom_Char(2, selL);
    2226:	be 01       	movw	r22, r28
    2228:	6f 5e       	subi	r22, 0xEF	; 239
    222a:	7f 4f       	sbci	r23, 0xFF	; 255
    222c:	82 e0       	ldi	r24, 0x02	; 2
    222e:	0e 94 40 07 	call	0xe80	; 0xe80 <LCD_Custom_Char>
	LCD_Custom_Char(3, selA);
    2232:	be 01       	movw	r22, r28
    2234:	67 5e       	subi	r22, 0xE7	; 231
    2236:	7f 4f       	sbci	r23, 0xFF	; 255
    2238:	83 e0       	ldi	r24, 0x03	; 3
    223a:	0e 94 40 07 	call	0xe80	; 0xe80 <LCD_Custom_Char>
	LCD_Custom_Char(4, selY);
    223e:	be 01       	movw	r22, r28
    2240:	6f 5d       	subi	r22, 0xDF	; 223
    2242:	7f 4f       	sbci	r23, 0xFF	; 255
    2244:	84 e0       	ldi	r24, 0x04	; 4
    2246:	0e 94 40 07 	call	0xe80	; 0xe80 <LCD_Custom_Char>
	LCD_Custom_Char(5, selE);
    224a:	be 01       	movw	r22, r28
    224c:	67 5d       	subi	r22, 0xD7	; 215
    224e:	7f 4f       	sbci	r23, 0xFF	; 255
    2250:	85 e0       	ldi	r24, 0x05	; 5
    2252:	0e 94 40 07 	call	0xe80	; 0xe80 <LCD_Custom_Char>
	LCD_Custom_Char(6, selR);
    2256:	be 01       	movw	r22, r28
    2258:	6f 5c       	subi	r22, 0xCF	; 207
    225a:	7f 4f       	sbci	r23, 0xFF	; 255
    225c:	86 e0       	ldi	r24, 0x06	; 6
    225e:	0e 94 40 07 	call	0xe80	; 0xe80 <LCD_Custom_Char>
	
	unsigned char cur = 1;		// initialize cursor to 1
	
	LCD_Cursor(cur++);
    2262:	81 e0       	ldi	r24, 0x01	; 1
    2264:	0e 94 e8 01 	call	0x3d0	; 0x3d0 <LCD_Cursor>
	LCD_WriteData('P');
    2268:	80 e5       	ldi	r24, 0x50	; 80
    226a:	0e 94 ff 01 	call	0x3fe	; 0x3fe <LCD_WriteData>
	LCD_Cursor(cur++);
    226e:	82 e0       	ldi	r24, 0x02	; 2
    2270:	0e 94 e8 01 	call	0x3d0	; 0x3d0 <LCD_Cursor>
	LCD_WriteData('L');
    2274:	8c e4       	ldi	r24, 0x4C	; 76
    2276:	0e 94 ff 01 	call	0x3fe	; 0x3fe <LCD_WriteData>
	LCD_Cursor(cur++);
    227a:	83 e0       	ldi	r24, 0x03	; 3
    227c:	0e 94 e8 01 	call	0x3d0	; 0x3d0 <LCD_Cursor>
	LCD_WriteData('A');
    2280:	81 e4       	ldi	r24, 0x41	; 65
    2282:	0e 94 ff 01 	call	0x3fe	; 0x3fe <LCD_WriteData>
	LCD_Cursor(cur++);
    2286:	84 e0       	ldi	r24, 0x04	; 4
    2288:	0e 94 e8 01 	call	0x3d0	; 0x3d0 <LCD_Cursor>
	LCD_WriteData('Y');
    228c:	89 e5       	ldi	r24, 0x59	; 89
    228e:	0e 94 ff 01 	call	0x3fe	; 0x3fe <LCD_WriteData>
	LCD_Cursor(cur++);
    2292:	85 e0       	ldi	r24, 0x05	; 5
    2294:	0e 94 e8 01 	call	0x3d0	; 0x3d0 <LCD_Cursor>
	LCD_WriteData(' ');
    2298:	80 e2       	ldi	r24, 0x20	; 32
    229a:	0e 94 ff 01 	call	0x3fe	; 0x3fe <LCD_WriteData>
	LCD_Cursor(cur++);
    229e:	86 e0       	ldi	r24, 0x06	; 6
    22a0:	0e 94 e8 01 	call	0x3d0	; 0x3d0 <LCD_Cursor>
	LCD_WriteData(' ');
    22a4:	80 e2       	ldi	r24, 0x20	; 32
    22a6:	0e 94 ff 01 	call	0x3fe	; 0x3fe <LCD_WriteData>
	LCD_Cursor(cur++);
    22aa:	87 e0       	ldi	r24, 0x07	; 7
    22ac:	0e 94 e8 01 	call	0x3d0	; 0x3d0 <LCD_Cursor>
	LCD_WriteData('D');
    22b0:	84 e4       	ldi	r24, 0x44	; 68
    22b2:	0e 94 ff 01 	call	0x3fe	; 0x3fe <LCD_WriteData>
	LCD_Cursor(cur++);
    22b6:	88 e0       	ldi	r24, 0x08	; 8
    22b8:	0e 94 e8 01 	call	0x3d0	; 0x3d0 <LCD_Cursor>
	LCD_WriteData('I');
    22bc:	89 e4       	ldi	r24, 0x49	; 73
    22be:	0e 94 ff 01 	call	0x3fe	; 0x3fe <LCD_WriteData>
	LCD_Cursor(cur++);
    22c2:	89 e0       	ldi	r24, 0x09	; 9
    22c4:	0e 94 e8 01 	call	0x3d0	; 0x3d0 <LCD_Cursor>
	LCD_WriteData('F');
    22c8:	86 e4       	ldi	r24, 0x46	; 70
    22ca:	0e 94 ff 01 	call	0x3fe	; 0x3fe <LCD_WriteData>
	LCD_Cursor(cur++);
    22ce:	8a e0       	ldi	r24, 0x0A	; 10
    22d0:	0e 94 e8 01 	call	0x3d0	; 0x3d0 <LCD_Cursor>
	LCD_WriteData('F');
    22d4:	86 e4       	ldi	r24, 0x46	; 70
    22d6:	0e 94 ff 01 	call	0x3fe	; 0x3fe <LCD_WriteData>
	LCD_Cursor(cur++);
    22da:	8b e0       	ldi	r24, 0x0B	; 11
    22dc:	0e 94 e8 01 	call	0x3d0	; 0x3d0 <LCD_Cursor>
	LCD_WriteData('I');
    22e0:	89 e4       	ldi	r24, 0x49	; 73
    22e2:	0e 94 ff 01 	call	0x3fe	; 0x3fe <LCD_WriteData>
	LCD_Cursor(cur++);
    22e6:	8c e0       	ldi	r24, 0x0C	; 12
    22e8:	0e 94 e8 01 	call	0x3d0	; 0x3d0 <LCD_Cursor>
	LCD_WriteData('C');
    22ec:	83 e4       	ldi	r24, 0x43	; 67
    22ee:	0e 94 ff 01 	call	0x3fe	; 0x3fe <LCD_WriteData>
	LCD_Cursor(cur++);
    22f2:	8d e0       	ldi	r24, 0x0D	; 13
    22f4:	0e 94 e8 01 	call	0x3d0	; 0x3d0 <LCD_Cursor>
	LCD_WriteData('U');
    22f8:	85 e5       	ldi	r24, 0x55	; 85
    22fa:	0e 94 ff 01 	call	0x3fe	; 0x3fe <LCD_WriteData>
	LCD_Cursor(cur++);
    22fe:	8e e0       	ldi	r24, 0x0E	; 14
    2300:	0e 94 e8 01 	call	0x3d0	; 0x3d0 <LCD_Cursor>
	LCD_WriteData('L');
    2304:	8c e4       	ldi	r24, 0x4C	; 76
    2306:	0e 94 ff 01 	call	0x3fe	; 0x3fe <LCD_WriteData>
	LCD_Cursor(cur++);
    230a:	8f e0       	ldi	r24, 0x0F	; 15
    230c:	0e 94 e8 01 	call	0x3d0	; 0x3d0 <LCD_Cursor>
	LCD_WriteData('T');
    2310:	84 e5       	ldi	r24, 0x54	; 84
    2312:	0e 94 ff 01 	call	0x3fe	; 0x3fe <LCD_WriteData>
	LCD_Cursor(cur++);
    2316:	80 e1       	ldi	r24, 0x10	; 16
    2318:	0e 94 e8 01 	call	0x3d0	; 0x3d0 <LCD_Cursor>
	LCD_WriteData('Y');
    231c:	89 e5       	ldi	r24, 0x59	; 89
    231e:	0e 94 ff 01 	call	0x3fe	; 0x3fe <LCD_WriteData>
	LCD_Cursor(cur++);		// Newline here
    2322:	81 e1       	ldi	r24, 0x11	; 17
    2324:	0e 94 e8 01 	call	0x3d0	; 0x3d0 <LCD_Cursor>
	LCD_WriteData('T');
    2328:	84 e5       	ldi	r24, 0x54	; 84
    232a:	0e 94 ff 01 	call	0x3fe	; 0x3fe <LCD_WriteData>
	LCD_Cursor(cur++);
    232e:	82 e1       	ldi	r24, 0x12	; 18
    2330:	0e 94 e8 01 	call	0x3d0	; 0x3d0 <LCD_Cursor>
	LCD_WriteData('I');
    2334:	89 e4       	ldi	r24, 0x49	; 73
    2336:	0e 94 ff 01 	call	0x3fe	; 0x3fe <LCD_WriteData>
	LCD_Cursor(cur++);
    233a:	83 e1       	ldi	r24, 0x13	; 19
    233c:	0e 94 e8 01 	call	0x3d0	; 0x3d0 <LCD_Cursor>
	LCD_WriteData('M');
    2340:	8d e4       	ldi	r24, 0x4D	; 77
    2342:	0e 94 ff 01 	call	0x3fe	; 0x3fe <LCD_WriteData>
	LCD_Cursor(cur++);
    2346:	84 e1       	ldi	r24, 0x14	; 20
    2348:	0e 94 e8 01 	call	0x3d0	; 0x3d0 <LCD_Cursor>
	LCD_WriteData('E');
    234c:	85 e4       	ldi	r24, 0x45	; 69
    234e:	0e 94 ff 01 	call	0x3fe	; 0x3fe <LCD_WriteData>
	LCD_Cursor(cur++);
    2352:	85 e1       	ldi	r24, 0x15	; 21
    2354:	0e 94 e8 01 	call	0x3d0	; 0x3d0 <LCD_Cursor>
	LCD_WriteData(' ');
    2358:	80 e2       	ldi	r24, 0x20	; 32
    235a:	0e 94 ff 01 	call	0x3fe	; 0x3fe <LCD_WriteData>
	LCD_Cursor(cur++);
    235e:	86 e1       	ldi	r24, 0x16	; 22
    2360:	0e 94 e8 01 	call	0x3d0	; 0x3d0 <LCD_Cursor>
	LCD_WriteData(' ');
    2364:	80 e2       	ldi	r24, 0x20	; 32
    2366:	0e 94 ff 01 	call	0x3fe	; 0x3fe <LCD_WriteData>
	LCD_Cursor(cur++);
    236a:	87 e1       	ldi	r24, 0x17	; 23
    236c:	0e 94 e8 01 	call	0x3d0	; 0x3d0 <LCD_Cursor>
	LCD_WriteData(' ');
    2370:	80 e2       	ldi	r24, 0x20	; 32
    2372:	0e 94 ff 01 	call	0x3fe	; 0x3fe <LCD_WriteData>
	LCD_Cursor(cur++);
    2376:	88 e1       	ldi	r24, 0x18	; 24
    2378:	0e 94 e8 01 	call	0x3d0	; 0x3d0 <LCD_Cursor>
	LCD_WriteData(' ');
    237c:	80 e2       	ldi	r24, 0x20	; 32
    237e:	0e 94 ff 01 	call	0x3fe	; 0x3fe <LCD_WriteData>
	LCD_Cursor(cur++);
    2382:	89 e1       	ldi	r24, 0x19	; 25
    2384:	0e 94 e8 01 	call	0x3d0	; 0x3d0 <LCD_Cursor>
	LCD_WriteData(' ');
    2388:	80 e2       	ldi	r24, 0x20	; 32
    238a:	0e 94 ff 01 	call	0x3fe	; 0x3fe <LCD_WriteData>
	LCD_Cursor(cur++);
    238e:	8a e1       	ldi	r24, 0x1A	; 26
    2390:	0e 94 e8 01 	call	0x3d0	; 0x3d0 <LCD_Cursor>
	LCD_WriteData(0);
    2394:	80 e0       	ldi	r24, 0x00	; 0
    2396:	0e 94 ff 01 	call	0x3fe	; 0x3fe <LCD_WriteData>
	LCD_Cursor(cur++);
    239a:	8b e1       	ldi	r24, 0x1B	; 27
    239c:	0e 94 e8 01 	call	0x3d0	; 0x3d0 <LCD_Cursor>
	LCD_WriteData(1);
    23a0:	81 e0       	ldi	r24, 0x01	; 1
    23a2:	0e 94 ff 01 	call	0x3fe	; 0x3fe <LCD_WriteData>
	LCD_Cursor(cur++);
    23a6:	8c e1       	ldi	r24, 0x1C	; 28
    23a8:	0e 94 e8 01 	call	0x3d0	; 0x3d0 <LCD_Cursor>
	LCD_WriteData(2);
    23ac:	82 e0       	ldi	r24, 0x02	; 2
    23ae:	0e 94 ff 01 	call	0x3fe	; 0x3fe <LCD_WriteData>
	LCD_Cursor(cur++);
    23b2:	8d e1       	ldi	r24, 0x1D	; 29
    23b4:	0e 94 e8 01 	call	0x3d0	; 0x3d0 <LCD_Cursor>
	LCD_WriteData(3);
    23b8:	83 e0       	ldi	r24, 0x03	; 3
    23ba:	0e 94 ff 01 	call	0x3fe	; 0x3fe <LCD_WriteData>
	LCD_Cursor(cur++);
    23be:	8e e1       	ldi	r24, 0x1E	; 30
    23c0:	0e 94 e8 01 	call	0x3d0	; 0x3d0 <LCD_Cursor>
	LCD_WriteData(4);
    23c4:	84 e0       	ldi	r24, 0x04	; 4
    23c6:	0e 94 ff 01 	call	0x3fe	; 0x3fe <LCD_WriteData>
	LCD_Cursor(cur++);
    23ca:	8f e1       	ldi	r24, 0x1F	; 31
    23cc:	0e 94 e8 01 	call	0x3d0	; 0x3d0 <LCD_Cursor>
	LCD_WriteData(5);
    23d0:	85 e0       	ldi	r24, 0x05	; 5
    23d2:	0e 94 ff 01 	call	0x3fe	; 0x3fe <LCD_WriteData>
	LCD_Cursor(cur++);
    23d6:	80 e2       	ldi	r24, 0x20	; 32
    23d8:	0e 94 e8 01 	call	0x3d0	; 0x3d0 <LCD_Cursor>
	LCD_WriteData(6);
    23dc:	86 e0       	ldi	r24, 0x06	; 6
    23de:	0e 94 ff 01 	call	0x3fe	; 0x3fe <LCD_WriteData>
}
    23e2:	e8 96       	adiw	r28, 0x38	; 56
    23e4:	0f b6       	in	r0, 0x3f	; 63
    23e6:	f8 94       	cli
    23e8:	de bf       	out	0x3e, r29	; 62
    23ea:	0f be       	out	0x3f, r0	; 63
    23ec:	cd bf       	out	0x3d, r28	; 61
    23ee:	df 91       	pop	r29
    23f0:	cf 91       	pop	r28
    23f2:	08 95       	ret

000023f4 <dispBottomLeft>:
void dispBottomLeft(){
    23f4:	cf 93       	push	r28
    23f6:	df 93       	push	r29
    23f8:	cd b7       	in	r28, 0x3d	; 61
    23fa:	de b7       	in	r29, 0x3e	; 62
    23fc:	a0 97       	sbiw	r28, 0x20	; 32
    23fe:	0f b6       	in	r0, 0x3f	; 63
    2400:	f8 94       	cli
    2402:	de bf       	out	0x3e, r29	; 62
    2404:	0f be       	out	0x3f, r0	; 63
    2406:	cd bf       	out	0x3d, r28	; 61
	// TIME highlighted in the bottom left
	
	unsigned char selE[8] = {0x1f, 0x11, 0x17, 0x13, 0x17, 0x11, 0x1f, 0x00};
    2408:	88 e0       	ldi	r24, 0x08	; 8
    240a:	e5 e2       	ldi	r30, 0x25	; 37
    240c:	f1 e0       	ldi	r31, 0x01	; 1
    240e:	de 01       	movw	r26, r28
    2410:	11 96       	adiw	r26, 0x01	; 1
    2412:	01 90       	ld	r0, Z+
    2414:	0d 92       	st	X+, r0
    2416:	8a 95       	dec	r24
    2418:	e1 f7       	brne	.-8      	; 0x2412 <dispBottomLeft+0x1e>
	unsigned char selM[8] = {0x1f, 0x15, 0x11, 0x11, 0x15, 0x15, 0x1f, 0x00};
    241a:	88 e0       	ldi	r24, 0x08	; 8
    241c:	e5 e5       	ldi	r30, 0x55	; 85
    241e:	f1 e0       	ldi	r31, 0x01	; 1
    2420:	de 01       	movw	r26, r28
    2422:	19 96       	adiw	r26, 0x09	; 9
    2424:	01 90       	ld	r0, Z+
    2426:	0d 92       	st	X+, r0
    2428:	8a 95       	dec	r24
    242a:	e1 f7       	brne	.-8      	; 0x2424 <dispBottomLeft+0x30>
	unsigned char selI[8] = {0x1f, 0x11, 0x1b, 0x1b, 0x1b, 0x11, 0x1f, 0x00};
    242c:	88 e0       	ldi	r24, 0x08	; 8
    242e:	e5 e6       	ldi	r30, 0x65	; 101
    2430:	f1 e0       	ldi	r31, 0x01	; 1
    2432:	de 01       	movw	r26, r28
    2434:	51 96       	adiw	r26, 0x11	; 17
    2436:	01 90       	ld	r0, Z+
    2438:	0d 92       	st	X+, r0
    243a:	8a 95       	dec	r24
    243c:	e1 f7       	brne	.-8      	; 0x2436 <dispBottomLeft+0x42>
	unsigned char selT[8] = {0x1f, 0x11, 0x1b, 0x1b, 0x1b, 0x1b, 0x1f, 0x00};
    243e:	88 e0       	ldi	r24, 0x08	; 8
    2440:	e5 e9       	ldi	r30, 0x95	; 149
    2442:	f1 e0       	ldi	r31, 0x01	; 1
    2444:	de 01       	movw	r26, r28
    2446:	59 96       	adiw	r26, 0x19	; 25
    2448:	01 90       	ld	r0, Z+
    244a:	0d 92       	st	X+, r0
    244c:	8a 95       	dec	r24
    244e:	e1 f7       	brne	.-8      	; 0x2448 <dispBottomLeft+0x54>
	
	LCD_Custom_Char(0, selT);		// build T at position 0...
    2450:	be 01       	movw	r22, r28
    2452:	67 5e       	subi	r22, 0xE7	; 231
    2454:	7f 4f       	sbci	r23, 0xFF	; 255
    2456:	80 e0       	ldi	r24, 0x00	; 0
    2458:	0e 94 40 07 	call	0xe80	; 0xe80 <LCD_Custom_Char>
	LCD_Custom_Char(1, selI);
    245c:	be 01       	movw	r22, r28
    245e:	6f 5e       	subi	r22, 0xEF	; 239
    2460:	7f 4f       	sbci	r23, 0xFF	; 255
    2462:	81 e0       	ldi	r24, 0x01	; 1
    2464:	0e 94 40 07 	call	0xe80	; 0xe80 <LCD_Custom_Char>
	LCD_Custom_Char(2, selM);
    2468:	be 01       	movw	r22, r28
    246a:	67 5f       	subi	r22, 0xF7	; 247
    246c:	7f 4f       	sbci	r23, 0xFF	; 255
    246e:	82 e0       	ldi	r24, 0x02	; 2
    2470:	0e 94 40 07 	call	0xe80	; 0xe80 <LCD_Custom_Char>
	LCD_Custom_Char(3, selE);
    2474:	be 01       	movw	r22, r28
    2476:	6f 5f       	subi	r22, 0xFF	; 255
    2478:	7f 4f       	sbci	r23, 0xFF	; 255
    247a:	83 e0       	ldi	r24, 0x03	; 3
    247c:	0e 94 40 07 	call	0xe80	; 0xe80 <LCD_Custom_Char>
	
	unsigned char cur = 1;		// initialize cursor to 1
	
	LCD_Cursor(cur++);
    2480:	81 e0       	ldi	r24, 0x01	; 1
    2482:	0e 94 e8 01 	call	0x3d0	; 0x3d0 <LCD_Cursor>
	LCD_WriteData('P');
    2486:	80 e5       	ldi	r24, 0x50	; 80
    2488:	0e 94 ff 01 	call	0x3fe	; 0x3fe <LCD_WriteData>
	LCD_Cursor(cur++);
    248c:	82 e0       	ldi	r24, 0x02	; 2
    248e:	0e 94 e8 01 	call	0x3d0	; 0x3d0 <LCD_Cursor>
	LCD_WriteData('L');
    2492:	8c e4       	ldi	r24, 0x4C	; 76
    2494:	0e 94 ff 01 	call	0x3fe	; 0x3fe <LCD_WriteData>
	LCD_Cursor(cur++);
    2498:	83 e0       	ldi	r24, 0x03	; 3
    249a:	0e 94 e8 01 	call	0x3d0	; 0x3d0 <LCD_Cursor>
	LCD_WriteData('A');
    249e:	81 e4       	ldi	r24, 0x41	; 65
    24a0:	0e 94 ff 01 	call	0x3fe	; 0x3fe <LCD_WriteData>
	LCD_Cursor(cur++);
    24a4:	84 e0       	ldi	r24, 0x04	; 4
    24a6:	0e 94 e8 01 	call	0x3d0	; 0x3d0 <LCD_Cursor>
	LCD_WriteData('Y');
    24aa:	89 e5       	ldi	r24, 0x59	; 89
    24ac:	0e 94 ff 01 	call	0x3fe	; 0x3fe <LCD_WriteData>
	LCD_Cursor(cur++);
    24b0:	85 e0       	ldi	r24, 0x05	; 5
    24b2:	0e 94 e8 01 	call	0x3d0	; 0x3d0 <LCD_Cursor>
	LCD_WriteData(' ');
    24b6:	80 e2       	ldi	r24, 0x20	; 32
    24b8:	0e 94 ff 01 	call	0x3fe	; 0x3fe <LCD_WriteData>
	LCD_Cursor(cur++);
    24bc:	86 e0       	ldi	r24, 0x06	; 6
    24be:	0e 94 e8 01 	call	0x3d0	; 0x3d0 <LCD_Cursor>
	LCD_WriteData(' ');
    24c2:	80 e2       	ldi	r24, 0x20	; 32
    24c4:	0e 94 ff 01 	call	0x3fe	; 0x3fe <LCD_WriteData>
	LCD_Cursor(cur++);
    24c8:	87 e0       	ldi	r24, 0x07	; 7
    24ca:	0e 94 e8 01 	call	0x3d0	; 0x3d0 <LCD_Cursor>
	LCD_WriteData('D');
    24ce:	84 e4       	ldi	r24, 0x44	; 68
    24d0:	0e 94 ff 01 	call	0x3fe	; 0x3fe <LCD_WriteData>
	LCD_Cursor(cur++);
    24d4:	88 e0       	ldi	r24, 0x08	; 8
    24d6:	0e 94 e8 01 	call	0x3d0	; 0x3d0 <LCD_Cursor>
	LCD_WriteData('I');
    24da:	89 e4       	ldi	r24, 0x49	; 73
    24dc:	0e 94 ff 01 	call	0x3fe	; 0x3fe <LCD_WriteData>
	LCD_Cursor(cur++);
    24e0:	89 e0       	ldi	r24, 0x09	; 9
    24e2:	0e 94 e8 01 	call	0x3d0	; 0x3d0 <LCD_Cursor>
	LCD_WriteData('F');
    24e6:	86 e4       	ldi	r24, 0x46	; 70
    24e8:	0e 94 ff 01 	call	0x3fe	; 0x3fe <LCD_WriteData>
	LCD_Cursor(cur++);
    24ec:	8a e0       	ldi	r24, 0x0A	; 10
    24ee:	0e 94 e8 01 	call	0x3d0	; 0x3d0 <LCD_Cursor>
	LCD_WriteData('F');
    24f2:	86 e4       	ldi	r24, 0x46	; 70
    24f4:	0e 94 ff 01 	call	0x3fe	; 0x3fe <LCD_WriteData>
	LCD_Cursor(cur++);
    24f8:	8b e0       	ldi	r24, 0x0B	; 11
    24fa:	0e 94 e8 01 	call	0x3d0	; 0x3d0 <LCD_Cursor>
	LCD_WriteData('I');
    24fe:	89 e4       	ldi	r24, 0x49	; 73
    2500:	0e 94 ff 01 	call	0x3fe	; 0x3fe <LCD_WriteData>
	LCD_Cursor(cur++);
    2504:	8c e0       	ldi	r24, 0x0C	; 12
    2506:	0e 94 e8 01 	call	0x3d0	; 0x3d0 <LCD_Cursor>
	LCD_WriteData('C');
    250a:	83 e4       	ldi	r24, 0x43	; 67
    250c:	0e 94 ff 01 	call	0x3fe	; 0x3fe <LCD_WriteData>
	LCD_Cursor(cur++);
    2510:	8d e0       	ldi	r24, 0x0D	; 13
    2512:	0e 94 e8 01 	call	0x3d0	; 0x3d0 <LCD_Cursor>
	LCD_WriteData('U');
    2516:	85 e5       	ldi	r24, 0x55	; 85
    2518:	0e 94 ff 01 	call	0x3fe	; 0x3fe <LCD_WriteData>
	LCD_Cursor(cur++);
    251c:	8e e0       	ldi	r24, 0x0E	; 14
    251e:	0e 94 e8 01 	call	0x3d0	; 0x3d0 <LCD_Cursor>
	LCD_WriteData('L');
    2522:	8c e4       	ldi	r24, 0x4C	; 76
    2524:	0e 94 ff 01 	call	0x3fe	; 0x3fe <LCD_WriteData>
	LCD_Cursor(cur++);
    2528:	8f e0       	ldi	r24, 0x0F	; 15
    252a:	0e 94 e8 01 	call	0x3d0	; 0x3d0 <LCD_Cursor>
	LCD_WriteData('T');
    252e:	84 e5       	ldi	r24, 0x54	; 84
    2530:	0e 94 ff 01 	call	0x3fe	; 0x3fe <LCD_WriteData>
	LCD_Cursor(cur++);
    2534:	80 e1       	ldi	r24, 0x10	; 16
    2536:	0e 94 e8 01 	call	0x3d0	; 0x3d0 <LCD_Cursor>
	LCD_WriteData('Y');
    253a:	89 e5       	ldi	r24, 0x59	; 89
    253c:	0e 94 ff 01 	call	0x3fe	; 0x3fe <LCD_WriteData>
	LCD_Cursor(cur++);		// Newline here
    2540:	81 e1       	ldi	r24, 0x11	; 17
    2542:	0e 94 e8 01 	call	0x3d0	; 0x3d0 <LCD_Cursor>
	LCD_WriteData(0);
    2546:	80 e0       	ldi	r24, 0x00	; 0
    2548:	0e 94 ff 01 	call	0x3fe	; 0x3fe <LCD_WriteData>
	LCD_Cursor(cur++);
    254c:	82 e1       	ldi	r24, 0x12	; 18
    254e:	0e 94 e8 01 	call	0x3d0	; 0x3d0 <LCD_Cursor>
	LCD_WriteData(1);
    2552:	81 e0       	ldi	r24, 0x01	; 1
    2554:	0e 94 ff 01 	call	0x3fe	; 0x3fe <LCD_WriteData>
	LCD_Cursor(cur++);
    2558:	83 e1       	ldi	r24, 0x13	; 19
    255a:	0e 94 e8 01 	call	0x3d0	; 0x3d0 <LCD_Cursor>
	LCD_WriteData(2);
    255e:	82 e0       	ldi	r24, 0x02	; 2
    2560:	0e 94 ff 01 	call	0x3fe	; 0x3fe <LCD_WriteData>
	LCD_Cursor(cur++);
    2564:	84 e1       	ldi	r24, 0x14	; 20
    2566:	0e 94 e8 01 	call	0x3d0	; 0x3d0 <LCD_Cursor>
	LCD_WriteData(3);
    256a:	83 e0       	ldi	r24, 0x03	; 3
    256c:	0e 94 ff 01 	call	0x3fe	; 0x3fe <LCD_WriteData>
	LCD_Cursor(cur++);
    2570:	85 e1       	ldi	r24, 0x15	; 21
    2572:	0e 94 e8 01 	call	0x3d0	; 0x3d0 <LCD_Cursor>
	LCD_WriteData(' ');
    2576:	80 e2       	ldi	r24, 0x20	; 32
    2578:	0e 94 ff 01 	call	0x3fe	; 0x3fe <LCD_WriteData>
	LCD_Cursor(cur++);
    257c:	86 e1       	ldi	r24, 0x16	; 22
    257e:	0e 94 e8 01 	call	0x3d0	; 0x3d0 <LCD_Cursor>
	LCD_WriteData(' ');
    2582:	80 e2       	ldi	r24, 0x20	; 32
    2584:	0e 94 ff 01 	call	0x3fe	; 0x3fe <LCD_WriteData>
	LCD_Cursor(cur++);
    2588:	87 e1       	ldi	r24, 0x17	; 23
    258a:	0e 94 e8 01 	call	0x3d0	; 0x3d0 <LCD_Cursor>
	LCD_WriteData(' ');
    258e:	80 e2       	ldi	r24, 0x20	; 32
    2590:	0e 94 ff 01 	call	0x3fe	; 0x3fe <LCD_WriteData>
	LCD_Cursor(cur++);
    2594:	88 e1       	ldi	r24, 0x18	; 24
    2596:	0e 94 e8 01 	call	0x3d0	; 0x3d0 <LCD_Cursor>
	LCD_WriteData(' ');
    259a:	80 e2       	ldi	r24, 0x20	; 32
    259c:	0e 94 ff 01 	call	0x3fe	; 0x3fe <LCD_WriteData>
	LCD_Cursor(cur++);
    25a0:	89 e1       	ldi	r24, 0x19	; 25
    25a2:	0e 94 e8 01 	call	0x3d0	; 0x3d0 <LCD_Cursor>
	LCD_WriteData(' ');
    25a6:	80 e2       	ldi	r24, 0x20	; 32
    25a8:	0e 94 ff 01 	call	0x3fe	; 0x3fe <LCD_WriteData>
	LCD_Cursor(cur++);
    25ac:	8a e1       	ldi	r24, 0x1A	; 26
    25ae:	0e 94 e8 01 	call	0x3d0	; 0x3d0 <LCD_Cursor>
	LCD_WriteData('2');
    25b2:	82 e3       	ldi	r24, 0x32	; 50
    25b4:	0e 94 ff 01 	call	0x3fe	; 0x3fe <LCD_WriteData>
	LCD_Cursor(cur++);
    25b8:	8b e1       	ldi	r24, 0x1B	; 27
    25ba:	0e 94 e8 01 	call	0x3d0	; 0x3d0 <LCD_Cursor>
	LCD_WriteData('P');
    25be:	80 e5       	ldi	r24, 0x50	; 80
    25c0:	0e 94 ff 01 	call	0x3fe	; 0x3fe <LCD_WriteData>
	LCD_Cursor(cur++);
    25c4:	8c e1       	ldi	r24, 0x1C	; 28
    25c6:	0e 94 e8 01 	call	0x3d0	; 0x3d0 <LCD_Cursor>
	LCD_WriteData('L');
    25ca:	8c e4       	ldi	r24, 0x4C	; 76
    25cc:	0e 94 ff 01 	call	0x3fe	; 0x3fe <LCD_WriteData>
	LCD_Cursor(cur++);
    25d0:	8d e1       	ldi	r24, 0x1D	; 29
    25d2:	0e 94 e8 01 	call	0x3d0	; 0x3d0 <LCD_Cursor>
	LCD_WriteData('A');
    25d6:	81 e4       	ldi	r24, 0x41	; 65
    25d8:	0e 94 ff 01 	call	0x3fe	; 0x3fe <LCD_WriteData>
	LCD_Cursor(cur++);
    25dc:	8e e1       	ldi	r24, 0x1E	; 30
    25de:	0e 94 e8 01 	call	0x3d0	; 0x3d0 <LCD_Cursor>
	LCD_WriteData('Y');
    25e2:	89 e5       	ldi	r24, 0x59	; 89
    25e4:	0e 94 ff 01 	call	0x3fe	; 0x3fe <LCD_WriteData>
	LCD_Cursor(cur++);
    25e8:	8f e1       	ldi	r24, 0x1F	; 31
    25ea:	0e 94 e8 01 	call	0x3d0	; 0x3d0 <LCD_Cursor>
	LCD_WriteData('E');
    25ee:	85 e4       	ldi	r24, 0x45	; 69
    25f0:	0e 94 ff 01 	call	0x3fe	; 0x3fe <LCD_WriteData>
	LCD_Cursor(cur++);
    25f4:	80 e2       	ldi	r24, 0x20	; 32
    25f6:	0e 94 e8 01 	call	0x3d0	; 0x3d0 <LCD_Cursor>
	LCD_WriteData('R');
    25fa:	82 e5       	ldi	r24, 0x52	; 82
    25fc:	0e 94 ff 01 	call	0x3fe	; 0x3fe <LCD_WriteData>
}
    2600:	a0 96       	adiw	r28, 0x20	; 32
    2602:	0f b6       	in	r0, 0x3f	; 63
    2604:	f8 94       	cli
    2606:	de bf       	out	0x3e, r29	; 62
    2608:	0f be       	out	0x3f, r0	; 63
    260a:	cd bf       	out	0x3d, r28	; 61
    260c:	df 91       	pop	r29
    260e:	cf 91       	pop	r28
    2610:	08 95       	ret

00002612 <displayMenu>:
	// PINA: 1 right
	// PINA: 2 down
	// PINA: 3 left
	// PINA: 4 select
	
	score = 0;
    2612:	10 92 2f 06 	sts	0x062F, r1	; 0x80062f <score>
	
	switch(mm){			// transitions
    2616:	80 91 33 08 	lds	r24, 0x0833	; 0x800833 <mm>
    261a:	82 30       	cpi	r24, 0x02	; 2
    261c:	31 f1       	breq	.+76     	; 0x266a <displayMenu+0x58>
    261e:	28 f4       	brcc	.+10     	; 0x262a <displayMenu+0x18>
    2620:	88 23       	and	r24, r24
    2622:	49 f0       	breq	.+18     	; 0x2636 <displayMenu+0x24>
    2624:	81 30       	cpi	r24, 0x01	; 1
    2626:	59 f0       	breq	.+22     	; 0x263e <displayMenu+0x2c>
    2628:	58 c0       	rjmp	.+176    	; 0x26da <displayMenu+0xc8>
    262a:	83 30       	cpi	r24, 0x03	; 3
    262c:	a1 f1       	breq	.+104    	; 0x2696 <displayMenu+0x84>
    262e:	84 30       	cpi	r24, 0x04	; 4
    2630:	09 f4       	brne	.+2      	; 0x2634 <displayMenu+0x22>
    2632:	47 c0       	rjmp	.+142    	; 0x26c2 <displayMenu+0xb0>
    2634:	52 c0       	rjmp	.+164    	; 0x26da <displayMenu+0xc8>
		case init:
			mm = topLeft;
    2636:	81 e0       	ldi	r24, 0x01	; 1
    2638:	80 93 33 08 	sts	0x0833, r24	; 0x800833 <mm>
		break;
    263c:	54 c0       	rjmp	.+168    	; 0x26e6 <displayMenu+0xd4>
		case topLeft:
			if(!GetBit(PINA, 1)){
    263e:	01 99       	sbic	0x00, 1	; 0
    2640:	04 c0       	rjmp	.+8      	; 0x264a <displayMenu+0x38>
				mm = topRight;
    2642:	82 e0       	ldi	r24, 0x02	; 2
    2644:	80 93 33 08 	sts	0x0833, r24	; 0x800833 <mm>
    2648:	50 c0       	rjmp	.+160    	; 0x26ea <displayMenu+0xd8>
			}
			else if(!GetBit(PINA, 2)){
    264a:	02 99       	sbic	0x00, 2	; 0
    264c:	04 c0       	rjmp	.+8      	; 0x2656 <displayMenu+0x44>
				mm = bottomLeft;
    264e:	83 e0       	ldi	r24, 0x03	; 3
    2650:	80 93 33 08 	sts	0x0833, r24	; 0x800833 <mm>
    2654:	4c c0       	rjmp	.+152    	; 0x26ee <displayMenu+0xdc>
			}
			else if(!GetBit(PINA, 4)){	// select "play"
    2656:	04 99       	sbic	0x00, 4	; 0
    2658:	46 c0       	rjmp	.+140    	; 0x26e6 <displayMenu+0xd4>
				while(!GetBit(PINA, 4));
    265a:	04 9b       	sbis	0x00, 4	; 0
    265c:	fe cf       	rjmp	.-4      	; 0x265a <displayMenu+0x48>
				inMenu = 0;
    265e:	10 92 04 01 	sts	0x0104, r1	; 0x800104 <inMenu>
				inGame = 1;
    2662:	81 e0       	ldi	r24, 0x01	; 1
    2664:	80 93 28 06 	sts	0x0628, r24	; 0x800628 <__data_end>
    2668:	3e c0       	rjmp	.+124    	; 0x26e6 <displayMenu+0xd4>
			else{
				mm = topLeft;
			}
		break;
		case topRight:
			if(!GetBit(PINA, 3)){	// left
    266a:	03 99       	sbic	0x00, 3	; 0
    266c:	04 c0       	rjmp	.+8      	; 0x2676 <displayMenu+0x64>
				mm = topLeft;
    266e:	81 e0       	ldi	r24, 0x01	; 1
    2670:	80 93 33 08 	sts	0x0833, r24	; 0x800833 <mm>
    2674:	38 c0       	rjmp	.+112    	; 0x26e6 <displayMenu+0xd4>
			}
			else if(!GetBit(PINA, 2)){	// down
    2676:	02 99       	sbic	0x00, 2	; 0
    2678:	04 c0       	rjmp	.+8      	; 0x2682 <displayMenu+0x70>
				mm = bottomRight;
    267a:	84 e0       	ldi	r24, 0x04	; 4
    267c:	80 93 33 08 	sts	0x0833, r24	; 0x800833 <mm>
    2680:	30 c0       	rjmp	.+96     	; 0x26e2 <displayMenu+0xd0>
			}
			else if(!GetBit(PINA, 4)){	// select 'difficulty'
    2682:	04 99       	sbic	0x00, 4	; 0
    2684:	32 c0       	rjmp	.+100    	; 0x26ea <displayMenu+0xd8>
				while(!GetBit(PINA, 4));	// wait for release
    2686:	04 9b       	sbis	0x00, 4	; 0
    2688:	fe cf       	rjmp	.-4      	; 0x2686 <displayMenu+0x74>
				inMenu = 0;	// no longer in menu
    268a:	10 92 04 01 	sts	0x0104, r1	; 0x800104 <inMenu>
				inDifficulty = 1;	// in difficulty menu
    268e:	81 e0       	ldi	r24, 0x01	; 1
    2690:	80 93 2a 06 	sts	0x062A, r24	; 0x80062a <inDifficulty>
    2694:	2a c0       	rjmp	.+84     	; 0x26ea <displayMenu+0xd8>
			else{
				mm = topRight;
			}
		break;
		case bottomLeft:
			if(!GetBit(PINA, 0)){
    2696:	00 99       	sbic	0x00, 0	; 0
    2698:	04 c0       	rjmp	.+8      	; 0x26a2 <displayMenu+0x90>
				mm = topLeft;
    269a:	81 e0       	ldi	r24, 0x01	; 1
    269c:	80 93 33 08 	sts	0x0833, r24	; 0x800833 <mm>
    26a0:	22 c0       	rjmp	.+68     	; 0x26e6 <displayMenu+0xd4>
			}
			else if(!GetBit(PINA, 1)){
    26a2:	01 99       	sbic	0x00, 1	; 0
    26a4:	04 c0       	rjmp	.+8      	; 0x26ae <displayMenu+0x9c>
				mm = bottomRight;
    26a6:	84 e0       	ldi	r24, 0x04	; 4
    26a8:	80 93 33 08 	sts	0x0833, r24	; 0x800833 <mm>
    26ac:	1a c0       	rjmp	.+52     	; 0x26e2 <displayMenu+0xd0>
			}
			else if(!GetBit(PINA, 4)){
    26ae:	04 99       	sbic	0x00, 4	; 0
    26b0:	1e c0       	rjmp	.+60     	; 0x26ee <displayMenu+0xdc>
				while(!GetBit(PINA, 4));
    26b2:	04 9b       	sbis	0x00, 4	; 0
    26b4:	fe cf       	rjmp	.-4      	; 0x26b2 <displayMenu+0xa0>
				inMenu = 0;
    26b6:	10 92 04 01 	sts	0x0104, r1	; 0x800104 <inMenu>
				inTime = 1;
    26ba:	81 e0       	ldi	r24, 0x01	; 1
    26bc:	80 93 29 06 	sts	0x0629, r24	; 0x800629 <inTime>
    26c0:	16 c0       	rjmp	.+44     	; 0x26ee <displayMenu+0xdc>
			else{
				mm = bottomLeft;
			}
		break;
		case bottomRight:
			if(!GetBit(PINA, 0)){
    26c2:	00 99       	sbic	0x00, 0	; 0
    26c4:	04 c0       	rjmp	.+8      	; 0x26ce <displayMenu+0xbc>
				mm = topRight;
    26c6:	82 e0       	ldi	r24, 0x02	; 2
    26c8:	80 93 33 08 	sts	0x0833, r24	; 0x800833 <mm>
    26cc:	0e c0       	rjmp	.+28     	; 0x26ea <displayMenu+0xd8>
			}
			else if(!GetBit(PINA, 3)){
    26ce:	03 99       	sbic	0x00, 3	; 0
    26d0:	08 c0       	rjmp	.+16     	; 0x26e2 <displayMenu+0xd0>
				mm = bottomLeft;
    26d2:	83 e0       	ldi	r24, 0x03	; 3
    26d4:	80 93 33 08 	sts	0x0833, r24	; 0x800833 <mm>
    26d8:	0a c0       	rjmp	.+20     	; 0x26ee <displayMenu+0xdc>
			else{
				mm = bottomRight;
			}
		break;
		default:
			mm = topLeft;
    26da:	81 e0       	ldi	r24, 0x01	; 1
    26dc:	80 93 33 08 	sts	0x0833, r24	; 0x800833 <mm>
		break;
    26e0:	02 c0       	rjmp	.+4      	; 0x26e6 <displayMenu+0xd4>
		break;
		case bottomLeft:
			dispBottomLeft();
		break;
		case bottomRight:
			dispBottomRight();
    26e2:	4c cd       	rjmp	.-1384   	; 0x217c <dispBottomRight>
	switch(mm){			// actions
		case init:
			dispTopLeft();
		break;
		case topLeft:
			dispTopLeft();
    26e4:	08 95       	ret
		break;
    26e6:	3b cc       	rjmp	.-1930   	; 0x1f5e <dispTopLeft>
		case topRight:
			dispTopRight();
    26e8:	08 95       	ret
		break;
    26ea:	f4 ca       	rjmp	.-2584   	; 0x1cd4 <dispTopRight>
		case bottomLeft:
			dispBottomLeft();
    26ec:	08 95       	ret
    26ee:	82 ce       	rjmp	.-764    	; 0x23f4 <dispBottomLeft>
    26f0:	08 95       	ret

000026f2 <SNES_init>:
		break;
	}
}

void SNES_init() {
	SNES_PORT |= (0x01 << CLOCK);
    26f2:	17 9a       	sbi	0x02, 7	; 2
	SNES_PORT |= (0x01 << LATCH);
    26f4:	16 9a       	sbi	0x02, 6	; 2
    26f6:	08 95       	ret

000026f8 <readSNES>:
}
unsigned char readSNES(){
	
	unsigned char data = 0x00;

	SNES_PORT |= (0x01 << LATCH);
    26f8:	16 9a       	sbi	0x02, 6	; 2
	SNES_PORT &= ~(0x01 << LATCH);
    26fa:	16 98       	cbi	0x02, 6	; 2
	// B, Y, SELECT, START, UP, DOWN, LEFT, RIGHT, A, X, L, R, NA, NA, NA, NA
	
	data = ((SNES_PIN & (0x01 << DATA)) >> DATA);
    26fc:	80 b1       	in	r24, 0x00	; 0
		PORTC = SNES_PIN;
	}
	

	return data;
}
    26fe:	85 fb       	bst	r24, 5
    2700:	88 27       	eor	r24, r24
    2702:	80 f9       	bld	r24, 0
    2704:	08 95       	ret

00002706 <eraseEEPROM>:
void eraseEEPROM(){
	unsigned char erase = 999;
	eeprom_write_word(&eeprom_array[0], erase);	// 
    2706:	67 ee       	ldi	r22, 0xE7	; 231
    2708:	70 e0       	ldi	r23, 0x00	; 0
    270a:	80 e0       	ldi	r24, 0x00	; 0
    270c:	90 e0       	ldi	r25, 0x00	; 0
    270e:	0e 94 c9 2f 	call	0x5f92	; 0x5f92 <eeprom_write_word>
	eeprom_write_word(&eeprom_array[1], erase);	// 
    2712:	67 ee       	ldi	r22, 0xE7	; 231
    2714:	70 e0       	ldi	r23, 0x00	; 0
    2716:	81 e0       	ldi	r24, 0x01	; 1
    2718:	90 e0       	ldi	r25, 0x00	; 0
    271a:	0e 94 c9 2f 	call	0x5f92	; 0x5f92 <eeprom_write_word>
	gameTime = erase;
    271e:	87 ee       	ldi	r24, 0xE7	; 231
    2720:	80 93 07 01 	sts	0x0107, r24	; 0x800107 <gameTime>
	difficulty = erase;
    2724:	80 93 08 01 	sts	0x0108, r24	; 0x800108 <difficulty>
    2728:	08 95       	ret

0000272a <error>:
}

void error(){
	nokia_lcd_clear();
    272a:	0e 94 7a 02 	call	0x4f4	; 0x4f4 <nokia_lcd_clear>
	nokia_lcd_write_string("Please set a difficulty and time!", 1);
    272e:	61 e0       	ldi	r22, 0x01	; 1
    2730:	89 eb       	ldi	r24, 0xB9	; 185
    2732:	95 e0       	ldi	r25, 0x05	; 5
    2734:	0e 94 62 03 	call	0x6c4	; 0x6c4 <nokia_lcd_write_string>
	nokia_lcd_render();
    2738:	0e 94 74 03 	call	0x6e8	; 0x6e8 <nokia_lcd_render>
	delay_ms(2000);
    273c:	80 ed       	ldi	r24, 0xD0	; 208
    273e:	97 e0       	ldi	r25, 0x07	; 7
    2740:	0c 94 c9 01 	jmp	0x392	; 0x392 <delay_ms>
    2744:	08 95       	ret

00002746 <endgame>:
}
void endgame(){
    2746:	0f 93       	push	r16
    2748:	1f 93       	push	r17
    274a:	cf 93       	push	r28
    274c:	df 93       	push	r29
	nokia_lcd_clear();
    274e:	0e 94 7a 02 	call	0x4f4	; 0x4f4 <nokia_lcd_clear>
	nokia_lcd_write_string("Game Over!", 1);
    2752:	61 e0       	ldi	r22, 0x01	; 1
    2754:	8b ed       	ldi	r24, 0xDB	; 219
    2756:	95 e0       	ldi	r25, 0x05	; 5
    2758:	0e 94 62 03 	call	0x6c4	; 0x6c4 <nokia_lcd_write_string>
		nokia_lcd_write_char(*str++, scale);
}

void nokia_lcd_set_cursor(uint8_t x, uint8_t y)
{
	nokia_lcd.cursor_x = x;
    275c:	10 92 28 08 	sts	0x0828, r1	; 0x800828 <nokia_lcd+0x1f8>
	nokia_lcd.cursor_y = y;
    2760:	8a e0       	ldi	r24, 0x0A	; 10
    2762:	80 93 29 08 	sts	0x0829, r24	; 0x800829 <nokia_lcd+0x1f9>
	nokia_lcd_set_cursor(0, 10);
	nokia_lcd_write_string("You scored ", 1);
    2766:	61 e0       	ldi	r22, 0x01	; 1
    2768:	86 ee       	ldi	r24, 0xE6	; 230
    276a:	95 e0       	ldi	r25, 0x05	; 5
    276c:	0e 94 62 03 	call	0x6c4	; 0x6c4 <nokia_lcd_write_string>
	if(score == 0)
    2770:	80 91 2f 06 	lds	r24, 0x062F	; 0x80062f <score>
    2774:	81 11       	cpse	r24, r1
    2776:	06 c0       	rjmp	.+12     	; 0x2784 <endgame+0x3e>
	nokia_lcd_write_string("0", 1);
    2778:	61 e0       	ldi	r22, 0x01	; 1
    277a:	85 e2       	ldi	r24, 0x25	; 37
    277c:	96 e0       	ldi	r25, 0x06	; 6
    277e:	0e 94 62 03 	call	0x6c4	; 0x6c4 <nokia_lcd_write_string>
    2782:	a5 c0       	rjmp	.+330    	; 0x28ce <endgame+0x188>
	else if(score == 1)
    2784:	81 30       	cpi	r24, 0x01	; 1
    2786:	31 f4       	brne	.+12     	; 0x2794 <endgame+0x4e>
	nokia_lcd_write_string("1", 1);
    2788:	61 e0       	ldi	r22, 0x01	; 1
    278a:	80 eb       	ldi	r24, 0xB0	; 176
    278c:	94 e0       	ldi	r25, 0x04	; 4
    278e:	0e 94 62 03 	call	0x6c4	; 0x6c4 <nokia_lcd_write_string>
    2792:	9d c0       	rjmp	.+314    	; 0x28ce <endgame+0x188>
	else if(score == 2)
    2794:	82 30       	cpi	r24, 0x02	; 2
    2796:	31 f4       	brne	.+12     	; 0x27a4 <endgame+0x5e>
	nokia_lcd_write_string("2", 1);
    2798:	61 e0       	ldi	r22, 0x01	; 1
    279a:	83 eb       	ldi	r24, 0xB3	; 179
    279c:	94 e0       	ldi	r25, 0x04	; 4
    279e:	0e 94 62 03 	call	0x6c4	; 0x6c4 <nokia_lcd_write_string>
    27a2:	95 c0       	rjmp	.+298    	; 0x28ce <endgame+0x188>
	else if(score == 3)
    27a4:	83 30       	cpi	r24, 0x03	; 3
    27a6:	31 f4       	brne	.+12     	; 0x27b4 <endgame+0x6e>
	nokia_lcd_write_string("3", 1);
    27a8:	61 e0       	ldi	r22, 0x01	; 1
    27aa:	86 eb       	ldi	r24, 0xB6	; 182
    27ac:	94 e0       	ldi	r25, 0x04	; 4
    27ae:	0e 94 62 03 	call	0x6c4	; 0x6c4 <nokia_lcd_write_string>
    27b2:	8d c0       	rjmp	.+282    	; 0x28ce <endgame+0x188>
	else if(score == 4)
    27b4:	84 30       	cpi	r24, 0x04	; 4
    27b6:	31 f4       	brne	.+12     	; 0x27c4 <endgame+0x7e>
	nokia_lcd_write_string("4", 1);
    27b8:	61 e0       	ldi	r22, 0x01	; 1
    27ba:	89 eb       	ldi	r24, 0xB9	; 185
    27bc:	94 e0       	ldi	r25, 0x04	; 4
    27be:	0e 94 62 03 	call	0x6c4	; 0x6c4 <nokia_lcd_write_string>
    27c2:	85 c0       	rjmp	.+266    	; 0x28ce <endgame+0x188>
	else if(score == 5)
    27c4:	85 30       	cpi	r24, 0x05	; 5
    27c6:	31 f4       	brne	.+12     	; 0x27d4 <endgame+0x8e>
	nokia_lcd_write_string("5", 1);
    27c8:	61 e0       	ldi	r22, 0x01	; 1
    27ca:	8c eb       	ldi	r24, 0xBC	; 188
    27cc:	94 e0       	ldi	r25, 0x04	; 4
    27ce:	0e 94 62 03 	call	0x6c4	; 0x6c4 <nokia_lcd_write_string>
    27d2:	7d c0       	rjmp	.+250    	; 0x28ce <endgame+0x188>
	else if(score == 6)
    27d4:	86 30       	cpi	r24, 0x06	; 6
    27d6:	31 f4       	brne	.+12     	; 0x27e4 <endgame+0x9e>
	nokia_lcd_write_string("6", 1);
    27d8:	61 e0       	ldi	r22, 0x01	; 1
    27da:	8f eb       	ldi	r24, 0xBF	; 191
    27dc:	94 e0       	ldi	r25, 0x04	; 4
    27de:	0e 94 62 03 	call	0x6c4	; 0x6c4 <nokia_lcd_write_string>
    27e2:	75 c0       	rjmp	.+234    	; 0x28ce <endgame+0x188>
	else if(score == 7)
    27e4:	87 30       	cpi	r24, 0x07	; 7
    27e6:	31 f4       	brne	.+12     	; 0x27f4 <endgame+0xae>
	nokia_lcd_write_string("7", 1);
    27e8:	61 e0       	ldi	r22, 0x01	; 1
    27ea:	82 ec       	ldi	r24, 0xC2	; 194
    27ec:	94 e0       	ldi	r25, 0x04	; 4
    27ee:	0e 94 62 03 	call	0x6c4	; 0x6c4 <nokia_lcd_write_string>
    27f2:	6d c0       	rjmp	.+218    	; 0x28ce <endgame+0x188>
	else if(score == 8)
    27f4:	88 30       	cpi	r24, 0x08	; 8
    27f6:	31 f4       	brne	.+12     	; 0x2804 <endgame+0xbe>
	nokia_lcd_write_string("8", 1);
    27f8:	61 e0       	ldi	r22, 0x01	; 1
    27fa:	85 ec       	ldi	r24, 0xC5	; 197
    27fc:	94 e0       	ldi	r25, 0x04	; 4
    27fe:	0e 94 62 03 	call	0x6c4	; 0x6c4 <nokia_lcd_write_string>
    2802:	65 c0       	rjmp	.+202    	; 0x28ce <endgame+0x188>
	else if(score == 9)
    2804:	89 30       	cpi	r24, 0x09	; 9
    2806:	31 f4       	brne	.+12     	; 0x2814 <endgame+0xce>
	nokia_lcd_write_string("9", 1);
    2808:	61 e0       	ldi	r22, 0x01	; 1
    280a:	88 ec       	ldi	r24, 0xC8	; 200
    280c:	94 e0       	ldi	r25, 0x04	; 4
    280e:	0e 94 62 03 	call	0x6c4	; 0x6c4 <nokia_lcd_write_string>
    2812:	5d c0       	rjmp	.+186    	; 0x28ce <endgame+0x188>
	else if(score == 10)
    2814:	8a 30       	cpi	r24, 0x0A	; 10
    2816:	31 f4       	brne	.+12     	; 0x2824 <endgame+0xde>
	nokia_lcd_write_string("10", 1);
    2818:	61 e0       	ldi	r22, 0x01	; 1
    281a:	8c ea       	ldi	r24, 0xAC	; 172
    281c:	94 e0       	ldi	r25, 0x04	; 4
    281e:	0e 94 62 03 	call	0x6c4	; 0x6c4 <nokia_lcd_write_string>
    2822:	55 c0       	rjmp	.+170    	; 0x28ce <endgame+0x188>
	else if(score == 11)
    2824:	8b 30       	cpi	r24, 0x0B	; 11
    2826:	31 f4       	brne	.+12     	; 0x2834 <endgame+0xee>
	nokia_lcd_write_string("11", 1);
    2828:	61 e0       	ldi	r22, 0x01	; 1
    282a:	8f ea       	ldi	r24, 0xAF	; 175
    282c:	94 e0       	ldi	r25, 0x04	; 4
    282e:	0e 94 62 03 	call	0x6c4	; 0x6c4 <nokia_lcd_write_string>
    2832:	4d c0       	rjmp	.+154    	; 0x28ce <endgame+0x188>
	else if(score == 12)
    2834:	8c 30       	cpi	r24, 0x0C	; 12
    2836:	31 f4       	brne	.+12     	; 0x2844 <endgame+0xfe>
	nokia_lcd_write_string("12", 1);
    2838:	61 e0       	ldi	r22, 0x01	; 1
    283a:	82 eb       	ldi	r24, 0xB2	; 178
    283c:	94 e0       	ldi	r25, 0x04	; 4
    283e:	0e 94 62 03 	call	0x6c4	; 0x6c4 <nokia_lcd_write_string>
    2842:	45 c0       	rjmp	.+138    	; 0x28ce <endgame+0x188>
	else if(score == 13)
    2844:	8d 30       	cpi	r24, 0x0D	; 13
    2846:	31 f4       	brne	.+12     	; 0x2854 <endgame+0x10e>
	nokia_lcd_write_string("13", 1);
    2848:	61 e0       	ldi	r22, 0x01	; 1
    284a:	85 eb       	ldi	r24, 0xB5	; 181
    284c:	94 e0       	ldi	r25, 0x04	; 4
    284e:	0e 94 62 03 	call	0x6c4	; 0x6c4 <nokia_lcd_write_string>
    2852:	3d c0       	rjmp	.+122    	; 0x28ce <endgame+0x188>
	else if(score == 14)
    2854:	8e 30       	cpi	r24, 0x0E	; 14
    2856:	31 f4       	brne	.+12     	; 0x2864 <endgame+0x11e>
	nokia_lcd_write_string("14", 1);
    2858:	61 e0       	ldi	r22, 0x01	; 1
    285a:	88 eb       	ldi	r24, 0xB8	; 184
    285c:	94 e0       	ldi	r25, 0x04	; 4
    285e:	0e 94 62 03 	call	0x6c4	; 0x6c4 <nokia_lcd_write_string>
    2862:	35 c0       	rjmp	.+106    	; 0x28ce <endgame+0x188>
	else if(score == 15)
    2864:	8f 30       	cpi	r24, 0x0F	; 15
    2866:	31 f4       	brne	.+12     	; 0x2874 <endgame+0x12e>
	nokia_lcd_write_string("15", 1);
    2868:	61 e0       	ldi	r22, 0x01	; 1
    286a:	8b eb       	ldi	r24, 0xBB	; 187
    286c:	94 e0       	ldi	r25, 0x04	; 4
    286e:	0e 94 62 03 	call	0x6c4	; 0x6c4 <nokia_lcd_write_string>
    2872:	2d c0       	rjmp	.+90     	; 0x28ce <endgame+0x188>
	else if(score == 16)
    2874:	80 31       	cpi	r24, 0x10	; 16
    2876:	31 f4       	brne	.+12     	; 0x2884 <endgame+0x13e>
	nokia_lcd_write_string("16", 1);
    2878:	61 e0       	ldi	r22, 0x01	; 1
    287a:	8e eb       	ldi	r24, 0xBE	; 190
    287c:	94 e0       	ldi	r25, 0x04	; 4
    287e:	0e 94 62 03 	call	0x6c4	; 0x6c4 <nokia_lcd_write_string>
    2882:	25 c0       	rjmp	.+74     	; 0x28ce <endgame+0x188>
	else if(score == 17)
    2884:	81 31       	cpi	r24, 0x11	; 17
    2886:	31 f4       	brne	.+12     	; 0x2894 <endgame+0x14e>
	nokia_lcd_write_string("17", 1);
    2888:	61 e0       	ldi	r22, 0x01	; 1
    288a:	81 ec       	ldi	r24, 0xC1	; 193
    288c:	94 e0       	ldi	r25, 0x04	; 4
    288e:	0e 94 62 03 	call	0x6c4	; 0x6c4 <nokia_lcd_write_string>
    2892:	1d c0       	rjmp	.+58     	; 0x28ce <endgame+0x188>
	else if(score == 18)
    2894:	82 31       	cpi	r24, 0x12	; 18
    2896:	31 f4       	brne	.+12     	; 0x28a4 <endgame+0x15e>
	nokia_lcd_write_string("18", 1);
    2898:	61 e0       	ldi	r22, 0x01	; 1
    289a:	84 ec       	ldi	r24, 0xC4	; 196
    289c:	94 e0       	ldi	r25, 0x04	; 4
    289e:	0e 94 62 03 	call	0x6c4	; 0x6c4 <nokia_lcd_write_string>
    28a2:	15 c0       	rjmp	.+42     	; 0x28ce <endgame+0x188>
	else if(score == 19)
    28a4:	83 31       	cpi	r24, 0x13	; 19
    28a6:	31 f4       	brne	.+12     	; 0x28b4 <endgame+0x16e>
	nokia_lcd_write_string("19", 1);
    28a8:	61 e0       	ldi	r22, 0x01	; 1
    28aa:	87 ec       	ldi	r24, 0xC7	; 199
    28ac:	94 e0       	ldi	r25, 0x04	; 4
    28ae:	0e 94 62 03 	call	0x6c4	; 0x6c4 <nokia_lcd_write_string>
    28b2:	0d c0       	rjmp	.+26     	; 0x28ce <endgame+0x188>
	else if(score == 20)
    28b4:	84 31       	cpi	r24, 0x14	; 20
    28b6:	31 f4       	brne	.+12     	; 0x28c4 <endgame+0x17e>
	nokia_lcd_write_string("20", 1);
    28b8:	61 e0       	ldi	r22, 0x01	; 1
    28ba:	8a ec       	ldi	r24, 0xCA	; 202
    28bc:	94 e0       	ldi	r25, 0x04	; 4
    28be:	0e 94 62 03 	call	0x6c4	; 0x6c4 <nokia_lcd_write_string>
    28c2:	05 c0       	rjmp	.+10     	; 0x28ce <endgame+0x188>
	else
	nokia_lcd_write_string("20+", 1);
    28c4:	61 e0       	ldi	r22, 0x01	; 1
    28c6:	82 ef       	ldi	r24, 0xF2	; 242
    28c8:	95 e0       	ldi	r25, 0x05	; 5
    28ca:	0e 94 62 03 	call	0x6c4	; 0x6c4 <nokia_lcd_write_string>
		nokia_lcd_write_char(*str++, scale);
}

void nokia_lcd_set_cursor(uint8_t x, uint8_t y)
{
	nokia_lcd.cursor_x = x;
    28ce:	08 e2       	ldi	r16, 0x28	; 40
    28d0:	18 e0       	ldi	r17, 0x08	; 8
    28d2:	f8 01       	movw	r30, r16
    28d4:	10 82       	st	Z, r1
	nokia_lcd.cursor_y = y;
    28d6:	c9 e2       	ldi	r28, 0x29	; 41
    28d8:	d8 e0       	ldi	r29, 0x08	; 8
    28da:	84 e1       	ldi	r24, 0x14	; 20
    28dc:	88 83       	st	Y, r24
	nokia_lcd_set_cursor(0, 20);
	nokia_lcd_write_string("Nice!", 1);
    28de:	61 e0       	ldi	r22, 0x01	; 1
    28e0:	86 ef       	ldi	r24, 0xF6	; 246
    28e2:	95 e0       	ldi	r25, 0x05	; 5
    28e4:	0e 94 62 03 	call	0x6c4	; 0x6c4 <nokia_lcd_write_string>
		nokia_lcd_write_char(*str++, scale);
}

void nokia_lcd_set_cursor(uint8_t x, uint8_t y)
{
	nokia_lcd.cursor_x = x;
    28e8:	f8 01       	movw	r30, r16
    28ea:	10 82       	st	Z, r1
	nokia_lcd.cursor_y = y;
    28ec:	8e e1       	ldi	r24, 0x1E	; 30
    28ee:	88 83       	st	Y, r24
	
	nokia_lcd_set_cursor(0, 30);
	nokia_lcd_write_string("Returning to main menu...", 1);
    28f0:	61 e0       	ldi	r22, 0x01	; 1
    28f2:	8c ef       	ldi	r24, 0xFC	; 252
    28f4:	95 e0       	ldi	r25, 0x05	; 5
    28f6:	0e 94 62 03 	call	0x6c4	; 0x6c4 <nokia_lcd_write_string>
	nokia_lcd_render();
    28fa:	0e 94 74 03 	call	0x6e8	; 0x6e8 <nokia_lcd_render>
	delay_ms(5000);
    28fe:	88 e8       	ldi	r24, 0x88	; 136
    2900:	93 e1       	ldi	r25, 0x13	; 19
    2902:	0e 94 c9 01 	call	0x392	; 0x392 <delay_ms>
}
    2906:	df 91       	pop	r29
    2908:	cf 91       	pop	r28
    290a:	1f 91       	pop	r17
    290c:	0f 91       	pop	r16
    290e:	08 95       	ret

00002910 <playQuestionEasy>:

void playQuestionEasy(struct questionEasy q){
    2910:	2f 92       	push	r2
    2912:	3f 92       	push	r3
    2914:	4f 92       	push	r4
    2916:	5f 92       	push	r5
    2918:	6f 92       	push	r6
    291a:	7f 92       	push	r7
    291c:	8f 92       	push	r8
    291e:	9f 92       	push	r9
    2920:	af 92       	push	r10
    2922:	bf 92       	push	r11
    2924:	cf 92       	push	r12
    2926:	df 92       	push	r13
    2928:	ef 92       	push	r14
    292a:	ff 92       	push	r15
    292c:	0f 93       	push	r16
    292e:	1f 93       	push	r17
    2930:	cf 93       	push	r28
    2932:	df 93       	push	r29
    2934:	cd b7       	in	r28, 0x3d	; 61
    2936:	de b7       	in	r29, 0x3e	; 62
    2938:	cf 56       	subi	r28, 0x6F	; 111
    293a:	d1 09       	sbc	r29, r1
    293c:	0f b6       	in	r0, 0x3f	; 63
    293e:	f8 94       	cli
    2940:	de bf       	out	0x3e, r29	; 62
    2942:	0f be       	out	0x3f, r0	; 63
    2944:	cd bf       	out	0x3d, r28	; 61
    2946:	a6 96       	adiw	r28, 0x26	; 38
    2948:	ef ae       	std	Y+63, r14	; 0x3f
    294a:	a6 97       	sbiw	r28, 0x26	; 38
    294c:	a7 96       	adiw	r28, 0x27	; 39
    294e:	ff ae       	std	Y+63, r15	; 0x3f
    2950:	a7 97       	sbiw	r28, 0x27	; 39
    2952:	a8 96       	adiw	r28, 0x28	; 40
    2954:	0f af       	std	Y+63, r16	; 0x3f
    2956:	a8 97       	sbiw	r28, 0x28	; 40
    2958:	a9 96       	adiw	r28, 0x29	; 41
    295a:	1f af       	std	Y+63, r17	; 0x3f
    295c:	a9 97       	sbiw	r28, 0x29	; 41
    295e:	aa 96       	adiw	r28, 0x2a	; 42
    2960:	2f af       	std	Y+63, r18	; 0x3f
    2962:	aa 97       	sbiw	r28, 0x2a	; 42
    2964:	ab 96       	adiw	r28, 0x2b	; 43
    2966:	3f af       	std	Y+63, r19	; 0x3f
    2968:	ab 97       	sbiw	r28, 0x2b	; 43
    296a:	ac 96       	adiw	r28, 0x2c	; 44
    296c:	4f af       	std	Y+63, r20	; 0x3f
    296e:	ac 97       	sbiw	r28, 0x2c	; 44
    2970:	ad 96       	adiw	r28, 0x2d	; 45
    2972:	5f af       	std	Y+63, r21	; 0x3f
    2974:	ad 97       	sbiw	r28, 0x2d	; 45
    2976:	ae 96       	adiw	r28, 0x2e	; 46
    2978:	6f af       	std	Y+63, r22	; 0x3f
    297a:	ae 97       	sbiw	r28, 0x2e	; 46
    297c:	af 96       	adiw	r28, 0x2f	; 47
    297e:	7f af       	std	Y+63, r23	; 0x3f
    2980:	af 97       	sbiw	r28, 0x2f	; 47
    2982:	e0 96       	adiw	r28, 0x30	; 48
    2984:	8f af       	std	Y+63, r24	; 0x3f
    2986:	e0 97       	sbiw	r28, 0x30	; 48
	
	char str[50];
	char str2[50];
	
	strcpy(str, q.n1);
    2988:	be 01       	movw	r22, r28
    298a:	6b 59       	subi	r22, 0x9B	; 155
    298c:	7f 4f       	sbci	r23, 0xFF	; 255
    298e:	8e 01       	movw	r16, r28
    2990:	0f 5f       	subi	r16, 0xFF	; 255
    2992:	1f 4f       	sbci	r17, 0xFF	; 255
    2994:	c8 01       	movw	r24, r16
    2996:	0e 94 bd 2f 	call	0x5f7a	; 0x5f7a <strcpy>
	strcat(str, " ");
    299a:	f8 01       	movw	r30, r16
    299c:	01 90       	ld	r0, Z+
    299e:	00 20       	and	r0, r0
    29a0:	e9 f7       	brne	.-6      	; 0x299c <playQuestionEasy+0x8c>
    29a2:	31 97       	sbiw	r30, 0x01	; 1
    29a4:	68 94       	set
    29a6:	ee 24       	eor	r14, r14
    29a8:	e5 f8       	bld	r14, 5
    29aa:	f1 2c       	mov	r15, r1
    29ac:	f1 82       	std	Z+1, r15	; 0x01
    29ae:	e0 82       	st	Z, r14
	strcat(str, q.n2);
    29b0:	65 e6       	ldi	r22, 0x65	; 101
    29b2:	70 e0       	ldi	r23, 0x00	; 0
    29b4:	6c 0f       	add	r22, r28
    29b6:	7d 1f       	adc	r23, r29
    29b8:	6d 5f       	subi	r22, 0xFD	; 253
    29ba:	7f 4f       	sbci	r23, 0xFF	; 255
    29bc:	c8 01       	movw	r24, r16
    29be:	0e 94 b2 2f 	call	0x5f64	; 0x5f64 <strcat>
	strcat(str, "=");
    29c2:	f8 01       	movw	r30, r16
    29c4:	01 90       	ld	r0, Z+
    29c6:	00 20       	and	r0, r0
    29c8:	e9 f7       	brne	.-6      	; 0x29c4 <playQuestionEasy+0xb4>
    29ca:	31 97       	sbiw	r30, 0x01	; 1
    29cc:	8d e3       	ldi	r24, 0x3D	; 61
    29ce:	90 e0       	ldi	r25, 0x00	; 0
    29d0:	91 83       	std	Z+1, r25	; 0x01
    29d2:	80 83       	st	Z, r24
	strcat(str, q.ans);
    29d4:	65 e6       	ldi	r22, 0x65	; 101
    29d6:	70 e0       	ldi	r23, 0x00	; 0
    29d8:	6c 0f       	add	r22, r28
    29da:	7d 1f       	adc	r23, r29
    29dc:	6a 5f       	subi	r22, 0xFA	; 250
    29de:	7f 4f       	sbci	r23, 0xFF	; 255
    29e0:	c8 01       	movw	r24, r16
    29e2:	0e 94 b2 2f 	call	0x5f64	; 0x5f64 <strcat>
	strcat(str, "            ");
    29e6:	d8 01       	movw	r26, r16
    29e8:	0d 90       	ld	r0, X+
    29ea:	00 20       	and	r0, r0
    29ec:	e9 f7       	brne	.-6      	; 0x29e8 <playQuestionEasy+0xd8>
    29ee:	11 97       	sbiw	r26, 0x01	; 1
    29f0:	8d e0       	ldi	r24, 0x0D	; 13
    29f2:	e6 e1       	ldi	r30, 0x16	; 22
    29f4:	f6 e0       	ldi	r31, 0x06	; 6
    29f6:	01 90       	ld	r0, Z+
    29f8:	0d 92       	st	X+, r0
    29fa:	8a 95       	dec	r24
    29fc:	e1 f7       	brne	.-8      	; 0x29f6 <playQuestionEasy+0xe6>
	
	strcpy(str2, " ");
    29fe:	fc aa       	std	Y+52, r15	; 0x34
    2a00:	eb aa       	std	Y+51, r14	; 0x33
	
	LCD_ClearScreen();
    2a02:	0e 94 e5 01 	call	0x3ca	; 0x3ca <LCD_ClearScreen>
	LCD_Cursor(1);
    2a06:	81 e0       	ldi	r24, 0x01	; 1
    2a08:	0e 94 e8 01 	call	0x3d0	; 0x3d0 <LCD_Cursor>
    2a0c:	7e 01       	movw	r14, r28
    2a0e:	80 e1       	ldi	r24, 0x10	; 16
    2a10:	e8 0e       	add	r14, r24
    2a12:	f1 1c       	adc	r15, r1
	int i, str2length;
	str2length = 1;
	for(i = 0; i < 15; i++) {
		LCD_WriteData(str[i]);
    2a14:	f8 01       	movw	r30, r16
    2a16:	81 91       	ld	r24, Z+
    2a18:	8f 01       	movw	r16, r30
    2a1a:	0e 94 ff 01 	call	0x3fe	; 0x3fe <LCD_WriteData>
	
	LCD_ClearScreen();
	LCD_Cursor(1);
	int i, str2length;
	str2length = 1;
	for(i = 0; i < 15; i++) {
    2a1e:	e0 16       	cp	r14, r16
    2a20:	f1 06       	cpc	r15, r17
    2a22:	c1 f7       	brne	.-16     	; 0x2a14 <playQuestionEasy+0x104>
		LCD_WriteData(str[i]);
	}
	LCD_Cursor(17);
    2a24:	81 e1       	ldi	r24, 0x11	; 17
    2a26:	0e 94 e8 01 	call	0x3d0	; 0x3d0 <LCD_Cursor>
	unsigned char questionCorrect = 0x00;
    2a2a:	31 2c       	mov	r3, r1
	strcpy(str2, " ");
	
	LCD_ClearScreen();
	LCD_Cursor(1);
	int i, str2length;
	str2length = 1;
    2a2c:	01 e0       	ldi	r16, 0x01	; 1
    2a2e:	10 e0       	ldi	r17, 0x00	; 0
			while(!GetBit(PINA, 0));
			if(q.qid == 0 || q.qid == 6
			|| q.qid == 7 || q.qid == 11
			|| q.qid == 19 || q.qid == 20)
				questionCorrect++;
			strcat(str2, "+ ");
    2a30:	6e 01       	movw	r12, r28
    2a32:	f3 e3       	ldi	r31, 0x33	; 51
    2a34:	cf 0e       	add	r12, r31
    2a36:	d1 1c       	adc	r13, r1
    2a38:	0f 2e       	mov	r0, r31
    2a3a:	fb e2       	ldi	r31, 0x2B	; 43
    2a3c:	af 2e       	mov	r10, r31
    2a3e:	f0 e2       	ldi	r31, 0x20	; 32
    2a40:	bf 2e       	mov	r11, r31
    2a42:	f0 2d       	mov	r31, r0
			while(!GetBit(PINA, 1));
			if(q.qid == 3 || q.qid == 4
			|| q.qid == 12 || q.qid == 17
			|| q.qid == 18)
				questionCorrect++;
			strcat(str2, "- ");
    2a44:	0f 2e       	mov	r0, r31
    2a46:	fd e2       	ldi	r31, 0x2D	; 45
    2a48:	8f 2e       	mov	r8, r31
    2a4a:	f0 e2       	ldi	r31, 0x20	; 32
    2a4c:	9f 2e       	mov	r9, r31
    2a4e:	f0 2d       	mov	r31, r0
			while(!GetBit(PINA, 2));
			if(q.qid == 2 || q.qid == 10
			|| q.qid == 13 || q.qid == 14
			|| q.qid == 15 || q.qid == 16)
				questionCorrect++;
			strcat(str2, "/ ");
    2a50:	0f 2e       	mov	r0, r31
    2a52:	ff e2       	ldi	r31, 0x2F	; 47
    2a54:	6f 2e       	mov	r6, r31
    2a56:	f0 e2       	ldi	r31, 0x20	; 32
    2a58:	7f 2e       	mov	r7, r31
    2a5a:	f0 2d       	mov	r31, r0
		else if(!GetBit(PINA, 3)){
			while(!GetBit(PINA, 3));
			if(q.qid == 1 || q.qid == 5
			|| q.qid == 8 || q.qid == 9)
				questionCorrect++;
			strcat(str2, "* ");
    2a5c:	0f 2e       	mov	r0, r31
    2a5e:	fa e2       	ldi	r31, 0x2A	; 42
    2a60:	4f 2e       	mov	r4, r31
    2a62:	f0 e2       	ldi	r31, 0x20	; 32
    2a64:	5f 2e       	mov	r5, r31
    2a66:	f0 2d       	mov	r31, r0
			secPassed++;
			timeRemaining = 0;
		}
		else
		timeRemaining++;
		nokia_lcd_ingame(score, gameTime-secPassed);
    2a68:	0f 2e       	mov	r0, r31
    2a6a:	fb e2       	ldi	r31, 0x2B	; 43
    2a6c:	ef 2e       	mov	r14, r31
    2a6e:	f6 e0       	ldi	r31, 0x06	; 6
    2a70:	ff 2e       	mov	r15, r31
    2a72:	f0 2d       	mov	r31, r0
		//delay_ms(500);		// change this to not mess with timing
		if(secPassed >= gameTime){
			endgame();
			inGame = 0;
			inMenu = 1;
    2a74:	22 24       	eor	r2, r2
    2a76:	23 94       	inc	r2
	// PINA: 2 down
	// PINA: 3 left
	// PINA: 4 select
	while (str2length < 2)
	{
		if(!GetBit(PINA, 0)){
    2a78:	00 99       	sbic	0x00, 0	; 0
    2a7a:	20 c0       	rjmp	.+64     	; 0x2abc <playQuestionEasy+0x1ac>
			while(!GetBit(PINA, 0));
    2a7c:	00 9b       	sbis	0x00, 0	; 0
    2a7e:	fe cf       	rjmp	.-4      	; 0x2a7c <playQuestionEasy+0x16c>
			if(q.qid == 0 || q.qid == 6
    2a80:	e0 96       	adiw	r28, 0x30	; 48
    2a82:	8e ad       	ldd	r24, Y+62	; 0x3e
    2a84:	9f ad       	ldd	r25, Y+63	; 0x3f
    2a86:	e0 97       	sbiw	r28, 0x30	; 48
    2a88:	00 97       	sbiw	r24, 0x00	; 0
    2a8a:	61 f0       	breq	.+24     	; 0x2aa4 <playQuestionEasy+0x194>
    2a8c:	9c 01       	movw	r18, r24
    2a8e:	26 50       	subi	r18, 0x06	; 6
    2a90:	31 09       	sbc	r19, r1
    2a92:	22 30       	cpi	r18, 0x02	; 2
    2a94:	31 05       	cpc	r19, r1
    2a96:	30 f0       	brcs	.+12     	; 0x2aa4 <playQuestionEasy+0x194>
			|| q.qid == 7 || q.qid == 11
    2a98:	8b 30       	cpi	r24, 0x0B	; 11
    2a9a:	91 05       	cpc	r25, r1
    2a9c:	19 f0       	breq	.+6      	; 0x2aa4 <playQuestionEasy+0x194>
			|| q.qid == 19 || q.qid == 20)
    2a9e:	43 97       	sbiw	r24, 0x13	; 19
    2aa0:	02 97       	sbiw	r24, 0x02	; 2
    2aa2:	08 f4       	brcc	.+2      	; 0x2aa6 <playQuestionEasy+0x196>
				questionCorrect++;
    2aa4:	33 94       	inc	r3
			strcat(str2, "+ ");
    2aa6:	f6 01       	movw	r30, r12
    2aa8:	01 90       	ld	r0, Z+
    2aaa:	00 20       	and	r0, r0
    2aac:	e9 f7       	brne	.-6      	; 0x2aa8 <playQuestionEasy+0x198>
    2aae:	31 97       	sbiw	r30, 0x01	; 1
    2ab0:	b1 82       	std	Z+1, r11	; 0x01
    2ab2:	a0 82       	st	Z, r10
    2ab4:	12 82       	std	Z+2, r1	; 0x02
			str2length++;
    2ab6:	0f 5f       	subi	r16, 0xFF	; 255
    2ab8:	1f 4f       	sbci	r17, 0xFF	; 255
    2aba:	57 c0       	rjmp	.+174    	; 0x2b6a <playQuestionEasy+0x25a>
		}
		else if(!GetBit(PINA, 1)){
    2abc:	01 99       	sbic	0x00, 1	; 0
    2abe:	1e c0       	rjmp	.+60     	; 0x2afc <playQuestionEasy+0x1ec>
			while(!GetBit(PINA, 1));
    2ac0:	01 9b       	sbis	0x00, 1	; 0
    2ac2:	fe cf       	rjmp	.-4      	; 0x2ac0 <playQuestionEasy+0x1b0>
			if(q.qid == 3 || q.qid == 4
    2ac4:	e0 96       	adiw	r28, 0x30	; 48
    2ac6:	8e ad       	ldd	r24, Y+62	; 0x3e
    2ac8:	9f ad       	ldd	r25, Y+63	; 0x3f
    2aca:	e0 97       	sbiw	r28, 0x30	; 48
    2acc:	9c 01       	movw	r18, r24
    2ace:	23 50       	subi	r18, 0x03	; 3
    2ad0:	31 09       	sbc	r19, r1
    2ad2:	22 30       	cpi	r18, 0x02	; 2
    2ad4:	31 05       	cpc	r19, r1
    2ad6:	30 f0       	brcs	.+12     	; 0x2ae4 <playQuestionEasy+0x1d4>
			|| q.qid == 12 || q.qid == 17
    2ad8:	8c 30       	cpi	r24, 0x0C	; 12
    2ada:	91 05       	cpc	r25, r1
    2adc:	19 f0       	breq	.+6      	; 0x2ae4 <playQuestionEasy+0x1d4>
    2ade:	41 97       	sbiw	r24, 0x11	; 17
    2ae0:	02 97       	sbiw	r24, 0x02	; 2
    2ae2:	08 f4       	brcc	.+2      	; 0x2ae6 <playQuestionEasy+0x1d6>
			|| q.qid == 18)
				questionCorrect++;
    2ae4:	33 94       	inc	r3
			strcat(str2, "- ");
    2ae6:	f6 01       	movw	r30, r12
    2ae8:	01 90       	ld	r0, Z+
    2aea:	00 20       	and	r0, r0
    2aec:	e9 f7       	brne	.-6      	; 0x2ae8 <playQuestionEasy+0x1d8>
    2aee:	31 97       	sbiw	r30, 0x01	; 1
    2af0:	91 82       	std	Z+1, r9	; 0x01
    2af2:	80 82       	st	Z, r8
    2af4:	12 82       	std	Z+2, r1	; 0x02
			str2length++;
    2af6:	0f 5f       	subi	r16, 0xFF	; 255
    2af8:	1f 4f       	sbci	r17, 0xFF	; 255
    2afa:	37 c0       	rjmp	.+110    	; 0x2b6a <playQuestionEasy+0x25a>
		}
		else if(!GetBit(PINA, 2)){
    2afc:	02 99       	sbic	0x00, 2	; 0
    2afe:	1a c0       	rjmp	.+52     	; 0x2b34 <playQuestionEasy+0x224>
			while(!GetBit(PINA, 2));
    2b00:	02 9b       	sbis	0x00, 2	; 0
    2b02:	fe cf       	rjmp	.-4      	; 0x2b00 <playQuestionEasy+0x1f0>
			if(q.qid == 2 || q.qid == 10
    2b04:	e0 96       	adiw	r28, 0x30	; 48
    2b06:	8e ad       	ldd	r24, Y+62	; 0x3e
    2b08:	9f ad       	ldd	r25, Y+63	; 0x3f
    2b0a:	e0 97       	sbiw	r28, 0x30	; 48
    2b0c:	9c 01       	movw	r18, r24
    2b0e:	27 7f       	andi	r18, 0xF7	; 247
    2b10:	22 30       	cpi	r18, 0x02	; 2
    2b12:	31 05       	cpc	r19, r1
    2b14:	19 f0       	breq	.+6      	; 0x2b1c <playQuestionEasy+0x20c>
			|| q.qid == 13 || q.qid == 14
    2b16:	0d 97       	sbiw	r24, 0x0d	; 13
    2b18:	04 97       	sbiw	r24, 0x04	; 4
    2b1a:	08 f4       	brcc	.+2      	; 0x2b1e <playQuestionEasy+0x20e>
			|| q.qid == 15 || q.qid == 16)
				questionCorrect++;
    2b1c:	33 94       	inc	r3
			strcat(str2, "/ ");
    2b1e:	f6 01       	movw	r30, r12
    2b20:	01 90       	ld	r0, Z+
    2b22:	00 20       	and	r0, r0
    2b24:	e9 f7       	brne	.-6      	; 0x2b20 <playQuestionEasy+0x210>
    2b26:	31 97       	sbiw	r30, 0x01	; 1
    2b28:	71 82       	std	Z+1, r7	; 0x01
    2b2a:	60 82       	st	Z, r6
    2b2c:	12 82       	std	Z+2, r1	; 0x02
			str2length++;
    2b2e:	0f 5f       	subi	r16, 0xFF	; 255
    2b30:	1f 4f       	sbci	r17, 0xFF	; 255
    2b32:	1b c0       	rjmp	.+54     	; 0x2b6a <playQuestionEasy+0x25a>
		}
		else if(!GetBit(PINA, 3)){
    2b34:	03 99       	sbic	0x00, 3	; 0
    2b36:	19 c0       	rjmp	.+50     	; 0x2b6a <playQuestionEasy+0x25a>
			while(!GetBit(PINA, 3));
    2b38:	03 9b       	sbis	0x00, 3	; 0
    2b3a:	fe cf       	rjmp	.-4      	; 0x2b38 <playQuestionEasy+0x228>
			if(q.qid == 1 || q.qid == 5
    2b3c:	e0 96       	adiw	r28, 0x30	; 48
    2b3e:	8e ad       	ldd	r24, Y+62	; 0x3e
    2b40:	9f ad       	ldd	r25, Y+63	; 0x3f
    2b42:	e0 97       	sbiw	r28, 0x30	; 48
    2b44:	9c 01       	movw	r18, r24
    2b46:	2b 7f       	andi	r18, 0xFB	; 251
    2b48:	21 30       	cpi	r18, 0x01	; 1
    2b4a:	31 05       	cpc	r19, r1
    2b4c:	19 f0       	breq	.+6      	; 0x2b54 <playQuestionEasy+0x244>
			|| q.qid == 8 || q.qid == 9)
    2b4e:	08 97       	sbiw	r24, 0x08	; 8
    2b50:	02 97       	sbiw	r24, 0x02	; 2
    2b52:	08 f4       	brcc	.+2      	; 0x2b56 <playQuestionEasy+0x246>
				questionCorrect++;
    2b54:	33 94       	inc	r3
			strcat(str2, "* ");
    2b56:	f6 01       	movw	r30, r12
    2b58:	01 90       	ld	r0, Z+
    2b5a:	00 20       	and	r0, r0
    2b5c:	e9 f7       	brne	.-6      	; 0x2b58 <playQuestionEasy+0x248>
    2b5e:	31 97       	sbiw	r30, 0x01	; 1
    2b60:	51 82       	std	Z+1, r5	; 0x01
    2b62:	40 82       	st	Z, r4
    2b64:	12 82       	std	Z+2, r1	; 0x02
			str2length++;
    2b66:	0f 5f       	subi	r16, 0xFF	; 255
    2b68:	1f 4f       	sbci	r17, 0xFF	; 255
		}
		if(timeRemaining >= period1second){
    2b6a:	80 91 2d 06 	lds	r24, 0x062D	; 0x80062d <timeRemaining>
    2b6e:	90 91 2e 06 	lds	r25, 0x062E	; 0x80062e <timeRemaining+0x1>
    2b72:	20 91 05 01 	lds	r18, 0x0105	; 0x800105 <period1second>
    2b76:	30 91 06 01 	lds	r19, 0x0106	; 0x800106 <period1second+0x1>
    2b7a:	82 17       	cp	r24, r18
    2b7c:	93 07       	cpc	r25, r19
    2b7e:	70 f0       	brcs	.+28     	; 0x2b9c <playQuestionEasy+0x28c>
			secPassed++;
    2b80:	80 91 2b 06 	lds	r24, 0x062B	; 0x80062b <secPassed>
    2b84:	90 91 2c 06 	lds	r25, 0x062C	; 0x80062c <secPassed+0x1>
    2b88:	01 96       	adiw	r24, 0x01	; 1
    2b8a:	90 93 2c 06 	sts	0x062C, r25	; 0x80062c <secPassed+0x1>
    2b8e:	80 93 2b 06 	sts	0x062B, r24	; 0x80062b <secPassed>
			timeRemaining = 0;
    2b92:	10 92 2e 06 	sts	0x062E, r1	; 0x80062e <timeRemaining+0x1>
    2b96:	10 92 2d 06 	sts	0x062D, r1	; 0x80062d <timeRemaining>
    2b9a:	05 c0       	rjmp	.+10     	; 0x2ba6 <playQuestionEasy+0x296>
		}
		else
		timeRemaining++;
    2b9c:	01 96       	adiw	r24, 0x01	; 1
    2b9e:	90 93 2e 06 	sts	0x062E, r25	; 0x80062e <timeRemaining+0x1>
    2ba2:	80 93 2d 06 	sts	0x062D, r24	; 0x80062d <timeRemaining>
		nokia_lcd_ingame(score, gameTime-secPassed);
    2ba6:	60 91 07 01 	lds	r22, 0x0107	; 0x800107 <gameTime>
    2baa:	f7 01       	movw	r30, r14
    2bac:	80 81       	ld	r24, Z
    2bae:	68 1b       	sub	r22, r24
    2bb0:	80 91 2f 06 	lds	r24, 0x062F	; 0x80062f <score>
    2bb4:	0e 94 f3 03 	call	0x7e6	; 0x7e6 <nokia_lcd_ingame>
		//delay_ms(500);		// change this to not mess with timing
		if(secPassed >= gameTime){
    2bb8:	80 91 07 01 	lds	r24, 0x0107	; 0x800107 <gameTime>
    2bbc:	90 e0       	ldi	r25, 0x00	; 0
    2bbe:	20 91 2b 06 	lds	r18, 0x062B	; 0x80062b <secPassed>
    2bc2:	30 91 2c 06 	lds	r19, 0x062C	; 0x80062c <secPassed+0x1>
    2bc6:	28 17       	cp	r18, r24
    2bc8:	39 07       	cpc	r19, r25
    2bca:	2c f0       	brlt	.+10     	; 0x2bd6 <playQuestionEasy+0x2c6>
			endgame();
    2bcc:	bc dd       	rcall	.-1160   	; 0x2746 <endgame>
			inGame = 0;
    2bce:	10 92 28 06 	sts	0x0628, r1	; 0x800628 <__data_end>
			inMenu = 1;
    2bd2:	20 92 04 01 	sts	0x0104, r2	; 0x800104 <inMenu>
	// PINA: 0 up
	// PINA: 1 right
	// PINA: 2 down
	// PINA: 3 left
	// PINA: 4 select
	while (str2length < 2)
    2bd6:	02 30       	cpi	r16, 0x02	; 2
    2bd8:	11 05       	cpc	r17, r1
    2bda:	0c f4       	brge	.+2      	; 0x2bde <playQuestionEasy+0x2ce>
    2bdc:	4d cf       	rjmp	.-358    	; 0x2a78 <playQuestionEasy+0x168>
			endgame();
			inGame = 0;
			inMenu = 1;
		}
	}
	for(i = 0; i < str2length; i++) {
    2bde:	10 16       	cp	r1, r16
    2be0:	11 06       	cpc	r1, r17
    2be2:	74 f4       	brge	.+28     	; 0x2c00 <playQuestionEasy+0x2f0>
    2be4:	7e 01       	movw	r14, r28
    2be6:	f3 e3       	ldi	r31, 0x33	; 51
    2be8:	ef 0e       	add	r14, r31
    2bea:	f1 1c       	adc	r15, r1
    2bec:	0e 0d       	add	r16, r14
    2bee:	1f 1d       	adc	r17, r15
		LCD_WriteData(str2[i]);
    2bf0:	f7 01       	movw	r30, r14
    2bf2:	81 91       	ld	r24, Z+
    2bf4:	7f 01       	movw	r14, r30
    2bf6:	0e 94 ff 01 	call	0x3fe	; 0x3fe <LCD_WriteData>
			endgame();
			inGame = 0;
			inMenu = 1;
		}
	}
	for(i = 0; i < str2length; i++) {
    2bfa:	e0 16       	cp	r14, r16
    2bfc:	f1 06       	cpc	r15, r17
    2bfe:	c1 f7       	brne	.-16     	; 0x2bf0 <playQuestionEasy+0x2e0>
		LCD_WriteData(str2[i]);
	}
	if(questionCorrect == 0x01){
    2c00:	f1 e0       	ldi	r31, 0x01	; 1
    2c02:	3f 12       	cpse	r3, r31
    2c04:	06 c0       	rjmp	.+12     	; 0x2c12 <playQuestionEasy+0x302>
		score++;
    2c06:	80 91 2f 06 	lds	r24, 0x062F	; 0x80062f <score>
    2c0a:	8f 5f       	subi	r24, 0xFF	; 255
    2c0c:	80 93 2f 06 	sts	0x062F, r24	; 0x80062f <score>
    2c10:	05 c0       	rjmp	.+10     	; 0x2c1c <playQuestionEasy+0x30c>
	}
	else{
		score--;
    2c12:	80 91 2f 06 	lds	r24, 0x062F	; 0x80062f <score>
    2c16:	81 50       	subi	r24, 0x01	; 1
    2c18:	80 93 2f 06 	sts	0x062F, r24	; 0x80062f <score>
	}
}
    2c1c:	c1 59       	subi	r28, 0x91	; 145
    2c1e:	df 4f       	sbci	r29, 0xFF	; 255
    2c20:	0f b6       	in	r0, 0x3f	; 63
    2c22:	f8 94       	cli
    2c24:	de bf       	out	0x3e, r29	; 62
    2c26:	0f be       	out	0x3f, r0	; 63
    2c28:	cd bf       	out	0x3d, r28	; 61
    2c2a:	df 91       	pop	r29
    2c2c:	cf 91       	pop	r28
    2c2e:	1f 91       	pop	r17
    2c30:	0f 91       	pop	r16
    2c32:	ff 90       	pop	r15
    2c34:	ef 90       	pop	r14
    2c36:	df 90       	pop	r13
    2c38:	cf 90       	pop	r12
    2c3a:	bf 90       	pop	r11
    2c3c:	af 90       	pop	r10
    2c3e:	9f 90       	pop	r9
    2c40:	8f 90       	pop	r8
    2c42:	7f 90       	pop	r7
    2c44:	6f 90       	pop	r6
    2c46:	5f 90       	pop	r5
    2c48:	4f 90       	pop	r4
    2c4a:	3f 90       	pop	r3
    2c4c:	2f 90       	pop	r2
    2c4e:	08 95       	ret

00002c50 <playQuestionMedium>:

void playQuestionMedium(struct questionMedium q){
    2c50:	2f 92       	push	r2
    2c52:	3f 92       	push	r3
    2c54:	4f 92       	push	r4
    2c56:	5f 92       	push	r5
    2c58:	6f 92       	push	r6
    2c5a:	7f 92       	push	r7
    2c5c:	8f 92       	push	r8
    2c5e:	9f 92       	push	r9
    2c60:	af 92       	push	r10
    2c62:	bf 92       	push	r11
    2c64:	cf 92       	push	r12
    2c66:	df 92       	push	r13
    2c68:	ef 92       	push	r14
    2c6a:	ff 92       	push	r15
    2c6c:	0f 93       	push	r16
    2c6e:	1f 93       	push	r17
    2c70:	cf 93       	push	r28
    2c72:	df 93       	push	r29
    2c74:	cd b7       	in	r28, 0x3d	; 61
    2c76:	de b7       	in	r29, 0x3e	; 62
    2c78:	c2 5a       	subi	r28, 0xA2	; 162
    2c7a:	d1 09       	sbc	r29, r1
    2c7c:	0f b6       	in	r0, 0x3f	; 63
    2c7e:	f8 94       	cli
    2c80:	de bf       	out	0x3e, r29	; 62
    2c82:	0f be       	out	0x3f, r0	; 63
    2c84:	cd bf       	out	0x3d, r28	; 61
    2c86:	c9 56       	subi	r28, 0x69	; 105
    2c88:	df 4f       	sbci	r29, 0xFF	; 255
    2c8a:	08 83       	st	Y, r16
    2c8c:	c7 59       	subi	r28, 0x97	; 151
    2c8e:	d0 40       	sbci	r29, 0x00	; 0
    2c90:	c8 56       	subi	r28, 0x68	; 104
    2c92:	df 4f       	sbci	r29, 0xFF	; 255
    2c94:	18 83       	st	Y, r17
    2c96:	c8 59       	subi	r28, 0x98	; 152
    2c98:	d0 40       	sbci	r29, 0x00	; 0
    2c9a:	c7 56       	subi	r28, 0x67	; 103
    2c9c:	df 4f       	sbci	r29, 0xFF	; 255
    2c9e:	28 83       	st	Y, r18
    2ca0:	c9 59       	subi	r28, 0x99	; 153
    2ca2:	d0 40       	sbci	r29, 0x00	; 0
    2ca4:	c6 56       	subi	r28, 0x66	; 102
    2ca6:	df 4f       	sbci	r29, 0xFF	; 255
    2ca8:	38 83       	st	Y, r19
    2caa:	ca 59       	subi	r28, 0x9A	; 154
    2cac:	d0 40       	sbci	r29, 0x00	; 0
    2cae:	c5 56       	subi	r28, 0x65	; 101
    2cb0:	df 4f       	sbci	r29, 0xFF	; 255
    2cb2:	48 83       	st	Y, r20
    2cb4:	cb 59       	subi	r28, 0x9B	; 155
    2cb6:	d0 40       	sbci	r29, 0x00	; 0
    2cb8:	c4 56       	subi	r28, 0x64	; 100
    2cba:	df 4f       	sbci	r29, 0xFF	; 255
    2cbc:	58 83       	st	Y, r21
    2cbe:	cc 59       	subi	r28, 0x9C	; 156
    2cc0:	d0 40       	sbci	r29, 0x00	; 0
    2cc2:	c3 56       	subi	r28, 0x63	; 99
    2cc4:	df 4f       	sbci	r29, 0xFF	; 255
    2cc6:	68 83       	st	Y, r22
    2cc8:	cd 59       	subi	r28, 0x9D	; 157
    2cca:	d0 40       	sbci	r29, 0x00	; 0
    2ccc:	c2 56       	subi	r28, 0x62	; 98
    2cce:	df 4f       	sbci	r29, 0xFF	; 255
    2cd0:	78 83       	st	Y, r23
    2cd2:	ce 59       	subi	r28, 0x9E	; 158
    2cd4:	d0 40       	sbci	r29, 0x00	; 0
    2cd6:	c1 56       	subi	r28, 0x61	; 97
    2cd8:	df 4f       	sbci	r29, 0xFF	; 255
    2cda:	88 83       	st	Y, r24
    2cdc:	cf 59       	subi	r28, 0x9F	; 159
    2cde:	d0 40       	sbci	r29, 0x00	; 0
    2ce0:	c0 56       	subi	r28, 0x60	; 96
    2ce2:	df 4f       	sbci	r29, 0xFF	; 255
    2ce4:	98 83       	st	Y, r25
    2ce6:	c0 5a       	subi	r28, 0xA0	; 160
    2ce8:	d0 40       	sbci	r29, 0x00	; 0
    2cea:	c1 56       	subi	r28, 0x61	; 97
    2cec:	df 4f       	sbci	r29, 0xFF	; 255
    2cee:	a8 80       	ld	r10, Y
    2cf0:	b9 80       	ldd	r11, Y+1	; 0x01
    2cf2:	cf 59       	subi	r28, 0x9F	; 159
    2cf4:	d0 40       	sbci	r29, 0x00	; 0
	
	char str[50];
	char str2[50];
	char an[50];	// answer string, will hold " +-" or something of that sort
	
	strcpy(str, q.n1);
    2cf6:	c9 56       	subi	r28, 0x69	; 105
    2cf8:	df 4f       	sbci	r29, 0xFF	; 255
    2cfa:	68 81       	ld	r22, Y
    2cfc:	79 81       	ldd	r23, Y+1	; 0x01
    2cfe:	c7 59       	subi	r28, 0x97	; 151
    2d00:	d0 40       	sbci	r29, 0x00	; 0
    2d02:	8e 01       	movw	r16, r28
    2d04:	0f 5f       	subi	r16, 0xFF	; 255
    2d06:	1f 4f       	sbci	r17, 0xFF	; 255
    2d08:	c8 01       	movw	r24, r16
    2d0a:	0e 94 bd 2f 	call	0x5f7a	; 0x5f7a <strcpy>
	strcat(str, " ");
    2d0e:	f8 01       	movw	r30, r16
    2d10:	01 90       	ld	r0, Z+
    2d12:	00 20       	and	r0, r0
    2d14:	e9 f7       	brne	.-6      	; 0x2d10 <playQuestionMedium+0xc0>
    2d16:	31 97       	sbiw	r30, 0x01	; 1
    2d18:	68 94       	set
    2d1a:	ee 24       	eor	r14, r14
    2d1c:	e5 f8       	bld	r14, 5
    2d1e:	f1 2c       	mov	r15, r1
    2d20:	f1 82       	std	Z+1, r15	; 0x01
    2d22:	e0 82       	st	Z, r14
	strcat(str, q.n2);
    2d24:	c7 56       	subi	r28, 0x67	; 103
    2d26:	df 4f       	sbci	r29, 0xFF	; 255
    2d28:	68 81       	ld	r22, Y
    2d2a:	79 81       	ldd	r23, Y+1	; 0x01
    2d2c:	c9 59       	subi	r28, 0x99	; 153
    2d2e:	d0 40       	sbci	r29, 0x00	; 0
    2d30:	c8 01       	movw	r24, r16
    2d32:	0e 94 b2 2f 	call	0x5f64	; 0x5f64 <strcat>
	strcat(str, " ");
    2d36:	f8 01       	movw	r30, r16
    2d38:	01 90       	ld	r0, Z+
    2d3a:	00 20       	and	r0, r0
    2d3c:	e9 f7       	brne	.-6      	; 0x2d38 <playQuestionMedium+0xe8>
    2d3e:	31 97       	sbiw	r30, 0x01	; 1
    2d40:	f1 82       	std	Z+1, r15	; 0x01
    2d42:	e0 82       	st	Z, r14
	strcat(str, q.n3);
    2d44:	c5 56       	subi	r28, 0x65	; 101
    2d46:	df 4f       	sbci	r29, 0xFF	; 255
    2d48:	68 81       	ld	r22, Y
    2d4a:	79 81       	ldd	r23, Y+1	; 0x01
    2d4c:	cb 59       	subi	r28, 0x9B	; 155
    2d4e:	d0 40       	sbci	r29, 0x00	; 0
    2d50:	c8 01       	movw	r24, r16
    2d52:	0e 94 b2 2f 	call	0x5f64	; 0x5f64 <strcat>
	strcat(str, "=");
    2d56:	f8 01       	movw	r30, r16
    2d58:	01 90       	ld	r0, Z+
    2d5a:	00 20       	and	r0, r0
    2d5c:	e9 f7       	brne	.-6      	; 0x2d58 <playQuestionMedium+0x108>
    2d5e:	31 97       	sbiw	r30, 0x01	; 1
    2d60:	8d e3       	ldi	r24, 0x3D	; 61
    2d62:	90 e0       	ldi	r25, 0x00	; 0
    2d64:	91 83       	std	Z+1, r25	; 0x01
    2d66:	80 83       	st	Z, r24
	strcat(str, q.ans);
    2d68:	c3 56       	subi	r28, 0x63	; 99
    2d6a:	df 4f       	sbci	r29, 0xFF	; 255
    2d6c:	68 81       	ld	r22, Y
    2d6e:	79 81       	ldd	r23, Y+1	; 0x01
    2d70:	cd 59       	subi	r28, 0x9D	; 157
    2d72:	d0 40       	sbci	r29, 0x00	; 0
    2d74:	c8 01       	movw	r24, r16
    2d76:	0e 94 b2 2f 	call	0x5f64	; 0x5f64 <strcat>
	strcat(str, "            ");
    2d7a:	d8 01       	movw	r26, r16
    2d7c:	0d 90       	ld	r0, X+
    2d7e:	00 20       	and	r0, r0
    2d80:	e9 f7       	brne	.-6      	; 0x2d7c <playQuestionMedium+0x12c>
    2d82:	11 97       	sbiw	r26, 0x01	; 1
    2d84:	8d e0       	ldi	r24, 0x0D	; 13
    2d86:	e6 e1       	ldi	r30, 0x16	; 22
    2d88:	f6 e0       	ldi	r31, 0x06	; 6
    2d8a:	01 90       	ld	r0, Z+
    2d8c:	0d 92       	st	X+, r0
    2d8e:	8a 95       	dec	r24
    2d90:	e1 f7       	brne	.-8      	; 0x2d8a <playQuestionMedium+0x13a>
	
	strcpy(str2, " ");
    2d92:	fc aa       	std	Y+52, r15	; 0x34
    2d94:	eb aa       	std	Y+51, r14	; 0x33
	strcpy(an, " ");
    2d96:	a7 96       	adiw	r28, 0x27	; 39
    2d98:	ff ae       	std	Y+63, r15	; 0x3f
    2d9a:	ee ae       	std	Y+62, r14	; 0x3e
    2d9c:	a7 97       	sbiw	r28, 0x27	; 39
	
	LCD_ClearScreen();
    2d9e:	0e 94 e5 01 	call	0x3ca	; 0x3ca <LCD_ClearScreen>
	LCD_Cursor(1);
    2da2:	81 e0       	ldi	r24, 0x01	; 1
    2da4:	0e 94 e8 01 	call	0x3d0	; 0x3d0 <LCD_Cursor>
    2da8:	7e 01       	movw	r14, r28
    2daa:	80 e1       	ldi	r24, 0x10	; 16
    2dac:	e8 0e       	add	r14, r24
    2dae:	f1 1c       	adc	r15, r1
	int i, str2length;
	str2length = 1;
	for(i = 0; i < 15; i++) {
		LCD_WriteData(str[i]);
    2db0:	f8 01       	movw	r30, r16
    2db2:	81 91       	ld	r24, Z+
    2db4:	8f 01       	movw	r16, r30
    2db6:	0e 94 ff 01 	call	0x3fe	; 0x3fe <LCD_WriteData>
	
	LCD_ClearScreen();
	LCD_Cursor(1);
	int i, str2length;
	str2length = 1;
	for(i = 0; i < 15; i++) {
    2dba:	0e 15       	cp	r16, r14
    2dbc:	1f 05       	cpc	r17, r15
    2dbe:	c1 f7       	brne	.-16     	; 0x2db0 <playQuestionMedium+0x160>
		LCD_WriteData(str[i]);
	}
	LCD_Cursor(17);
    2dc0:	81 e1       	ldi	r24, 0x11	; 17
    2dc2:	0e 94 e8 01 	call	0x3d0	; 0x3d0 <LCD_Cursor>
	strcpy(an, " ");
	
	LCD_ClearScreen();
	LCD_Cursor(1);
	int i, str2length;
	str2length = 1;
    2dc6:	cc 24       	eor	r12, r12
    2dc8:	c3 94       	inc	r12
    2dca:	d1 2c       	mov	r13, r1
					timeRemaining = 0;
				}
				else
				timeRemaining++;
			}
			strcat(an, "*");
    2dcc:	1e 01       	movw	r2, r28
    2dce:	f5 e6       	ldi	r31, 0x65	; 101
    2dd0:	2f 0e       	add	r2, r31
    2dd2:	31 1c       	adc	r3, r1
			strcat(str2, "* ");
    2dd4:	ce 01       	movw	r24, r28
    2dd6:	c3 96       	adiw	r24, 0x33	; 51
    2dd8:	cf 55       	subi	r28, 0x5F	; 95
    2dda:	df 4f       	sbci	r29, 0xFF	; 255
    2ddc:	99 83       	std	Y+1, r25	; 0x01
    2dde:	88 83       	st	Y, r24
    2de0:	c1 5a       	subi	r28, 0xA1	; 161
    2de2:	d0 40       	sbci	r29, 0x00	; 0
					timeRemaining = 0;
				}
				else
				timeRemaining++;
			}
			strcat(an, "+");
    2de4:	0f 2e       	mov	r0, r31
    2de6:	fb e2       	ldi	r31, 0x2B	; 43
    2de8:	6f 2e       	mov	r6, r31
    2dea:	71 2c       	mov	r7, r1
    2dec:	f0 2d       	mov	r31, r0
			strcat(str2, "+ ");
    2dee:	0f 2e       	mov	r0, r31
    2df0:	fb e2       	ldi	r31, 0x2B	; 43
    2df2:	4f 2e       	mov	r4, r31
    2df4:	f0 e2       	ldi	r31, 0x20	; 32
    2df6:	5f 2e       	mov	r5, r31
    2df8:	f0 2d       	mov	r31, r0
			secPassed++;
			timeRemaining = 0;
		}
		else
		timeRemaining++;
		nokia_lcd_ingame(score, gameTime-secPassed);
    2dfa:	0f 2e       	mov	r0, r31
    2dfc:	fb e2       	ldi	r31, 0x2B	; 43
    2dfe:	8f 2e       	mov	r8, r31
    2e00:	f6 e0       	ldi	r31, 0x06	; 6
    2e02:	9f 2e       	mov	r9, r31
    2e04:	f0 2d       	mov	r31, r0
	// PINA: 2 down
	// PINA: 3 left
	// PINA: 4 select
	while (str2length < 3)
	{
		if(!GetBit(PINA, 0)){
    2e06:	00 99       	sbic	0x00, 0	; 0
    2e08:	39 c0       	rjmp	.+114    	; 0x2e7c <playQuestionMedium+0x22c>
			while(!GetBit(PINA, 0)){
				if(timeRemaining >= period1second){
    2e0a:	20 91 05 01 	lds	r18, 0x0105	; 0x800105 <period1second>
    2e0e:	30 91 06 01 	lds	r19, 0x0106	; 0x800106 <period1second+0x1>
    2e12:	1a c0       	rjmp	.+52     	; 0x2e48 <playQuestionMedium+0x1f8>
    2e14:	80 91 2d 06 	lds	r24, 0x062D	; 0x80062d <timeRemaining>
    2e18:	90 91 2e 06 	lds	r25, 0x062E	; 0x80062e <timeRemaining+0x1>
    2e1c:	82 17       	cp	r24, r18
    2e1e:	93 07       	cpc	r25, r19
    2e20:	70 f0       	brcs	.+28     	; 0x2e3e <playQuestionMedium+0x1ee>
					secPassed++;
    2e22:	80 91 2b 06 	lds	r24, 0x062B	; 0x80062b <secPassed>
    2e26:	90 91 2c 06 	lds	r25, 0x062C	; 0x80062c <secPassed+0x1>
    2e2a:	01 96       	adiw	r24, 0x01	; 1
    2e2c:	90 93 2c 06 	sts	0x062C, r25	; 0x80062c <secPassed+0x1>
    2e30:	80 93 2b 06 	sts	0x062B, r24	; 0x80062b <secPassed>
					timeRemaining = 0;
    2e34:	10 92 2e 06 	sts	0x062E, r1	; 0x80062e <timeRemaining+0x1>
    2e38:	10 92 2d 06 	sts	0x062D, r1	; 0x80062d <timeRemaining>
    2e3c:	05 c0       	rjmp	.+10     	; 0x2e48 <playQuestionMedium+0x1f8>
				}
				else
				timeRemaining++;
    2e3e:	01 96       	adiw	r24, 0x01	; 1
    2e40:	90 93 2e 06 	sts	0x062E, r25	; 0x80062e <timeRemaining+0x1>
    2e44:	80 93 2d 06 	sts	0x062D, r24	; 0x80062d <timeRemaining>
	// PINA: 3 left
	// PINA: 4 select
	while (str2length < 3)
	{
		if(!GetBit(PINA, 0)){
			while(!GetBit(PINA, 0)){
    2e48:	00 9b       	sbis	0x00, 0	; 0
    2e4a:	e4 cf       	rjmp	.-56     	; 0x2e14 <playQuestionMedium+0x1c4>
					timeRemaining = 0;
				}
				else
				timeRemaining++;
			}
			strcat(an, "+");
    2e4c:	f1 01       	movw	r30, r2
    2e4e:	01 90       	ld	r0, Z+
    2e50:	00 20       	and	r0, r0
    2e52:	e9 f7       	brne	.-6      	; 0x2e4e <playQuestionMedium+0x1fe>
    2e54:	31 97       	sbiw	r30, 0x01	; 1
    2e56:	71 82       	std	Z+1, r7	; 0x01
    2e58:	60 82       	st	Z, r6
			strcat(str2, "+ ");
    2e5a:	cf 55       	subi	r28, 0x5F	; 95
    2e5c:	df 4f       	sbci	r29, 0xFF	; 255
    2e5e:	e8 81       	ld	r30, Y
    2e60:	f9 81       	ldd	r31, Y+1	; 0x01
    2e62:	c1 5a       	subi	r28, 0xA1	; 161
    2e64:	d0 40       	sbci	r29, 0x00	; 0
    2e66:	01 90       	ld	r0, Z+
    2e68:	00 20       	and	r0, r0
    2e6a:	e9 f7       	brne	.-6      	; 0x2e66 <playQuestionMedium+0x216>
    2e6c:	31 97       	sbiw	r30, 0x01	; 1
    2e6e:	51 82       	std	Z+1, r5	; 0x01
    2e70:	40 82       	st	Z, r4
    2e72:	12 82       	std	Z+2, r1	; 0x02
			str2length++;
    2e74:	9f ef       	ldi	r25, 0xFF	; 255
    2e76:	c9 1a       	sub	r12, r25
    2e78:	d9 0a       	sbc	r13, r25
    2e7a:	bc c0       	rjmp	.+376    	; 0x2ff4 <playQuestionMedium+0x3a4>
		}
		else if(!GetBit(PINA, 1)){
    2e7c:	01 99       	sbic	0x00, 1	; 0
    2e7e:	3d c0       	rjmp	.+122    	; 0x2efa <playQuestionMedium+0x2aa>
			while(!GetBit(PINA, 1)){
				if(timeRemaining >= period1second){
    2e80:	20 91 05 01 	lds	r18, 0x0105	; 0x800105 <period1second>
    2e84:	30 91 06 01 	lds	r19, 0x0106	; 0x800106 <period1second+0x1>
    2e88:	1a c0       	rjmp	.+52     	; 0x2ebe <playQuestionMedium+0x26e>
    2e8a:	80 91 2d 06 	lds	r24, 0x062D	; 0x80062d <timeRemaining>
    2e8e:	90 91 2e 06 	lds	r25, 0x062E	; 0x80062e <timeRemaining+0x1>
    2e92:	82 17       	cp	r24, r18
    2e94:	93 07       	cpc	r25, r19
    2e96:	70 f0       	brcs	.+28     	; 0x2eb4 <playQuestionMedium+0x264>
					secPassed++;
    2e98:	80 91 2b 06 	lds	r24, 0x062B	; 0x80062b <secPassed>
    2e9c:	90 91 2c 06 	lds	r25, 0x062C	; 0x80062c <secPassed+0x1>
    2ea0:	01 96       	adiw	r24, 0x01	; 1
    2ea2:	90 93 2c 06 	sts	0x062C, r25	; 0x80062c <secPassed+0x1>
    2ea6:	80 93 2b 06 	sts	0x062B, r24	; 0x80062b <secPassed>
					timeRemaining = 0;
    2eaa:	10 92 2e 06 	sts	0x062E, r1	; 0x80062e <timeRemaining+0x1>
    2eae:	10 92 2d 06 	sts	0x062D, r1	; 0x80062d <timeRemaining>
    2eb2:	05 c0       	rjmp	.+10     	; 0x2ebe <playQuestionMedium+0x26e>
				}
				else
				timeRemaining++;
    2eb4:	01 96       	adiw	r24, 0x01	; 1
    2eb6:	90 93 2e 06 	sts	0x062E, r25	; 0x80062e <timeRemaining+0x1>
    2eba:	80 93 2d 06 	sts	0x062D, r24	; 0x80062d <timeRemaining>
			strcat(an, "+");
			strcat(str2, "+ ");
			str2length++;
		}
		else if(!GetBit(PINA, 1)){
			while(!GetBit(PINA, 1)){
    2ebe:	01 9b       	sbis	0x00, 1	; 0
    2ec0:	e4 cf       	rjmp	.-56     	; 0x2e8a <playQuestionMedium+0x23a>
					timeRemaining = 0;
				}
				else
				timeRemaining++;
			}
			strcat(an, "-");
    2ec2:	f1 01       	movw	r30, r2
    2ec4:	01 90       	ld	r0, Z+
    2ec6:	00 20       	and	r0, r0
    2ec8:	e9 f7       	brne	.-6      	; 0x2ec4 <playQuestionMedium+0x274>
    2eca:	31 97       	sbiw	r30, 0x01	; 1
    2ecc:	8d e2       	ldi	r24, 0x2D	; 45
    2ece:	90 e0       	ldi	r25, 0x00	; 0
    2ed0:	91 83       	std	Z+1, r25	; 0x01
    2ed2:	80 83       	st	Z, r24
			strcat(str2, "- ");
    2ed4:	cf 55       	subi	r28, 0x5F	; 95
    2ed6:	df 4f       	sbci	r29, 0xFF	; 255
    2ed8:	e8 81       	ld	r30, Y
    2eda:	f9 81       	ldd	r31, Y+1	; 0x01
    2edc:	c1 5a       	subi	r28, 0xA1	; 161
    2ede:	d0 40       	sbci	r29, 0x00	; 0
    2ee0:	01 90       	ld	r0, Z+
    2ee2:	00 20       	and	r0, r0
    2ee4:	e9 f7       	brne	.-6      	; 0x2ee0 <playQuestionMedium+0x290>
    2ee6:	31 97       	sbiw	r30, 0x01	; 1
    2ee8:	8d e2       	ldi	r24, 0x2D	; 45
    2eea:	90 e2       	ldi	r25, 0x20	; 32
    2eec:	91 83       	std	Z+1, r25	; 0x01
    2eee:	80 83       	st	Z, r24
    2ef0:	12 82       	std	Z+2, r1	; 0x02
			str2length++;
    2ef2:	9f ef       	ldi	r25, 0xFF	; 255
    2ef4:	c9 1a       	sub	r12, r25
    2ef6:	d9 0a       	sbc	r13, r25
    2ef8:	7d c0       	rjmp	.+250    	; 0x2ff4 <playQuestionMedium+0x3a4>
		}
		else if(!GetBit(PINA, 2)){
    2efa:	02 99       	sbic	0x00, 2	; 0
    2efc:	3d c0       	rjmp	.+122    	; 0x2f78 <playQuestionMedium+0x328>
			while(!GetBit(PINA, 2)){
				if(timeRemaining >= period1second){
    2efe:	20 91 05 01 	lds	r18, 0x0105	; 0x800105 <period1second>
    2f02:	30 91 06 01 	lds	r19, 0x0106	; 0x800106 <period1second+0x1>
    2f06:	1a c0       	rjmp	.+52     	; 0x2f3c <playQuestionMedium+0x2ec>
    2f08:	80 91 2d 06 	lds	r24, 0x062D	; 0x80062d <timeRemaining>
    2f0c:	90 91 2e 06 	lds	r25, 0x062E	; 0x80062e <timeRemaining+0x1>
    2f10:	82 17       	cp	r24, r18
    2f12:	93 07       	cpc	r25, r19
    2f14:	70 f0       	brcs	.+28     	; 0x2f32 <playQuestionMedium+0x2e2>
					secPassed++;
    2f16:	80 91 2b 06 	lds	r24, 0x062B	; 0x80062b <secPassed>
    2f1a:	90 91 2c 06 	lds	r25, 0x062C	; 0x80062c <secPassed+0x1>
    2f1e:	01 96       	adiw	r24, 0x01	; 1
    2f20:	90 93 2c 06 	sts	0x062C, r25	; 0x80062c <secPassed+0x1>
    2f24:	80 93 2b 06 	sts	0x062B, r24	; 0x80062b <secPassed>
					timeRemaining = 0;
    2f28:	10 92 2e 06 	sts	0x062E, r1	; 0x80062e <timeRemaining+0x1>
    2f2c:	10 92 2d 06 	sts	0x062D, r1	; 0x80062d <timeRemaining>
    2f30:	05 c0       	rjmp	.+10     	; 0x2f3c <playQuestionMedium+0x2ec>
				}
				else
				timeRemaining++;
    2f32:	01 96       	adiw	r24, 0x01	; 1
    2f34:	90 93 2e 06 	sts	0x062E, r25	; 0x80062e <timeRemaining+0x1>
    2f38:	80 93 2d 06 	sts	0x062D, r24	; 0x80062d <timeRemaining>
			strcat(an, "-");
			strcat(str2, "- ");
			str2length++;
		}
		else if(!GetBit(PINA, 2)){
			while(!GetBit(PINA, 2)){
    2f3c:	02 9b       	sbis	0x00, 2	; 0
    2f3e:	e4 cf       	rjmp	.-56     	; 0x2f08 <playQuestionMedium+0x2b8>
					timeRemaining = 0;
				}
				else
				timeRemaining++;
			}
			strcat(an, "/");
    2f40:	f1 01       	movw	r30, r2
    2f42:	01 90       	ld	r0, Z+
    2f44:	00 20       	and	r0, r0
    2f46:	e9 f7       	brne	.-6      	; 0x2f42 <playQuestionMedium+0x2f2>
    2f48:	31 97       	sbiw	r30, 0x01	; 1
    2f4a:	8f e2       	ldi	r24, 0x2F	; 47
    2f4c:	90 e0       	ldi	r25, 0x00	; 0
    2f4e:	91 83       	std	Z+1, r25	; 0x01
    2f50:	80 83       	st	Z, r24
			strcat(str2, "/ ");
    2f52:	cf 55       	subi	r28, 0x5F	; 95
    2f54:	df 4f       	sbci	r29, 0xFF	; 255
    2f56:	e8 81       	ld	r30, Y
    2f58:	f9 81       	ldd	r31, Y+1	; 0x01
    2f5a:	c1 5a       	subi	r28, 0xA1	; 161
    2f5c:	d0 40       	sbci	r29, 0x00	; 0
    2f5e:	01 90       	ld	r0, Z+
    2f60:	00 20       	and	r0, r0
    2f62:	e9 f7       	brne	.-6      	; 0x2f5e <playQuestionMedium+0x30e>
    2f64:	31 97       	sbiw	r30, 0x01	; 1
    2f66:	8f e2       	ldi	r24, 0x2F	; 47
    2f68:	90 e2       	ldi	r25, 0x20	; 32
    2f6a:	91 83       	std	Z+1, r25	; 0x01
    2f6c:	80 83       	st	Z, r24
    2f6e:	12 82       	std	Z+2, r1	; 0x02
			str2length++;
    2f70:	9f ef       	ldi	r25, 0xFF	; 255
    2f72:	c9 1a       	sub	r12, r25
    2f74:	d9 0a       	sbc	r13, r25
    2f76:	3e c0       	rjmp	.+124    	; 0x2ff4 <playQuestionMedium+0x3a4>
		}
		else if(!GetBit(PINA, 3)){
    2f78:	03 99       	sbic	0x00, 3	; 0
    2f7a:	3c c0       	rjmp	.+120    	; 0x2ff4 <playQuestionMedium+0x3a4>
			while(!GetBit(PINA, 3)){
				if(timeRemaining >= period1second){
    2f7c:	20 91 05 01 	lds	r18, 0x0105	; 0x800105 <period1second>
    2f80:	30 91 06 01 	lds	r19, 0x0106	; 0x800106 <period1second+0x1>
    2f84:	1a c0       	rjmp	.+52     	; 0x2fba <playQuestionMedium+0x36a>
    2f86:	80 91 2d 06 	lds	r24, 0x062D	; 0x80062d <timeRemaining>
    2f8a:	90 91 2e 06 	lds	r25, 0x062E	; 0x80062e <timeRemaining+0x1>
    2f8e:	82 17       	cp	r24, r18
    2f90:	93 07       	cpc	r25, r19
    2f92:	70 f0       	brcs	.+28     	; 0x2fb0 <playQuestionMedium+0x360>
					secPassed++;
    2f94:	80 91 2b 06 	lds	r24, 0x062B	; 0x80062b <secPassed>
    2f98:	90 91 2c 06 	lds	r25, 0x062C	; 0x80062c <secPassed+0x1>
    2f9c:	01 96       	adiw	r24, 0x01	; 1
    2f9e:	90 93 2c 06 	sts	0x062C, r25	; 0x80062c <secPassed+0x1>
    2fa2:	80 93 2b 06 	sts	0x062B, r24	; 0x80062b <secPassed>
					timeRemaining = 0;
    2fa6:	10 92 2e 06 	sts	0x062E, r1	; 0x80062e <timeRemaining+0x1>
    2faa:	10 92 2d 06 	sts	0x062D, r1	; 0x80062d <timeRemaining>
    2fae:	05 c0       	rjmp	.+10     	; 0x2fba <playQuestionMedium+0x36a>
				}
				else
				timeRemaining++;
    2fb0:	01 96       	adiw	r24, 0x01	; 1
    2fb2:	90 93 2e 06 	sts	0x062E, r25	; 0x80062e <timeRemaining+0x1>
    2fb6:	80 93 2d 06 	sts	0x062D, r24	; 0x80062d <timeRemaining>
			strcat(an, "/");
			strcat(str2, "/ ");
			str2length++;
		}
		else if(!GetBit(PINA, 3)){
			while(!GetBit(PINA, 3)){
    2fba:	03 9b       	sbis	0x00, 3	; 0
    2fbc:	e4 cf       	rjmp	.-56     	; 0x2f86 <playQuestionMedium+0x336>
					timeRemaining = 0;
				}
				else
				timeRemaining++;
			}
			strcat(an, "*");
    2fbe:	f1 01       	movw	r30, r2
    2fc0:	01 90       	ld	r0, Z+
    2fc2:	00 20       	and	r0, r0
    2fc4:	e9 f7       	brne	.-6      	; 0x2fc0 <playQuestionMedium+0x370>
    2fc6:	31 97       	sbiw	r30, 0x01	; 1
    2fc8:	8a e2       	ldi	r24, 0x2A	; 42
    2fca:	90 e0       	ldi	r25, 0x00	; 0
    2fcc:	91 83       	std	Z+1, r25	; 0x01
    2fce:	80 83       	st	Z, r24
			strcat(str2, "* ");
    2fd0:	cf 55       	subi	r28, 0x5F	; 95
    2fd2:	df 4f       	sbci	r29, 0xFF	; 255
    2fd4:	e8 81       	ld	r30, Y
    2fd6:	f9 81       	ldd	r31, Y+1	; 0x01
    2fd8:	c1 5a       	subi	r28, 0xA1	; 161
    2fda:	d0 40       	sbci	r29, 0x00	; 0
    2fdc:	01 90       	ld	r0, Z+
    2fde:	00 20       	and	r0, r0
    2fe0:	e9 f7       	brne	.-6      	; 0x2fdc <playQuestionMedium+0x38c>
    2fe2:	31 97       	sbiw	r30, 0x01	; 1
    2fe4:	8a e2       	ldi	r24, 0x2A	; 42
    2fe6:	90 e2       	ldi	r25, 0x20	; 32
    2fe8:	91 83       	std	Z+1, r25	; 0x01
    2fea:	80 83       	st	Z, r24
    2fec:	12 82       	std	Z+2, r1	; 0x02
			str2length++;
    2fee:	9f ef       	ldi	r25, 0xFF	; 255
    2ff0:	c9 1a       	sub	r12, r25
    2ff2:	d9 0a       	sbc	r13, r25
		}
		if(timeRemaining >= period1second){
    2ff4:	80 91 2d 06 	lds	r24, 0x062D	; 0x80062d <timeRemaining>
    2ff8:	90 91 2e 06 	lds	r25, 0x062E	; 0x80062e <timeRemaining+0x1>
    2ffc:	20 91 05 01 	lds	r18, 0x0105	; 0x800105 <period1second>
    3000:	30 91 06 01 	lds	r19, 0x0106	; 0x800106 <period1second+0x1>
    3004:	82 17       	cp	r24, r18
    3006:	93 07       	cpc	r25, r19
    3008:	70 f0       	brcs	.+28     	; 0x3026 <playQuestionMedium+0x3d6>
			secPassed++;
    300a:	80 91 2b 06 	lds	r24, 0x062B	; 0x80062b <secPassed>
    300e:	90 91 2c 06 	lds	r25, 0x062C	; 0x80062c <secPassed+0x1>
    3012:	01 96       	adiw	r24, 0x01	; 1
    3014:	90 93 2c 06 	sts	0x062C, r25	; 0x80062c <secPassed+0x1>
    3018:	80 93 2b 06 	sts	0x062B, r24	; 0x80062b <secPassed>
			timeRemaining = 0;
    301c:	10 92 2e 06 	sts	0x062E, r1	; 0x80062e <timeRemaining+0x1>
    3020:	10 92 2d 06 	sts	0x062D, r1	; 0x80062d <timeRemaining>
    3024:	05 c0       	rjmp	.+10     	; 0x3030 <playQuestionMedium+0x3e0>
		}
		else
		timeRemaining++;
    3026:	01 96       	adiw	r24, 0x01	; 1
    3028:	90 93 2e 06 	sts	0x062E, r25	; 0x80062e <timeRemaining+0x1>
    302c:	80 93 2d 06 	sts	0x062D, r24	; 0x80062d <timeRemaining>
		nokia_lcd_ingame(score, gameTime-secPassed);
    3030:	60 91 07 01 	lds	r22, 0x0107	; 0x800107 <gameTime>
    3034:	f4 01       	movw	r30, r8
    3036:	80 81       	ld	r24, Z
    3038:	68 1b       	sub	r22, r24
    303a:	80 91 2f 06 	lds	r24, 0x062F	; 0x80062f <score>
    303e:	0e 94 f3 03 	call	0x7e6	; 0x7e6 <nokia_lcd_ingame>
		//delay_ms(500);		// change this to not mess with timing
		LCD_Cursor(17);
    3042:	81 e1       	ldi	r24, 0x11	; 17
    3044:	0e 94 e8 01 	call	0x3d0	; 0x3d0 <LCD_Cursor>
		for(i = 0; i < str2length; i++) {
    3048:	1c 14       	cp	r1, r12
    304a:	1d 04       	cpc	r1, r13
    304c:	74 f4       	brge	.+28     	; 0x306a <playQuestionMedium+0x41a>
    304e:	8e 01       	movw	r16, r28
    3050:	0d 5c       	subi	r16, 0xCD	; 205
    3052:	1f 4f       	sbci	r17, 0xFF	; 255
    3054:	78 01       	movw	r14, r16
    3056:	ec 0c       	add	r14, r12
    3058:	fd 1c       	adc	r15, r13
			LCD_WriteData(str2[i]);
    305a:	f8 01       	movw	r30, r16
    305c:	81 91       	ld	r24, Z+
    305e:	8f 01       	movw	r16, r30
    3060:	0e 94 ff 01 	call	0x3fe	; 0x3fe <LCD_WriteData>
		else
		timeRemaining++;
		nokia_lcd_ingame(score, gameTime-secPassed);
		//delay_ms(500);		// change this to not mess with timing
		LCD_Cursor(17);
		for(i = 0; i < str2length; i++) {
    3064:	e0 16       	cp	r14, r16
    3066:	f1 06       	cpc	r15, r17
    3068:	c1 f7       	brne	.-16     	; 0x305a <playQuestionMedium+0x40a>
			LCD_WriteData(str2[i]);
		}
		if(secPassed >= gameTime){
    306a:	80 91 07 01 	lds	r24, 0x0107	; 0x800107 <gameTime>
    306e:	90 e0       	ldi	r25, 0x00	; 0
    3070:	20 91 2b 06 	lds	r18, 0x062B	; 0x80062b <secPassed>
    3074:	30 91 2c 06 	lds	r19, 0x062C	; 0x80062c <secPassed+0x1>
    3078:	28 17       	cp	r18, r24
    307a:	39 07       	cpc	r19, r25
    307c:	34 f0       	brlt	.+12     	; 0x308a <playQuestionMedium+0x43a>
			endgame();
    307e:	63 db       	rcall	.-2362   	; 0x2746 <endgame>
			inGame = 0;
    3080:	10 92 28 06 	sts	0x0628, r1	; 0x800628 <__data_end>
			inMenu = 1;
    3084:	f1 e0       	ldi	r31, 0x01	; 1
    3086:	f0 93 04 01 	sts	0x0104, r31	; 0x800104 <inMenu>
	// PINA: 0 up
	// PINA: 1 right
	// PINA: 2 down
	// PINA: 3 left
	// PINA: 4 select
	while (str2length < 3)
    308a:	83 e0       	ldi	r24, 0x03	; 3
    308c:	c8 16       	cp	r12, r24
    308e:	d1 04       	cpc	r13, r1
    3090:	0c f4       	brge	.+2      	; 0x3094 <playQuestionMedium+0x444>
    3092:	b9 ce       	rjmp	.-654    	; 0x2e06 <playQuestionMedium+0x1b6>
			inMenu = 1;
		}
	}
		
		// Check answers here - question id's vs input 
		if(q.qid == 0){
    3094:	a1 14       	cp	r10, r1
    3096:	b1 04       	cpc	r11, r1
    3098:	b1 f4       	brne	.+44     	; 0x30c6 <playQuestionMedium+0x476>
			if(an[1] == '+' && an[2] == '+'){
    309a:	a7 96       	adiw	r28, 0x27	; 39
    309c:	8f ad       	ldd	r24, Y+63	; 0x3f
    309e:	a7 97       	sbiw	r28, 0x27	; 39
    30a0:	8b 32       	cpi	r24, 0x2B	; 43
    30a2:	59 f4       	brne	.+22     	; 0x30ba <playQuestionMedium+0x46a>
    30a4:	a8 96       	adiw	r28, 0x28	; 40
    30a6:	8f ad       	ldd	r24, Y+63	; 0x3f
    30a8:	a8 97       	sbiw	r28, 0x28	; 40
    30aa:	8b 32       	cpi	r24, 0x2B	; 43
    30ac:	31 f4       	brne	.+12     	; 0x30ba <playQuestionMedium+0x46a>
				score++;
    30ae:	80 91 2f 06 	lds	r24, 0x062F	; 0x80062f <score>
    30b2:	8f 5f       	subi	r24, 0xFF	; 255
    30b4:	80 93 2f 06 	sts	0x062F, r24	; 0x80062f <score>
    30b8:	3a c0       	rjmp	.+116    	; 0x312e <playQuestionMedium+0x4de>
			}
			else
			score--;
    30ba:	80 91 2f 06 	lds	r24, 0x062F	; 0x80062f <score>
    30be:	81 50       	subi	r24, 0x01	; 1
    30c0:	80 93 2f 06 	sts	0x062F, r24	; 0x80062f <score>
    30c4:	34 c0       	rjmp	.+104    	; 0x312e <playQuestionMedium+0x4de>
		}
		if(q.qid == 1){
    30c6:	91 e0       	ldi	r25, 0x01	; 1
    30c8:	a9 16       	cp	r10, r25
    30ca:	b1 04       	cpc	r11, r1
    30cc:	b1 f4       	brne	.+44     	; 0x30fa <playQuestionMedium+0x4aa>
			if(an[1] == '+' && an[2] == '*'){
    30ce:	a7 96       	adiw	r28, 0x27	; 39
    30d0:	8f ad       	ldd	r24, Y+63	; 0x3f
    30d2:	a7 97       	sbiw	r28, 0x27	; 39
    30d4:	8b 32       	cpi	r24, 0x2B	; 43
    30d6:	59 f4       	brne	.+22     	; 0x30ee <playQuestionMedium+0x49e>
    30d8:	a8 96       	adiw	r28, 0x28	; 40
    30da:	8f ad       	ldd	r24, Y+63	; 0x3f
    30dc:	a8 97       	sbiw	r28, 0x28	; 40
    30de:	8a 32       	cpi	r24, 0x2A	; 42
    30e0:	31 f4       	brne	.+12     	; 0x30ee <playQuestionMedium+0x49e>
				score++;
    30e2:	80 91 2f 06 	lds	r24, 0x062F	; 0x80062f <score>
    30e6:	8f 5f       	subi	r24, 0xFF	; 255
    30e8:	80 93 2f 06 	sts	0x062F, r24	; 0x80062f <score>
    30ec:	3a c0       	rjmp	.+116    	; 0x3162 <playQuestionMedium+0x512>
			}
			else
			score--;
    30ee:	80 91 2f 06 	lds	r24, 0x062F	; 0x80062f <score>
    30f2:	81 50       	subi	r24, 0x01	; 1
    30f4:	80 93 2f 06 	sts	0x062F, r24	; 0x80062f <score>
    30f8:	34 c0       	rjmp	.+104    	; 0x3162 <playQuestionMedium+0x512>
		}
		if(q.qid == 2){
    30fa:	e2 e0       	ldi	r30, 0x02	; 2
    30fc:	ae 16       	cp	r10, r30
    30fe:	b1 04       	cpc	r11, r1
    3100:	b1 f4       	brne	.+44     	; 0x312e <playQuestionMedium+0x4de>
			if(an[1] == '*' && an[2] == '+'){
    3102:	a7 96       	adiw	r28, 0x27	; 39
    3104:	8f ad       	ldd	r24, Y+63	; 0x3f
    3106:	a7 97       	sbiw	r28, 0x27	; 39
    3108:	8a 32       	cpi	r24, 0x2A	; 42
    310a:	59 f4       	brne	.+22     	; 0x3122 <playQuestionMedium+0x4d2>
    310c:	a8 96       	adiw	r28, 0x28	; 40
    310e:	8f ad       	ldd	r24, Y+63	; 0x3f
    3110:	a8 97       	sbiw	r28, 0x28	; 40
    3112:	8b 32       	cpi	r24, 0x2B	; 43
    3114:	31 f4       	brne	.+12     	; 0x3122 <playQuestionMedium+0x4d2>
				score++;
    3116:	80 91 2f 06 	lds	r24, 0x062F	; 0x80062f <score>
    311a:	8f 5f       	subi	r24, 0xFF	; 255
    311c:	80 93 2f 06 	sts	0x062F, r24	; 0x80062f <score>
    3120:	3a c0       	rjmp	.+116    	; 0x3196 <playQuestionMedium+0x546>
			}
			else
			score--;
    3122:	80 91 2f 06 	lds	r24, 0x062F	; 0x80062f <score>
    3126:	81 50       	subi	r24, 0x01	; 1
    3128:	80 93 2f 06 	sts	0x062F, r24	; 0x80062f <score>
    312c:	34 c0       	rjmp	.+104    	; 0x3196 <playQuestionMedium+0x546>
		}
		if(q.qid == 3){
    312e:	f3 e0       	ldi	r31, 0x03	; 3
    3130:	af 16       	cp	r10, r31
    3132:	b1 04       	cpc	r11, r1
    3134:	b1 f4       	brne	.+44     	; 0x3162 <playQuestionMedium+0x512>
			if(an[1] == '*' && an[2] == '-'){
    3136:	a7 96       	adiw	r28, 0x27	; 39
    3138:	8f ad       	ldd	r24, Y+63	; 0x3f
    313a:	a7 97       	sbiw	r28, 0x27	; 39
    313c:	8a 32       	cpi	r24, 0x2A	; 42
    313e:	59 f4       	brne	.+22     	; 0x3156 <playQuestionMedium+0x506>
    3140:	a8 96       	adiw	r28, 0x28	; 40
    3142:	8f ad       	ldd	r24, Y+63	; 0x3f
    3144:	a8 97       	sbiw	r28, 0x28	; 40
    3146:	8d 32       	cpi	r24, 0x2D	; 45
    3148:	31 f4       	brne	.+12     	; 0x3156 <playQuestionMedium+0x506>
				score++;
    314a:	80 91 2f 06 	lds	r24, 0x062F	; 0x80062f <score>
    314e:	8f 5f       	subi	r24, 0xFF	; 255
    3150:	80 93 2f 06 	sts	0x062F, r24	; 0x80062f <score>
    3154:	3a c0       	rjmp	.+116    	; 0x31ca <playQuestionMedium+0x57a>
			}
			else
			score--;
    3156:	80 91 2f 06 	lds	r24, 0x062F	; 0x80062f <score>
    315a:	81 50       	subi	r24, 0x01	; 1
    315c:	80 93 2f 06 	sts	0x062F, r24	; 0x80062f <score>
    3160:	34 c0       	rjmp	.+104    	; 0x31ca <playQuestionMedium+0x57a>
		}
		if(q.qid == 4){
    3162:	84 e0       	ldi	r24, 0x04	; 4
    3164:	a8 16       	cp	r10, r24
    3166:	b1 04       	cpc	r11, r1
    3168:	b1 f4       	brne	.+44     	; 0x3196 <playQuestionMedium+0x546>
			if(an[1] == '-' && an[2] == '/'){
    316a:	a7 96       	adiw	r28, 0x27	; 39
    316c:	8f ad       	ldd	r24, Y+63	; 0x3f
    316e:	a7 97       	sbiw	r28, 0x27	; 39
    3170:	8d 32       	cpi	r24, 0x2D	; 45
    3172:	59 f4       	brne	.+22     	; 0x318a <playQuestionMedium+0x53a>
    3174:	a8 96       	adiw	r28, 0x28	; 40
    3176:	8f ad       	ldd	r24, Y+63	; 0x3f
    3178:	a8 97       	sbiw	r28, 0x28	; 40
    317a:	8f 32       	cpi	r24, 0x2F	; 47
    317c:	31 f4       	brne	.+12     	; 0x318a <playQuestionMedium+0x53a>
				score++;
    317e:	80 91 2f 06 	lds	r24, 0x062F	; 0x80062f <score>
    3182:	8f 5f       	subi	r24, 0xFF	; 255
    3184:	80 93 2f 06 	sts	0x062F, r24	; 0x80062f <score>
    3188:	3a c0       	rjmp	.+116    	; 0x31fe <playQuestionMedium+0x5ae>
			}
			else
			score--;
    318a:	80 91 2f 06 	lds	r24, 0x062F	; 0x80062f <score>
    318e:	81 50       	subi	r24, 0x01	; 1
    3190:	80 93 2f 06 	sts	0x062F, r24	; 0x80062f <score>
    3194:	34 c0       	rjmp	.+104    	; 0x31fe <playQuestionMedium+0x5ae>
		}
		if(q.qid == 5){
    3196:	95 e0       	ldi	r25, 0x05	; 5
    3198:	a9 16       	cp	r10, r25
    319a:	b1 04       	cpc	r11, r1
    319c:	b1 f4       	brne	.+44     	; 0x31ca <playQuestionMedium+0x57a>
			if(an[1] == '/' && an[2] == '+'){
    319e:	a7 96       	adiw	r28, 0x27	; 39
    31a0:	8f ad       	ldd	r24, Y+63	; 0x3f
    31a2:	a7 97       	sbiw	r28, 0x27	; 39
    31a4:	8f 32       	cpi	r24, 0x2F	; 47
    31a6:	59 f4       	brne	.+22     	; 0x31be <playQuestionMedium+0x56e>
    31a8:	a8 96       	adiw	r28, 0x28	; 40
    31aa:	8f ad       	ldd	r24, Y+63	; 0x3f
    31ac:	a8 97       	sbiw	r28, 0x28	; 40
    31ae:	8b 32       	cpi	r24, 0x2B	; 43
    31b0:	31 f4       	brne	.+12     	; 0x31be <playQuestionMedium+0x56e>
				score++;
    31b2:	80 91 2f 06 	lds	r24, 0x062F	; 0x80062f <score>
    31b6:	8f 5f       	subi	r24, 0xFF	; 255
    31b8:	80 93 2f 06 	sts	0x062F, r24	; 0x80062f <score>
    31bc:	3a c0       	rjmp	.+116    	; 0x3232 <playQuestionMedium+0x5e2>
			}
			else
			score--;
    31be:	80 91 2f 06 	lds	r24, 0x062F	; 0x80062f <score>
    31c2:	81 50       	subi	r24, 0x01	; 1
    31c4:	80 93 2f 06 	sts	0x062F, r24	; 0x80062f <score>
    31c8:	34 c0       	rjmp	.+104    	; 0x3232 <playQuestionMedium+0x5e2>
		}
		if(q.qid == 6){
    31ca:	e6 e0       	ldi	r30, 0x06	; 6
    31cc:	ae 16       	cp	r10, r30
    31ce:	b1 04       	cpc	r11, r1
    31d0:	b1 f4       	brne	.+44     	; 0x31fe <playQuestionMedium+0x5ae>
			if(an[1] == '+' && an[2] == '/'){
    31d2:	a7 96       	adiw	r28, 0x27	; 39
    31d4:	8f ad       	ldd	r24, Y+63	; 0x3f
    31d6:	a7 97       	sbiw	r28, 0x27	; 39
    31d8:	8b 32       	cpi	r24, 0x2B	; 43
    31da:	59 f4       	brne	.+22     	; 0x31f2 <playQuestionMedium+0x5a2>
    31dc:	a8 96       	adiw	r28, 0x28	; 40
    31de:	8f ad       	ldd	r24, Y+63	; 0x3f
    31e0:	a8 97       	sbiw	r28, 0x28	; 40
    31e2:	8f 32       	cpi	r24, 0x2F	; 47
    31e4:	31 f4       	brne	.+12     	; 0x31f2 <playQuestionMedium+0x5a2>
				score++;
    31e6:	80 91 2f 06 	lds	r24, 0x062F	; 0x80062f <score>
    31ea:	8f 5f       	subi	r24, 0xFF	; 255
    31ec:	80 93 2f 06 	sts	0x062F, r24	; 0x80062f <score>
    31f0:	3a c0       	rjmp	.+116    	; 0x3266 <playQuestionMedium+0x616>
			}
			else
			score--;
    31f2:	80 91 2f 06 	lds	r24, 0x062F	; 0x80062f <score>
    31f6:	81 50       	subi	r24, 0x01	; 1
    31f8:	80 93 2f 06 	sts	0x062F, r24	; 0x80062f <score>
    31fc:	34 c0       	rjmp	.+104    	; 0x3266 <playQuestionMedium+0x616>
		}
		if(q.qid == 7){
    31fe:	f7 e0       	ldi	r31, 0x07	; 7
    3200:	af 16       	cp	r10, r31
    3202:	b1 04       	cpc	r11, r1
    3204:	b1 f4       	brne	.+44     	; 0x3232 <playQuestionMedium+0x5e2>
			if(an[1] == '-' && an[2] == '+'){
    3206:	a7 96       	adiw	r28, 0x27	; 39
    3208:	8f ad       	ldd	r24, Y+63	; 0x3f
    320a:	a7 97       	sbiw	r28, 0x27	; 39
    320c:	8d 32       	cpi	r24, 0x2D	; 45
    320e:	59 f4       	brne	.+22     	; 0x3226 <playQuestionMedium+0x5d6>
    3210:	a8 96       	adiw	r28, 0x28	; 40
    3212:	8f ad       	ldd	r24, Y+63	; 0x3f
    3214:	a8 97       	sbiw	r28, 0x28	; 40
    3216:	8b 32       	cpi	r24, 0x2B	; 43
    3218:	31 f4       	brne	.+12     	; 0x3226 <playQuestionMedium+0x5d6>
				score++;
    321a:	80 91 2f 06 	lds	r24, 0x062F	; 0x80062f <score>
    321e:	8f 5f       	subi	r24, 0xFF	; 255
    3220:	80 93 2f 06 	sts	0x062F, r24	; 0x80062f <score>
    3224:	3a c0       	rjmp	.+116    	; 0x329a <playQuestionMedium+0x64a>
			}
			else
			score--;
    3226:	80 91 2f 06 	lds	r24, 0x062F	; 0x80062f <score>
    322a:	81 50       	subi	r24, 0x01	; 1
    322c:	80 93 2f 06 	sts	0x062F, r24	; 0x80062f <score>
    3230:	34 c0       	rjmp	.+104    	; 0x329a <playQuestionMedium+0x64a>
		}
		if(q.qid == 8){
    3232:	88 e0       	ldi	r24, 0x08	; 8
    3234:	a8 16       	cp	r10, r24
    3236:	b1 04       	cpc	r11, r1
    3238:	b1 f4       	brne	.+44     	; 0x3266 <playQuestionMedium+0x616>
			if(an[1] == '*' && an[2] == '*'){
    323a:	a7 96       	adiw	r28, 0x27	; 39
    323c:	8f ad       	ldd	r24, Y+63	; 0x3f
    323e:	a7 97       	sbiw	r28, 0x27	; 39
    3240:	8a 32       	cpi	r24, 0x2A	; 42
    3242:	59 f4       	brne	.+22     	; 0x325a <playQuestionMedium+0x60a>
    3244:	a8 96       	adiw	r28, 0x28	; 40
    3246:	8f ad       	ldd	r24, Y+63	; 0x3f
    3248:	a8 97       	sbiw	r28, 0x28	; 40
    324a:	8a 32       	cpi	r24, 0x2A	; 42
    324c:	31 f4       	brne	.+12     	; 0x325a <playQuestionMedium+0x60a>
				score++;
    324e:	80 91 2f 06 	lds	r24, 0x062F	; 0x80062f <score>
    3252:	8f 5f       	subi	r24, 0xFF	; 255
    3254:	80 93 2f 06 	sts	0x062F, r24	; 0x80062f <score>
    3258:	3a c0       	rjmp	.+116    	; 0x32ce <playQuestionMedium+0x67e>
			}
			else
			score--;
    325a:	80 91 2f 06 	lds	r24, 0x062F	; 0x80062f <score>
    325e:	81 50       	subi	r24, 0x01	; 1
    3260:	80 93 2f 06 	sts	0x062F, r24	; 0x80062f <score>
    3264:	34 c0       	rjmp	.+104    	; 0x32ce <playQuestionMedium+0x67e>
		}
		if(q.qid == 9){
    3266:	99 e0       	ldi	r25, 0x09	; 9
    3268:	a9 16       	cp	r10, r25
    326a:	b1 04       	cpc	r11, r1
    326c:	b1 f4       	brne	.+44     	; 0x329a <playQuestionMedium+0x64a>
			if(an[1] == '-' && an[2] == '*'){
    326e:	a7 96       	adiw	r28, 0x27	; 39
    3270:	8f ad       	ldd	r24, Y+63	; 0x3f
    3272:	a7 97       	sbiw	r28, 0x27	; 39
    3274:	8d 32       	cpi	r24, 0x2D	; 45
    3276:	59 f4       	brne	.+22     	; 0x328e <playQuestionMedium+0x63e>
    3278:	a8 96       	adiw	r28, 0x28	; 40
    327a:	8f ad       	ldd	r24, Y+63	; 0x3f
    327c:	a8 97       	sbiw	r28, 0x28	; 40
    327e:	8a 32       	cpi	r24, 0x2A	; 42
    3280:	31 f4       	brne	.+12     	; 0x328e <playQuestionMedium+0x63e>
				score++;
    3282:	80 91 2f 06 	lds	r24, 0x062F	; 0x80062f <score>
    3286:	8f 5f       	subi	r24, 0xFF	; 255
    3288:	80 93 2f 06 	sts	0x062F, r24	; 0x80062f <score>
    328c:	3a c0       	rjmp	.+116    	; 0x3302 <playQuestionMedium+0x6b2>
			}
			else
			score--;
    328e:	80 91 2f 06 	lds	r24, 0x062F	; 0x80062f <score>
    3292:	81 50       	subi	r24, 0x01	; 1
    3294:	80 93 2f 06 	sts	0x062F, r24	; 0x80062f <score>
    3298:	34 c0       	rjmp	.+104    	; 0x3302 <playQuestionMedium+0x6b2>
		}
		if(q.qid == 10){
    329a:	ea e0       	ldi	r30, 0x0A	; 10
    329c:	ae 16       	cp	r10, r30
    329e:	b1 04       	cpc	r11, r1
    32a0:	b1 f4       	brne	.+44     	; 0x32ce <playQuestionMedium+0x67e>
			if(an[1] == '/' && an[2] == '/'){
    32a2:	a7 96       	adiw	r28, 0x27	; 39
    32a4:	8f ad       	ldd	r24, Y+63	; 0x3f
    32a6:	a7 97       	sbiw	r28, 0x27	; 39
    32a8:	8f 32       	cpi	r24, 0x2F	; 47
    32aa:	59 f4       	brne	.+22     	; 0x32c2 <playQuestionMedium+0x672>
    32ac:	a8 96       	adiw	r28, 0x28	; 40
    32ae:	8f ad       	ldd	r24, Y+63	; 0x3f
    32b0:	a8 97       	sbiw	r28, 0x28	; 40
    32b2:	8f 32       	cpi	r24, 0x2F	; 47
    32b4:	31 f4       	brne	.+12     	; 0x32c2 <playQuestionMedium+0x672>
				score++;
    32b6:	80 91 2f 06 	lds	r24, 0x062F	; 0x80062f <score>
    32ba:	8f 5f       	subi	r24, 0xFF	; 255
    32bc:	80 93 2f 06 	sts	0x062F, r24	; 0x80062f <score>
    32c0:	3a c0       	rjmp	.+116    	; 0x3336 <playQuestionMedium+0x6e6>
			}
			else
			score--;
    32c2:	80 91 2f 06 	lds	r24, 0x062F	; 0x80062f <score>
    32c6:	81 50       	subi	r24, 0x01	; 1
    32c8:	80 93 2f 06 	sts	0x062F, r24	; 0x80062f <score>
    32cc:	34 c0       	rjmp	.+104    	; 0x3336 <playQuestionMedium+0x6e6>
		}
		if(q.qid == 11){
    32ce:	fb e0       	ldi	r31, 0x0B	; 11
    32d0:	af 16       	cp	r10, r31
    32d2:	b1 04       	cpc	r11, r1
    32d4:	b1 f4       	brne	.+44     	; 0x3302 <playQuestionMedium+0x6b2>
			if(an[1] == '*' && an[2] == '+'){
    32d6:	a7 96       	adiw	r28, 0x27	; 39
    32d8:	8f ad       	ldd	r24, Y+63	; 0x3f
    32da:	a7 97       	sbiw	r28, 0x27	; 39
    32dc:	8a 32       	cpi	r24, 0x2A	; 42
    32de:	59 f4       	brne	.+22     	; 0x32f6 <playQuestionMedium+0x6a6>
    32e0:	a8 96       	adiw	r28, 0x28	; 40
    32e2:	8f ad       	ldd	r24, Y+63	; 0x3f
    32e4:	a8 97       	sbiw	r28, 0x28	; 40
    32e6:	8b 32       	cpi	r24, 0x2B	; 43
    32e8:	31 f4       	brne	.+12     	; 0x32f6 <playQuestionMedium+0x6a6>
				score++;
    32ea:	80 91 2f 06 	lds	r24, 0x062F	; 0x80062f <score>
    32ee:	8f 5f       	subi	r24, 0xFF	; 255
    32f0:	80 93 2f 06 	sts	0x062F, r24	; 0x80062f <score>
    32f4:	3a c0       	rjmp	.+116    	; 0x336a <playQuestionMedium+0x71a>
			}
			else
			score--;
    32f6:	80 91 2f 06 	lds	r24, 0x062F	; 0x80062f <score>
    32fa:	81 50       	subi	r24, 0x01	; 1
    32fc:	80 93 2f 06 	sts	0x062F, r24	; 0x80062f <score>
    3300:	34 c0       	rjmp	.+104    	; 0x336a <playQuestionMedium+0x71a>
		}
		if(q.qid == 12){
    3302:	8c e0       	ldi	r24, 0x0C	; 12
    3304:	a8 16       	cp	r10, r24
    3306:	b1 04       	cpc	r11, r1
    3308:	b1 f4       	brne	.+44     	; 0x3336 <playQuestionMedium+0x6e6>
			if(an[1] == '+' && an[2] == '*'){
    330a:	a7 96       	adiw	r28, 0x27	; 39
    330c:	8f ad       	ldd	r24, Y+63	; 0x3f
    330e:	a7 97       	sbiw	r28, 0x27	; 39
    3310:	8b 32       	cpi	r24, 0x2B	; 43
    3312:	59 f4       	brne	.+22     	; 0x332a <playQuestionMedium+0x6da>
    3314:	a8 96       	adiw	r28, 0x28	; 40
    3316:	8f ad       	ldd	r24, Y+63	; 0x3f
    3318:	a8 97       	sbiw	r28, 0x28	; 40
    331a:	8a 32       	cpi	r24, 0x2A	; 42
    331c:	31 f4       	brne	.+12     	; 0x332a <playQuestionMedium+0x6da>
				score++;
    331e:	80 91 2f 06 	lds	r24, 0x062F	; 0x80062f <score>
    3322:	8f 5f       	subi	r24, 0xFF	; 255
    3324:	80 93 2f 06 	sts	0x062F, r24	; 0x80062f <score>
    3328:	3a c0       	rjmp	.+116    	; 0x339e <playQuestionMedium+0x74e>
			}
			else
			score--;
    332a:	80 91 2f 06 	lds	r24, 0x062F	; 0x80062f <score>
    332e:	81 50       	subi	r24, 0x01	; 1
    3330:	80 93 2f 06 	sts	0x062F, r24	; 0x80062f <score>
    3334:	34 c0       	rjmp	.+104    	; 0x339e <playQuestionMedium+0x74e>
		}
		if(q.qid == 13){
    3336:	9d e0       	ldi	r25, 0x0D	; 13
    3338:	a9 16       	cp	r10, r25
    333a:	b1 04       	cpc	r11, r1
    333c:	b1 f4       	brne	.+44     	; 0x336a <playQuestionMedium+0x71a>
			if(an[1] == '+' && an[2] == '/'){
    333e:	a7 96       	adiw	r28, 0x27	; 39
    3340:	8f ad       	ldd	r24, Y+63	; 0x3f
    3342:	a7 97       	sbiw	r28, 0x27	; 39
    3344:	8b 32       	cpi	r24, 0x2B	; 43
    3346:	59 f4       	brne	.+22     	; 0x335e <playQuestionMedium+0x70e>
    3348:	a8 96       	adiw	r28, 0x28	; 40
    334a:	8f ad       	ldd	r24, Y+63	; 0x3f
    334c:	a8 97       	sbiw	r28, 0x28	; 40
    334e:	8f 32       	cpi	r24, 0x2F	; 47
    3350:	31 f4       	brne	.+12     	; 0x335e <playQuestionMedium+0x70e>
				score++;
    3352:	80 91 2f 06 	lds	r24, 0x062F	; 0x80062f <score>
    3356:	8f 5f       	subi	r24, 0xFF	; 255
    3358:	80 93 2f 06 	sts	0x062F, r24	; 0x80062f <score>
    335c:	3a c0       	rjmp	.+116    	; 0x33d2 <playQuestionMedium+0x782>
			}
			else
			score--;
    335e:	80 91 2f 06 	lds	r24, 0x062F	; 0x80062f <score>
    3362:	81 50       	subi	r24, 0x01	; 1
    3364:	80 93 2f 06 	sts	0x062F, r24	; 0x80062f <score>
    3368:	34 c0       	rjmp	.+104    	; 0x33d2 <playQuestionMedium+0x782>
		}
		if(q.qid == 14){
    336a:	ee e0       	ldi	r30, 0x0E	; 14
    336c:	ae 16       	cp	r10, r30
    336e:	b1 04       	cpc	r11, r1
    3370:	b1 f4       	brne	.+44     	; 0x339e <playQuestionMedium+0x74e>
			if(an[1] == '*' && an[2] == '-'){
    3372:	a7 96       	adiw	r28, 0x27	; 39
    3374:	8f ad       	ldd	r24, Y+63	; 0x3f
    3376:	a7 97       	sbiw	r28, 0x27	; 39
    3378:	8a 32       	cpi	r24, 0x2A	; 42
    337a:	59 f4       	brne	.+22     	; 0x3392 <playQuestionMedium+0x742>
    337c:	a8 96       	adiw	r28, 0x28	; 40
    337e:	8f ad       	ldd	r24, Y+63	; 0x3f
    3380:	a8 97       	sbiw	r28, 0x28	; 40
    3382:	8d 32       	cpi	r24, 0x2D	; 45
    3384:	31 f4       	brne	.+12     	; 0x3392 <playQuestionMedium+0x742>
				score++;
    3386:	80 91 2f 06 	lds	r24, 0x062F	; 0x80062f <score>
    338a:	8f 5f       	subi	r24, 0xFF	; 255
    338c:	80 93 2f 06 	sts	0x062F, r24	; 0x80062f <score>
    3390:	3a c0       	rjmp	.+116    	; 0x3406 <playQuestionMedium+0x7b6>
			}
			else
			score--;
    3392:	80 91 2f 06 	lds	r24, 0x062F	; 0x80062f <score>
    3396:	81 50       	subi	r24, 0x01	; 1
    3398:	80 93 2f 06 	sts	0x062F, r24	; 0x80062f <score>
    339c:	34 c0       	rjmp	.+104    	; 0x3406 <playQuestionMedium+0x7b6>
		}
		if(q.qid == 15){
    339e:	ff e0       	ldi	r31, 0x0F	; 15
    33a0:	af 16       	cp	r10, r31
    33a2:	b1 04       	cpc	r11, r1
    33a4:	b1 f4       	brne	.+44     	; 0x33d2 <playQuestionMedium+0x782>
			if(an[1] == '-' && an[2] == '/'){
    33a6:	a7 96       	adiw	r28, 0x27	; 39
    33a8:	8f ad       	ldd	r24, Y+63	; 0x3f
    33aa:	a7 97       	sbiw	r28, 0x27	; 39
    33ac:	8d 32       	cpi	r24, 0x2D	; 45
    33ae:	59 f4       	brne	.+22     	; 0x33c6 <playQuestionMedium+0x776>
    33b0:	a8 96       	adiw	r28, 0x28	; 40
    33b2:	8f ad       	ldd	r24, Y+63	; 0x3f
    33b4:	a8 97       	sbiw	r28, 0x28	; 40
    33b6:	8f 32       	cpi	r24, 0x2F	; 47
    33b8:	31 f4       	brne	.+12     	; 0x33c6 <playQuestionMedium+0x776>
				score++;
    33ba:	80 91 2f 06 	lds	r24, 0x062F	; 0x80062f <score>
    33be:	8f 5f       	subi	r24, 0xFF	; 255
    33c0:	80 93 2f 06 	sts	0x062F, r24	; 0x80062f <score>
    33c4:	3a c0       	rjmp	.+116    	; 0x343a <playQuestionMedium+0x7ea>
			}
			else
			score--;
    33c6:	80 91 2f 06 	lds	r24, 0x062F	; 0x80062f <score>
    33ca:	81 50       	subi	r24, 0x01	; 1
    33cc:	80 93 2f 06 	sts	0x062F, r24	; 0x80062f <score>
    33d0:	34 c0       	rjmp	.+104    	; 0x343a <playQuestionMedium+0x7ea>
		}
		if(q.qid == 16){
    33d2:	80 e1       	ldi	r24, 0x10	; 16
    33d4:	a8 16       	cp	r10, r24
    33d6:	b1 04       	cpc	r11, r1
    33d8:	b1 f4       	brne	.+44     	; 0x3406 <playQuestionMedium+0x7b6>
			if(an[1] == '/' && an[2] == '+'){
    33da:	a7 96       	adiw	r28, 0x27	; 39
    33dc:	8f ad       	ldd	r24, Y+63	; 0x3f
    33de:	a7 97       	sbiw	r28, 0x27	; 39
    33e0:	8f 32       	cpi	r24, 0x2F	; 47
    33e2:	59 f4       	brne	.+22     	; 0x33fa <playQuestionMedium+0x7aa>
    33e4:	a8 96       	adiw	r28, 0x28	; 40
    33e6:	8f ad       	ldd	r24, Y+63	; 0x3f
    33e8:	a8 97       	sbiw	r28, 0x28	; 40
    33ea:	8b 32       	cpi	r24, 0x2B	; 43
    33ec:	31 f4       	brne	.+12     	; 0x33fa <playQuestionMedium+0x7aa>
				score++;
    33ee:	80 91 2f 06 	lds	r24, 0x062F	; 0x80062f <score>
    33f2:	8f 5f       	subi	r24, 0xFF	; 255
    33f4:	80 93 2f 06 	sts	0x062F, r24	; 0x80062f <score>
    33f8:	3a c0       	rjmp	.+116    	; 0x346e <playQuestionMedium+0x81e>
			}
			else
			score--;
    33fa:	80 91 2f 06 	lds	r24, 0x062F	; 0x80062f <score>
    33fe:	81 50       	subi	r24, 0x01	; 1
    3400:	80 93 2f 06 	sts	0x062F, r24	; 0x80062f <score>
    3404:	34 c0       	rjmp	.+104    	; 0x346e <playQuestionMedium+0x81e>
		}
		if(q.qid == 17){
    3406:	91 e1       	ldi	r25, 0x11	; 17
    3408:	a9 16       	cp	r10, r25
    340a:	b1 04       	cpc	r11, r1
    340c:	b1 f4       	brne	.+44     	; 0x343a <playQuestionMedium+0x7ea>
			if(an[1] == '-' && an[2] == '*'){
    340e:	a7 96       	adiw	r28, 0x27	; 39
    3410:	8f ad       	ldd	r24, Y+63	; 0x3f
    3412:	a7 97       	sbiw	r28, 0x27	; 39
    3414:	8d 32       	cpi	r24, 0x2D	; 45
    3416:	59 f4       	brne	.+22     	; 0x342e <playQuestionMedium+0x7de>
    3418:	a8 96       	adiw	r28, 0x28	; 40
    341a:	8f ad       	ldd	r24, Y+63	; 0x3f
    341c:	a8 97       	sbiw	r28, 0x28	; 40
    341e:	8a 32       	cpi	r24, 0x2A	; 42
    3420:	31 f4       	brne	.+12     	; 0x342e <playQuestionMedium+0x7de>
				score++;
    3422:	80 91 2f 06 	lds	r24, 0x062F	; 0x80062f <score>
    3426:	8f 5f       	subi	r24, 0xFF	; 255
    3428:	80 93 2f 06 	sts	0x062F, r24	; 0x80062f <score>
    342c:	3a c0       	rjmp	.+116    	; 0x34a2 <playQuestionMedium+0x852>
			}
			else
			score--;
    342e:	80 91 2f 06 	lds	r24, 0x062F	; 0x80062f <score>
    3432:	81 50       	subi	r24, 0x01	; 1
    3434:	80 93 2f 06 	sts	0x062F, r24	; 0x80062f <score>
    3438:	34 c0       	rjmp	.+104    	; 0x34a2 <playQuestionMedium+0x852>
		}
		if(q.qid == 18){
    343a:	e2 e1       	ldi	r30, 0x12	; 18
    343c:	ae 16       	cp	r10, r30
    343e:	b1 04       	cpc	r11, r1
    3440:	b1 f4       	brne	.+44     	; 0x346e <playQuestionMedium+0x81e>
			if(an[1] == '*' && an[2] == '-'){
    3442:	a7 96       	adiw	r28, 0x27	; 39
    3444:	8f ad       	ldd	r24, Y+63	; 0x3f
    3446:	a7 97       	sbiw	r28, 0x27	; 39
    3448:	8a 32       	cpi	r24, 0x2A	; 42
    344a:	59 f4       	brne	.+22     	; 0x3462 <playQuestionMedium+0x812>
    344c:	a8 96       	adiw	r28, 0x28	; 40
    344e:	8f ad       	ldd	r24, Y+63	; 0x3f
    3450:	a8 97       	sbiw	r28, 0x28	; 40
    3452:	8d 32       	cpi	r24, 0x2D	; 45
    3454:	31 f4       	brne	.+12     	; 0x3462 <playQuestionMedium+0x812>
				score++;
    3456:	80 91 2f 06 	lds	r24, 0x062F	; 0x80062f <score>
    345a:	8f 5f       	subi	r24, 0xFF	; 255
    345c:	80 93 2f 06 	sts	0x062F, r24	; 0x80062f <score>
    3460:	39 c0       	rjmp	.+114    	; 0x34d4 <playQuestionMedium+0x884>
			}
			else
			score--;
    3462:	80 91 2f 06 	lds	r24, 0x062F	; 0x80062f <score>
    3466:	81 50       	subi	r24, 0x01	; 1
    3468:	80 93 2f 06 	sts	0x062F, r24	; 0x80062f <score>
    346c:	33 c0       	rjmp	.+102    	; 0x34d4 <playQuestionMedium+0x884>
		}
		if(q.qid == 19){
    346e:	f3 e1       	ldi	r31, 0x13	; 19
    3470:	af 16       	cp	r10, r31
    3472:	b1 04       	cpc	r11, r1
    3474:	b1 f4       	brne	.+44     	; 0x34a2 <playQuestionMedium+0x852>
			if(an[1] == '/' && an[2] == '*'){
    3476:	a7 96       	adiw	r28, 0x27	; 39
    3478:	8f ad       	ldd	r24, Y+63	; 0x3f
    347a:	a7 97       	sbiw	r28, 0x27	; 39
    347c:	8f 32       	cpi	r24, 0x2F	; 47
    347e:	59 f4       	brne	.+22     	; 0x3496 <playQuestionMedium+0x846>
    3480:	a8 96       	adiw	r28, 0x28	; 40
    3482:	8f ad       	ldd	r24, Y+63	; 0x3f
    3484:	a8 97       	sbiw	r28, 0x28	; 40
    3486:	8a 32       	cpi	r24, 0x2A	; 42
    3488:	31 f4       	brne	.+12     	; 0x3496 <playQuestionMedium+0x846>
				score++;
    348a:	80 91 2f 06 	lds	r24, 0x062F	; 0x80062f <score>
    348e:	8f 5f       	subi	r24, 0xFF	; 255
    3490:	80 93 2f 06 	sts	0x062F, r24	; 0x80062f <score>
    3494:	1f c0       	rjmp	.+62     	; 0x34d4 <playQuestionMedium+0x884>
			}
			else
			score--;
    3496:	80 91 2f 06 	lds	r24, 0x062F	; 0x80062f <score>
    349a:	81 50       	subi	r24, 0x01	; 1
    349c:	80 93 2f 06 	sts	0x062F, r24	; 0x80062f <score>
    34a0:	19 c0       	rjmp	.+50     	; 0x34d4 <playQuestionMedium+0x884>
		}
		if(q.qid == 20){
    34a2:	84 e1       	ldi	r24, 0x14	; 20
    34a4:	a8 16       	cp	r10, r24
    34a6:	b1 04       	cpc	r11, r1
    34a8:	a9 f4       	brne	.+42     	; 0x34d4 <playQuestionMedium+0x884>
			if(an[1] == '/' && an[2] == '*'){
    34aa:	a7 96       	adiw	r28, 0x27	; 39
    34ac:	8f ad       	ldd	r24, Y+63	; 0x3f
    34ae:	a7 97       	sbiw	r28, 0x27	; 39
    34b0:	8f 32       	cpi	r24, 0x2F	; 47
    34b2:	59 f4       	brne	.+22     	; 0x34ca <playQuestionMedium+0x87a>
    34b4:	a8 96       	adiw	r28, 0x28	; 40
    34b6:	8f ad       	ldd	r24, Y+63	; 0x3f
    34b8:	a8 97       	sbiw	r28, 0x28	; 40
    34ba:	8a 32       	cpi	r24, 0x2A	; 42
    34bc:	31 f4       	brne	.+12     	; 0x34ca <playQuestionMedium+0x87a>
				score++;
    34be:	80 91 2f 06 	lds	r24, 0x062F	; 0x80062f <score>
    34c2:	8f 5f       	subi	r24, 0xFF	; 255
    34c4:	80 93 2f 06 	sts	0x062F, r24	; 0x80062f <score>
    34c8:	05 c0       	rjmp	.+10     	; 0x34d4 <playQuestionMedium+0x884>
			}
			else
			score--;
    34ca:	80 91 2f 06 	lds	r24, 0x062F	; 0x80062f <score>
    34ce:	81 50       	subi	r24, 0x01	; 1
    34d0:	80 93 2f 06 	sts	0x062F, r24	; 0x80062f <score>
		}
}
    34d4:	ce 55       	subi	r28, 0x5E	; 94
    34d6:	df 4f       	sbci	r29, 0xFF	; 255
    34d8:	0f b6       	in	r0, 0x3f	; 63
    34da:	f8 94       	cli
    34dc:	de bf       	out	0x3e, r29	; 62
    34de:	0f be       	out	0x3f, r0	; 63
    34e0:	cd bf       	out	0x3d, r28	; 61
    34e2:	df 91       	pop	r29
    34e4:	cf 91       	pop	r28
    34e6:	1f 91       	pop	r17
    34e8:	0f 91       	pop	r16
    34ea:	ff 90       	pop	r15
    34ec:	ef 90       	pop	r14
    34ee:	df 90       	pop	r13
    34f0:	cf 90       	pop	r12
    34f2:	bf 90       	pop	r11
    34f4:	af 90       	pop	r10
    34f6:	9f 90       	pop	r9
    34f8:	8f 90       	pop	r8
    34fa:	7f 90       	pop	r7
    34fc:	6f 90       	pop	r6
    34fe:	5f 90       	pop	r5
    3500:	4f 90       	pop	r4
    3502:	3f 90       	pop	r3
    3504:	2f 90       	pop	r2
    3506:	08 95       	ret

00003508 <playQuestionHard>:
void playQuestionHard(struct questionHard q){
    3508:	2f 92       	push	r2
    350a:	3f 92       	push	r3
    350c:	4f 92       	push	r4
    350e:	5f 92       	push	r5
    3510:	6f 92       	push	r6
    3512:	7f 92       	push	r7
    3514:	8f 92       	push	r8
    3516:	9f 92       	push	r9
    3518:	af 92       	push	r10
    351a:	bf 92       	push	r11
    351c:	cf 92       	push	r12
    351e:	df 92       	push	r13
    3520:	ef 92       	push	r14
    3522:	ff 92       	push	r15
    3524:	0f 93       	push	r16
    3526:	1f 93       	push	r17
    3528:	cf 93       	push	r28
    352a:	df 93       	push	r29
    352c:	cd b7       	in	r28, 0x3d	; 61
    352e:	de b7       	in	r29, 0x3e	; 62
    3530:	c4 5a       	subi	r28, 0xA4	; 164
    3532:	d1 09       	sbc	r29, r1
    3534:	0f b6       	in	r0, 0x3f	; 63
    3536:	f8 94       	cli
    3538:	de bf       	out	0x3e, r29	; 62
    353a:	0f be       	out	0x3f, r0	; 63
    353c:	cd bf       	out	0x3d, r28	; 61
    353e:	c9 56       	subi	r28, 0x69	; 105
    3540:	df 4f       	sbci	r29, 0xFF	; 255
    3542:	e8 82       	st	Y, r14
    3544:	c7 59       	subi	r28, 0x97	; 151
    3546:	d0 40       	sbci	r29, 0x00	; 0
    3548:	c8 56       	subi	r28, 0x68	; 104
    354a:	df 4f       	sbci	r29, 0xFF	; 255
    354c:	f8 82       	st	Y, r15
    354e:	c8 59       	subi	r28, 0x98	; 152
    3550:	d0 40       	sbci	r29, 0x00	; 0
    3552:	c7 56       	subi	r28, 0x67	; 103
    3554:	df 4f       	sbci	r29, 0xFF	; 255
    3556:	08 83       	st	Y, r16
    3558:	c9 59       	subi	r28, 0x99	; 153
    355a:	d0 40       	sbci	r29, 0x00	; 0
    355c:	c6 56       	subi	r28, 0x66	; 102
    355e:	df 4f       	sbci	r29, 0xFF	; 255
    3560:	18 83       	st	Y, r17
    3562:	ca 59       	subi	r28, 0x9A	; 154
    3564:	d0 40       	sbci	r29, 0x00	; 0
    3566:	c5 56       	subi	r28, 0x65	; 101
    3568:	df 4f       	sbci	r29, 0xFF	; 255
    356a:	28 83       	st	Y, r18
    356c:	cb 59       	subi	r28, 0x9B	; 155
    356e:	d0 40       	sbci	r29, 0x00	; 0
    3570:	c4 56       	subi	r28, 0x64	; 100
    3572:	df 4f       	sbci	r29, 0xFF	; 255
    3574:	38 83       	st	Y, r19
    3576:	cc 59       	subi	r28, 0x9C	; 156
    3578:	d0 40       	sbci	r29, 0x00	; 0
    357a:	c3 56       	subi	r28, 0x63	; 99
    357c:	df 4f       	sbci	r29, 0xFF	; 255
    357e:	48 83       	st	Y, r20
    3580:	cd 59       	subi	r28, 0x9D	; 157
    3582:	d0 40       	sbci	r29, 0x00	; 0
    3584:	c2 56       	subi	r28, 0x62	; 98
    3586:	df 4f       	sbci	r29, 0xFF	; 255
    3588:	58 83       	st	Y, r21
    358a:	ce 59       	subi	r28, 0x9E	; 158
    358c:	d0 40       	sbci	r29, 0x00	; 0
    358e:	c1 56       	subi	r28, 0x61	; 97
    3590:	df 4f       	sbci	r29, 0xFF	; 255
    3592:	68 83       	st	Y, r22
    3594:	cf 59       	subi	r28, 0x9F	; 159
    3596:	d0 40       	sbci	r29, 0x00	; 0
    3598:	c0 56       	subi	r28, 0x60	; 96
    359a:	df 4f       	sbci	r29, 0xFF	; 255
    359c:	78 83       	st	Y, r23
    359e:	c0 5a       	subi	r28, 0xA0	; 160
    35a0:	d0 40       	sbci	r29, 0x00	; 0
    35a2:	cf 55       	subi	r28, 0x5F	; 95
    35a4:	df 4f       	sbci	r29, 0xFF	; 255
    35a6:	88 83       	st	Y, r24
    35a8:	c1 5a       	subi	r28, 0xA1	; 161
    35aa:	d0 40       	sbci	r29, 0x00	; 0
    35ac:	ce 55       	subi	r28, 0x5E	; 94
    35ae:	df 4f       	sbci	r29, 0xFF	; 255
    35b0:	98 83       	st	Y, r25
    35b2:	c2 5a       	subi	r28, 0xA2	; 162
    35b4:	d0 40       	sbci	r29, 0x00	; 0
    35b6:	cf 55       	subi	r28, 0x5F	; 95
    35b8:	df 4f       	sbci	r29, 0xFF	; 255
    35ba:	a8 80       	ld	r10, Y
    35bc:	b9 80       	ldd	r11, Y+1	; 0x01
    35be:	c1 5a       	subi	r28, 0xA1	; 161
    35c0:	d0 40       	sbci	r29, 0x00	; 0
	
	char str[50];
	char str2[50];
	char an[50];	// answer string, will hold " +-" or something of that sort
	
	strcpy(str, q.n1);
    35c2:	c9 56       	subi	r28, 0x69	; 105
    35c4:	df 4f       	sbci	r29, 0xFF	; 255
    35c6:	68 81       	ld	r22, Y
    35c8:	79 81       	ldd	r23, Y+1	; 0x01
    35ca:	c7 59       	subi	r28, 0x97	; 151
    35cc:	d0 40       	sbci	r29, 0x00	; 0
    35ce:	8e 01       	movw	r16, r28
    35d0:	0f 5f       	subi	r16, 0xFF	; 255
    35d2:	1f 4f       	sbci	r17, 0xFF	; 255
    35d4:	c8 01       	movw	r24, r16
    35d6:	0e 94 bd 2f 	call	0x5f7a	; 0x5f7a <strcpy>
	strcat(str, " ");
    35da:	f8 01       	movw	r30, r16
    35dc:	01 90       	ld	r0, Z+
    35de:	00 20       	and	r0, r0
    35e0:	e9 f7       	brne	.-6      	; 0x35dc <playQuestionHard+0xd4>
    35e2:	31 97       	sbiw	r30, 0x01	; 1
    35e4:	68 94       	set
    35e6:	ee 24       	eor	r14, r14
    35e8:	e5 f8       	bld	r14, 5
    35ea:	f1 2c       	mov	r15, r1
    35ec:	f1 82       	std	Z+1, r15	; 0x01
    35ee:	e0 82       	st	Z, r14
	strcat(str, q.n2);
    35f0:	c7 56       	subi	r28, 0x67	; 103
    35f2:	df 4f       	sbci	r29, 0xFF	; 255
    35f4:	68 81       	ld	r22, Y
    35f6:	79 81       	ldd	r23, Y+1	; 0x01
    35f8:	c9 59       	subi	r28, 0x99	; 153
    35fa:	d0 40       	sbci	r29, 0x00	; 0
    35fc:	c8 01       	movw	r24, r16
    35fe:	0e 94 b2 2f 	call	0x5f64	; 0x5f64 <strcat>
	strcat(str, " ");
    3602:	f8 01       	movw	r30, r16
    3604:	01 90       	ld	r0, Z+
    3606:	00 20       	and	r0, r0
    3608:	e9 f7       	brne	.-6      	; 0x3604 <playQuestionHard+0xfc>
    360a:	31 97       	sbiw	r30, 0x01	; 1
    360c:	f1 82       	std	Z+1, r15	; 0x01
    360e:	e0 82       	st	Z, r14
	strcat(str, q.n3);
    3610:	c5 56       	subi	r28, 0x65	; 101
    3612:	df 4f       	sbci	r29, 0xFF	; 255
    3614:	68 81       	ld	r22, Y
    3616:	79 81       	ldd	r23, Y+1	; 0x01
    3618:	cb 59       	subi	r28, 0x9B	; 155
    361a:	d0 40       	sbci	r29, 0x00	; 0
    361c:	c8 01       	movw	r24, r16
    361e:	0e 94 b2 2f 	call	0x5f64	; 0x5f64 <strcat>
	strcat(str, " ");
    3622:	f8 01       	movw	r30, r16
    3624:	01 90       	ld	r0, Z+
    3626:	00 20       	and	r0, r0
    3628:	e9 f7       	brne	.-6      	; 0x3624 <playQuestionHard+0x11c>
    362a:	31 97       	sbiw	r30, 0x01	; 1
    362c:	f1 82       	std	Z+1, r15	; 0x01
    362e:	e0 82       	st	Z, r14
	strcat(str, q.n4);
    3630:	c3 56       	subi	r28, 0x63	; 99
    3632:	df 4f       	sbci	r29, 0xFF	; 255
    3634:	68 81       	ld	r22, Y
    3636:	79 81       	ldd	r23, Y+1	; 0x01
    3638:	cd 59       	subi	r28, 0x9D	; 157
    363a:	d0 40       	sbci	r29, 0x00	; 0
    363c:	c8 01       	movw	r24, r16
    363e:	0e 94 b2 2f 	call	0x5f64	; 0x5f64 <strcat>
	strcat(str, "=");
    3642:	f8 01       	movw	r30, r16
    3644:	01 90       	ld	r0, Z+
    3646:	00 20       	and	r0, r0
    3648:	e9 f7       	brne	.-6      	; 0x3644 <playQuestionHard+0x13c>
    364a:	31 97       	sbiw	r30, 0x01	; 1
    364c:	8d e3       	ldi	r24, 0x3D	; 61
    364e:	90 e0       	ldi	r25, 0x00	; 0
    3650:	91 83       	std	Z+1, r25	; 0x01
    3652:	80 83       	st	Z, r24
	strcat(str, q.ans);
    3654:	c1 56       	subi	r28, 0x61	; 97
    3656:	df 4f       	sbci	r29, 0xFF	; 255
    3658:	68 81       	ld	r22, Y
    365a:	79 81       	ldd	r23, Y+1	; 0x01
    365c:	cf 59       	subi	r28, 0x9F	; 159
    365e:	d0 40       	sbci	r29, 0x00	; 0
    3660:	c8 01       	movw	r24, r16
    3662:	0e 94 b2 2f 	call	0x5f64	; 0x5f64 <strcat>
	strcat(str, "            ");
    3666:	d8 01       	movw	r26, r16
    3668:	0d 90       	ld	r0, X+
    366a:	00 20       	and	r0, r0
    366c:	e9 f7       	brne	.-6      	; 0x3668 <playQuestionHard+0x160>
    366e:	11 97       	sbiw	r26, 0x01	; 1
    3670:	8d e0       	ldi	r24, 0x0D	; 13
    3672:	e6 e1       	ldi	r30, 0x16	; 22
    3674:	f6 e0       	ldi	r31, 0x06	; 6
    3676:	01 90       	ld	r0, Z+
    3678:	0d 92       	st	X+, r0
    367a:	8a 95       	dec	r24
    367c:	e1 f7       	brne	.-8      	; 0x3676 <playQuestionHard+0x16e>
	
	strcpy(str2, " ");
    367e:	fc aa       	std	Y+52, r15	; 0x34
    3680:	eb aa       	std	Y+51, r14	; 0x33
	strcpy(an, " ");
    3682:	a7 96       	adiw	r28, 0x27	; 39
    3684:	ff ae       	std	Y+63, r15	; 0x3f
    3686:	ee ae       	std	Y+62, r14	; 0x3e
    3688:	a7 97       	sbiw	r28, 0x27	; 39
	
	LCD_ClearScreen();
    368a:	0e 94 e5 01 	call	0x3ca	; 0x3ca <LCD_ClearScreen>
	LCD_Cursor(1);
    368e:	81 e0       	ldi	r24, 0x01	; 1
    3690:	0e 94 e8 01 	call	0x3d0	; 0x3d0 <LCD_Cursor>
    3694:	7e 01       	movw	r14, r28
    3696:	80 e1       	ldi	r24, 0x10	; 16
    3698:	e8 0e       	add	r14, r24
    369a:	f1 1c       	adc	r15, r1
	int i, str2length;
	str2length = 1;
	for(i = 0; i < 15; i++) {
		LCD_WriteData(str[i]);
    369c:	f8 01       	movw	r30, r16
    369e:	81 91       	ld	r24, Z+
    36a0:	8f 01       	movw	r16, r30
    36a2:	0e 94 ff 01 	call	0x3fe	; 0x3fe <LCD_WriteData>
	
	LCD_ClearScreen();
	LCD_Cursor(1);
	int i, str2length;
	str2length = 1;
	for(i = 0; i < 15; i++) {
    36a6:	0e 15       	cp	r16, r14
    36a8:	1f 05       	cpc	r17, r15
    36aa:	c1 f7       	brne	.-16     	; 0x369c <playQuestionHard+0x194>
		LCD_WriteData(str[i]);
	}
	LCD_Cursor(17);
    36ac:	81 e1       	ldi	r24, 0x11	; 17
    36ae:	0e 94 e8 01 	call	0x3d0	; 0x3d0 <LCD_Cursor>
	strcpy(an, " ");
	
	LCD_ClearScreen();
	LCD_Cursor(1);
	int i, str2length;
	str2length = 1;
    36b2:	cc 24       	eor	r12, r12
    36b4:	c3 94       	inc	r12
    36b6:	d1 2c       	mov	r13, r1
					timeRemaining = 0;
				}
				else
				timeRemaining++;
			}
			strcat(an, "*");
    36b8:	1e 01       	movw	r2, r28
    36ba:	f5 e6       	ldi	r31, 0x65	; 101
    36bc:	2f 0e       	add	r2, r31
    36be:	31 1c       	adc	r3, r1
			strcat(str2, "* ");
    36c0:	ce 01       	movw	r24, r28
    36c2:	c3 96       	adiw	r24, 0x33	; 51
    36c4:	cd 55       	subi	r28, 0x5D	; 93
    36c6:	df 4f       	sbci	r29, 0xFF	; 255
    36c8:	99 83       	std	Y+1, r25	; 0x01
    36ca:	88 83       	st	Y, r24
    36cc:	c3 5a       	subi	r28, 0xA3	; 163
    36ce:	d0 40       	sbci	r29, 0x00	; 0
					timeRemaining = 0;
				}
				else
				timeRemaining++;
			}
			strcat(an, "+");
    36d0:	0f 2e       	mov	r0, r31
    36d2:	fb e2       	ldi	r31, 0x2B	; 43
    36d4:	6f 2e       	mov	r6, r31
    36d6:	71 2c       	mov	r7, r1
    36d8:	f0 2d       	mov	r31, r0
			strcat(str2, "+ ");
    36da:	0f 2e       	mov	r0, r31
    36dc:	fb e2       	ldi	r31, 0x2B	; 43
    36de:	4f 2e       	mov	r4, r31
    36e0:	f0 e2       	ldi	r31, 0x20	; 32
    36e2:	5f 2e       	mov	r5, r31
    36e4:	f0 2d       	mov	r31, r0
			secPassed++;
			timeRemaining = 0;
		}
		else
		timeRemaining++;
		nokia_lcd_ingame(score, gameTime-secPassed);
    36e6:	0f 2e       	mov	r0, r31
    36e8:	fb e2       	ldi	r31, 0x2B	; 43
    36ea:	8f 2e       	mov	r8, r31
    36ec:	f6 e0       	ldi	r31, 0x06	; 6
    36ee:	9f 2e       	mov	r9, r31
    36f0:	f0 2d       	mov	r31, r0
	// PINA: 2 down
	// PINA: 3 left
	// PINA: 4 select
	while (str2length < 4)
	{
		if(!GetBit(PINA, 0)){
    36f2:	00 99       	sbic	0x00, 0	; 0
    36f4:	39 c0       	rjmp	.+114    	; 0x3768 <playQuestionHard+0x260>
			while(!GetBit(PINA, 0)){
				if(timeRemaining >= period1second){
    36f6:	20 91 05 01 	lds	r18, 0x0105	; 0x800105 <period1second>
    36fa:	30 91 06 01 	lds	r19, 0x0106	; 0x800106 <period1second+0x1>
    36fe:	1a c0       	rjmp	.+52     	; 0x3734 <playQuestionHard+0x22c>
    3700:	80 91 2d 06 	lds	r24, 0x062D	; 0x80062d <timeRemaining>
    3704:	90 91 2e 06 	lds	r25, 0x062E	; 0x80062e <timeRemaining+0x1>
    3708:	82 17       	cp	r24, r18
    370a:	93 07       	cpc	r25, r19
    370c:	70 f0       	brcs	.+28     	; 0x372a <playQuestionHard+0x222>
					secPassed++;
    370e:	80 91 2b 06 	lds	r24, 0x062B	; 0x80062b <secPassed>
    3712:	90 91 2c 06 	lds	r25, 0x062C	; 0x80062c <secPassed+0x1>
    3716:	01 96       	adiw	r24, 0x01	; 1
    3718:	90 93 2c 06 	sts	0x062C, r25	; 0x80062c <secPassed+0x1>
    371c:	80 93 2b 06 	sts	0x062B, r24	; 0x80062b <secPassed>
					timeRemaining = 0;
    3720:	10 92 2e 06 	sts	0x062E, r1	; 0x80062e <timeRemaining+0x1>
    3724:	10 92 2d 06 	sts	0x062D, r1	; 0x80062d <timeRemaining>
    3728:	05 c0       	rjmp	.+10     	; 0x3734 <playQuestionHard+0x22c>
				}
				else
				timeRemaining++;
    372a:	01 96       	adiw	r24, 0x01	; 1
    372c:	90 93 2e 06 	sts	0x062E, r25	; 0x80062e <timeRemaining+0x1>
    3730:	80 93 2d 06 	sts	0x062D, r24	; 0x80062d <timeRemaining>
	// PINA: 3 left
	// PINA: 4 select
	while (str2length < 4)
	{
		if(!GetBit(PINA, 0)){
			while(!GetBit(PINA, 0)){
    3734:	00 9b       	sbis	0x00, 0	; 0
    3736:	e4 cf       	rjmp	.-56     	; 0x3700 <playQuestionHard+0x1f8>
					timeRemaining = 0;
				}
				else
				timeRemaining++;
			}
			strcat(an, "+");
    3738:	f1 01       	movw	r30, r2
    373a:	01 90       	ld	r0, Z+
    373c:	00 20       	and	r0, r0
    373e:	e9 f7       	brne	.-6      	; 0x373a <playQuestionHard+0x232>
    3740:	31 97       	sbiw	r30, 0x01	; 1
    3742:	71 82       	std	Z+1, r7	; 0x01
    3744:	60 82       	st	Z, r6
			strcat(str2, "+ ");
    3746:	cd 55       	subi	r28, 0x5D	; 93
    3748:	df 4f       	sbci	r29, 0xFF	; 255
    374a:	e8 81       	ld	r30, Y
    374c:	f9 81       	ldd	r31, Y+1	; 0x01
    374e:	c3 5a       	subi	r28, 0xA3	; 163
    3750:	d0 40       	sbci	r29, 0x00	; 0
    3752:	01 90       	ld	r0, Z+
    3754:	00 20       	and	r0, r0
    3756:	e9 f7       	brne	.-6      	; 0x3752 <playQuestionHard+0x24a>
    3758:	31 97       	sbiw	r30, 0x01	; 1
    375a:	51 82       	std	Z+1, r5	; 0x01
    375c:	40 82       	st	Z, r4
    375e:	12 82       	std	Z+2, r1	; 0x02
			str2length++;
    3760:	9f ef       	ldi	r25, 0xFF	; 255
    3762:	c9 1a       	sub	r12, r25
    3764:	d9 0a       	sbc	r13, r25
    3766:	bc c0       	rjmp	.+376    	; 0x38e0 <playQuestionHard+0x3d8>
		}
		else if(!GetBit(PINA, 1)){
    3768:	01 99       	sbic	0x00, 1	; 0
    376a:	3d c0       	rjmp	.+122    	; 0x37e6 <playQuestionHard+0x2de>
			while(!GetBit(PINA, 1)){
				if(timeRemaining >= period1second){
    376c:	20 91 05 01 	lds	r18, 0x0105	; 0x800105 <period1second>
    3770:	30 91 06 01 	lds	r19, 0x0106	; 0x800106 <period1second+0x1>
    3774:	1a c0       	rjmp	.+52     	; 0x37aa <playQuestionHard+0x2a2>
    3776:	80 91 2d 06 	lds	r24, 0x062D	; 0x80062d <timeRemaining>
    377a:	90 91 2e 06 	lds	r25, 0x062E	; 0x80062e <timeRemaining+0x1>
    377e:	82 17       	cp	r24, r18
    3780:	93 07       	cpc	r25, r19
    3782:	70 f0       	brcs	.+28     	; 0x37a0 <playQuestionHard+0x298>
					secPassed++;
    3784:	80 91 2b 06 	lds	r24, 0x062B	; 0x80062b <secPassed>
    3788:	90 91 2c 06 	lds	r25, 0x062C	; 0x80062c <secPassed+0x1>
    378c:	01 96       	adiw	r24, 0x01	; 1
    378e:	90 93 2c 06 	sts	0x062C, r25	; 0x80062c <secPassed+0x1>
    3792:	80 93 2b 06 	sts	0x062B, r24	; 0x80062b <secPassed>
					timeRemaining = 0;
    3796:	10 92 2e 06 	sts	0x062E, r1	; 0x80062e <timeRemaining+0x1>
    379a:	10 92 2d 06 	sts	0x062D, r1	; 0x80062d <timeRemaining>
    379e:	05 c0       	rjmp	.+10     	; 0x37aa <playQuestionHard+0x2a2>
				}
				else
				timeRemaining++;
    37a0:	01 96       	adiw	r24, 0x01	; 1
    37a2:	90 93 2e 06 	sts	0x062E, r25	; 0x80062e <timeRemaining+0x1>
    37a6:	80 93 2d 06 	sts	0x062D, r24	; 0x80062d <timeRemaining>
			strcat(an, "+");
			strcat(str2, "+ ");
			str2length++;
		}
		else if(!GetBit(PINA, 1)){
			while(!GetBit(PINA, 1)){
    37aa:	01 9b       	sbis	0x00, 1	; 0
    37ac:	e4 cf       	rjmp	.-56     	; 0x3776 <playQuestionHard+0x26e>
					timeRemaining = 0;
				}
				else
				timeRemaining++;
			}
			strcat(an, "-");
    37ae:	f1 01       	movw	r30, r2
    37b0:	01 90       	ld	r0, Z+
    37b2:	00 20       	and	r0, r0
    37b4:	e9 f7       	brne	.-6      	; 0x37b0 <playQuestionHard+0x2a8>
    37b6:	31 97       	sbiw	r30, 0x01	; 1
    37b8:	8d e2       	ldi	r24, 0x2D	; 45
    37ba:	90 e0       	ldi	r25, 0x00	; 0
    37bc:	91 83       	std	Z+1, r25	; 0x01
    37be:	80 83       	st	Z, r24
			strcat(str2, "- ");
    37c0:	cd 55       	subi	r28, 0x5D	; 93
    37c2:	df 4f       	sbci	r29, 0xFF	; 255
    37c4:	e8 81       	ld	r30, Y
    37c6:	f9 81       	ldd	r31, Y+1	; 0x01
    37c8:	c3 5a       	subi	r28, 0xA3	; 163
    37ca:	d0 40       	sbci	r29, 0x00	; 0
    37cc:	01 90       	ld	r0, Z+
    37ce:	00 20       	and	r0, r0
    37d0:	e9 f7       	brne	.-6      	; 0x37cc <playQuestionHard+0x2c4>
    37d2:	31 97       	sbiw	r30, 0x01	; 1
    37d4:	8d e2       	ldi	r24, 0x2D	; 45
    37d6:	90 e2       	ldi	r25, 0x20	; 32
    37d8:	91 83       	std	Z+1, r25	; 0x01
    37da:	80 83       	st	Z, r24
    37dc:	12 82       	std	Z+2, r1	; 0x02
			str2length++;
    37de:	9f ef       	ldi	r25, 0xFF	; 255
    37e0:	c9 1a       	sub	r12, r25
    37e2:	d9 0a       	sbc	r13, r25
    37e4:	7d c0       	rjmp	.+250    	; 0x38e0 <playQuestionHard+0x3d8>
		}
		else if(!GetBit(PINA, 2)){
    37e6:	02 99       	sbic	0x00, 2	; 0
    37e8:	3d c0       	rjmp	.+122    	; 0x3864 <playQuestionHard+0x35c>
			while(!GetBit(PINA, 2)){
				if(timeRemaining >= period1second){
    37ea:	20 91 05 01 	lds	r18, 0x0105	; 0x800105 <period1second>
    37ee:	30 91 06 01 	lds	r19, 0x0106	; 0x800106 <period1second+0x1>
    37f2:	1a c0       	rjmp	.+52     	; 0x3828 <playQuestionHard+0x320>
    37f4:	80 91 2d 06 	lds	r24, 0x062D	; 0x80062d <timeRemaining>
    37f8:	90 91 2e 06 	lds	r25, 0x062E	; 0x80062e <timeRemaining+0x1>
    37fc:	82 17       	cp	r24, r18
    37fe:	93 07       	cpc	r25, r19
    3800:	70 f0       	brcs	.+28     	; 0x381e <playQuestionHard+0x316>
					secPassed++;
    3802:	80 91 2b 06 	lds	r24, 0x062B	; 0x80062b <secPassed>
    3806:	90 91 2c 06 	lds	r25, 0x062C	; 0x80062c <secPassed+0x1>
    380a:	01 96       	adiw	r24, 0x01	; 1
    380c:	90 93 2c 06 	sts	0x062C, r25	; 0x80062c <secPassed+0x1>
    3810:	80 93 2b 06 	sts	0x062B, r24	; 0x80062b <secPassed>
					timeRemaining = 0;
    3814:	10 92 2e 06 	sts	0x062E, r1	; 0x80062e <timeRemaining+0x1>
    3818:	10 92 2d 06 	sts	0x062D, r1	; 0x80062d <timeRemaining>
    381c:	05 c0       	rjmp	.+10     	; 0x3828 <playQuestionHard+0x320>
				}
				else
				timeRemaining++;
    381e:	01 96       	adiw	r24, 0x01	; 1
    3820:	90 93 2e 06 	sts	0x062E, r25	; 0x80062e <timeRemaining+0x1>
    3824:	80 93 2d 06 	sts	0x062D, r24	; 0x80062d <timeRemaining>
			strcat(an, "-");
			strcat(str2, "- ");
			str2length++;
		}
		else if(!GetBit(PINA, 2)){
			while(!GetBit(PINA, 2)){
    3828:	02 9b       	sbis	0x00, 2	; 0
    382a:	e4 cf       	rjmp	.-56     	; 0x37f4 <playQuestionHard+0x2ec>
					timeRemaining = 0;
				}
				else
				timeRemaining++;
			}
			strcat(an, "/");
    382c:	f1 01       	movw	r30, r2
    382e:	01 90       	ld	r0, Z+
    3830:	00 20       	and	r0, r0
    3832:	e9 f7       	brne	.-6      	; 0x382e <playQuestionHard+0x326>
    3834:	31 97       	sbiw	r30, 0x01	; 1
    3836:	8f e2       	ldi	r24, 0x2F	; 47
    3838:	90 e0       	ldi	r25, 0x00	; 0
    383a:	91 83       	std	Z+1, r25	; 0x01
    383c:	80 83       	st	Z, r24
			strcat(str2, "/ ");
    383e:	cd 55       	subi	r28, 0x5D	; 93
    3840:	df 4f       	sbci	r29, 0xFF	; 255
    3842:	e8 81       	ld	r30, Y
    3844:	f9 81       	ldd	r31, Y+1	; 0x01
    3846:	c3 5a       	subi	r28, 0xA3	; 163
    3848:	d0 40       	sbci	r29, 0x00	; 0
    384a:	01 90       	ld	r0, Z+
    384c:	00 20       	and	r0, r0
    384e:	e9 f7       	brne	.-6      	; 0x384a <playQuestionHard+0x342>
    3850:	31 97       	sbiw	r30, 0x01	; 1
    3852:	8f e2       	ldi	r24, 0x2F	; 47
    3854:	90 e2       	ldi	r25, 0x20	; 32
    3856:	91 83       	std	Z+1, r25	; 0x01
    3858:	80 83       	st	Z, r24
    385a:	12 82       	std	Z+2, r1	; 0x02
			str2length++;
    385c:	9f ef       	ldi	r25, 0xFF	; 255
    385e:	c9 1a       	sub	r12, r25
    3860:	d9 0a       	sbc	r13, r25
    3862:	3e c0       	rjmp	.+124    	; 0x38e0 <playQuestionHard+0x3d8>
		}
		else if(!GetBit(PINA, 3)){
    3864:	03 99       	sbic	0x00, 3	; 0
    3866:	3c c0       	rjmp	.+120    	; 0x38e0 <playQuestionHard+0x3d8>
			while(!GetBit(PINA, 3)){
				if(timeRemaining >= period1second){
    3868:	20 91 05 01 	lds	r18, 0x0105	; 0x800105 <period1second>
    386c:	30 91 06 01 	lds	r19, 0x0106	; 0x800106 <period1second+0x1>
    3870:	1a c0       	rjmp	.+52     	; 0x38a6 <playQuestionHard+0x39e>
    3872:	80 91 2d 06 	lds	r24, 0x062D	; 0x80062d <timeRemaining>
    3876:	90 91 2e 06 	lds	r25, 0x062E	; 0x80062e <timeRemaining+0x1>
    387a:	82 17       	cp	r24, r18
    387c:	93 07       	cpc	r25, r19
    387e:	70 f0       	brcs	.+28     	; 0x389c <playQuestionHard+0x394>
					secPassed++;
    3880:	80 91 2b 06 	lds	r24, 0x062B	; 0x80062b <secPassed>
    3884:	90 91 2c 06 	lds	r25, 0x062C	; 0x80062c <secPassed+0x1>
    3888:	01 96       	adiw	r24, 0x01	; 1
    388a:	90 93 2c 06 	sts	0x062C, r25	; 0x80062c <secPassed+0x1>
    388e:	80 93 2b 06 	sts	0x062B, r24	; 0x80062b <secPassed>
					timeRemaining = 0;
    3892:	10 92 2e 06 	sts	0x062E, r1	; 0x80062e <timeRemaining+0x1>
    3896:	10 92 2d 06 	sts	0x062D, r1	; 0x80062d <timeRemaining>
    389a:	05 c0       	rjmp	.+10     	; 0x38a6 <playQuestionHard+0x39e>
				}
				else
				timeRemaining++;
    389c:	01 96       	adiw	r24, 0x01	; 1
    389e:	90 93 2e 06 	sts	0x062E, r25	; 0x80062e <timeRemaining+0x1>
    38a2:	80 93 2d 06 	sts	0x062D, r24	; 0x80062d <timeRemaining>
			strcat(an, "/");
			strcat(str2, "/ ");
			str2length++;
		}
		else if(!GetBit(PINA, 3)){
			while(!GetBit(PINA, 3)){
    38a6:	03 9b       	sbis	0x00, 3	; 0
    38a8:	e4 cf       	rjmp	.-56     	; 0x3872 <playQuestionHard+0x36a>
					timeRemaining = 0;
				}
				else
				timeRemaining++;
			}
			strcat(an, "*");
    38aa:	f1 01       	movw	r30, r2
    38ac:	01 90       	ld	r0, Z+
    38ae:	00 20       	and	r0, r0
    38b0:	e9 f7       	brne	.-6      	; 0x38ac <playQuestionHard+0x3a4>
    38b2:	31 97       	sbiw	r30, 0x01	; 1
    38b4:	8a e2       	ldi	r24, 0x2A	; 42
    38b6:	90 e0       	ldi	r25, 0x00	; 0
    38b8:	91 83       	std	Z+1, r25	; 0x01
    38ba:	80 83       	st	Z, r24
			strcat(str2, "* ");
    38bc:	cd 55       	subi	r28, 0x5D	; 93
    38be:	df 4f       	sbci	r29, 0xFF	; 255
    38c0:	e8 81       	ld	r30, Y
    38c2:	f9 81       	ldd	r31, Y+1	; 0x01
    38c4:	c3 5a       	subi	r28, 0xA3	; 163
    38c6:	d0 40       	sbci	r29, 0x00	; 0
    38c8:	01 90       	ld	r0, Z+
    38ca:	00 20       	and	r0, r0
    38cc:	e9 f7       	brne	.-6      	; 0x38c8 <playQuestionHard+0x3c0>
    38ce:	31 97       	sbiw	r30, 0x01	; 1
    38d0:	8a e2       	ldi	r24, 0x2A	; 42
    38d2:	90 e2       	ldi	r25, 0x20	; 32
    38d4:	91 83       	std	Z+1, r25	; 0x01
    38d6:	80 83       	st	Z, r24
    38d8:	12 82       	std	Z+2, r1	; 0x02
			str2length++;
    38da:	9f ef       	ldi	r25, 0xFF	; 255
    38dc:	c9 1a       	sub	r12, r25
    38de:	d9 0a       	sbc	r13, r25
		}
		if(timeRemaining >= period1second){
    38e0:	80 91 2d 06 	lds	r24, 0x062D	; 0x80062d <timeRemaining>
    38e4:	90 91 2e 06 	lds	r25, 0x062E	; 0x80062e <timeRemaining+0x1>
    38e8:	20 91 05 01 	lds	r18, 0x0105	; 0x800105 <period1second>
    38ec:	30 91 06 01 	lds	r19, 0x0106	; 0x800106 <period1second+0x1>
    38f0:	82 17       	cp	r24, r18
    38f2:	93 07       	cpc	r25, r19
    38f4:	70 f0       	brcs	.+28     	; 0x3912 <playQuestionHard+0x40a>
			secPassed++;
    38f6:	80 91 2b 06 	lds	r24, 0x062B	; 0x80062b <secPassed>
    38fa:	90 91 2c 06 	lds	r25, 0x062C	; 0x80062c <secPassed+0x1>
    38fe:	01 96       	adiw	r24, 0x01	; 1
    3900:	90 93 2c 06 	sts	0x062C, r25	; 0x80062c <secPassed+0x1>
    3904:	80 93 2b 06 	sts	0x062B, r24	; 0x80062b <secPassed>
			timeRemaining = 0;
    3908:	10 92 2e 06 	sts	0x062E, r1	; 0x80062e <timeRemaining+0x1>
    390c:	10 92 2d 06 	sts	0x062D, r1	; 0x80062d <timeRemaining>
    3910:	05 c0       	rjmp	.+10     	; 0x391c <playQuestionHard+0x414>
		}
		else
		timeRemaining++;
    3912:	01 96       	adiw	r24, 0x01	; 1
    3914:	90 93 2e 06 	sts	0x062E, r25	; 0x80062e <timeRemaining+0x1>
    3918:	80 93 2d 06 	sts	0x062D, r24	; 0x80062d <timeRemaining>
		nokia_lcd_ingame(score, gameTime-secPassed);
    391c:	60 91 07 01 	lds	r22, 0x0107	; 0x800107 <gameTime>
    3920:	f4 01       	movw	r30, r8
    3922:	80 81       	ld	r24, Z
    3924:	68 1b       	sub	r22, r24
    3926:	80 91 2f 06 	lds	r24, 0x062F	; 0x80062f <score>
    392a:	0e 94 f3 03 	call	0x7e6	; 0x7e6 <nokia_lcd_ingame>
		//delay_ms(500);		// change this to not mess with timing
		LCD_Cursor(17);
    392e:	81 e1       	ldi	r24, 0x11	; 17
    3930:	0e 94 e8 01 	call	0x3d0	; 0x3d0 <LCD_Cursor>
		for(i = 0; i < str2length; i++) {
    3934:	1c 14       	cp	r1, r12
    3936:	1d 04       	cpc	r1, r13
    3938:	74 f4       	brge	.+28     	; 0x3956 <playQuestionHard+0x44e>
    393a:	8e 01       	movw	r16, r28
    393c:	0d 5c       	subi	r16, 0xCD	; 205
    393e:	1f 4f       	sbci	r17, 0xFF	; 255
    3940:	78 01       	movw	r14, r16
    3942:	ec 0c       	add	r14, r12
    3944:	fd 1c       	adc	r15, r13
			LCD_WriteData(str2[i]);
    3946:	f8 01       	movw	r30, r16
    3948:	81 91       	ld	r24, Z+
    394a:	8f 01       	movw	r16, r30
    394c:	0e 94 ff 01 	call	0x3fe	; 0x3fe <LCD_WriteData>
		else
		timeRemaining++;
		nokia_lcd_ingame(score, gameTime-secPassed);
		//delay_ms(500);		// change this to not mess with timing
		LCD_Cursor(17);
		for(i = 0; i < str2length; i++) {
    3950:	e0 16       	cp	r14, r16
    3952:	f1 06       	cpc	r15, r17
    3954:	c1 f7       	brne	.-16     	; 0x3946 <playQuestionHard+0x43e>
			LCD_WriteData(str2[i]);
		}
		if(secPassed >= gameTime){
    3956:	80 91 07 01 	lds	r24, 0x0107	; 0x800107 <gameTime>
    395a:	90 e0       	ldi	r25, 0x00	; 0
    395c:	20 91 2b 06 	lds	r18, 0x062B	; 0x80062b <secPassed>
    3960:	30 91 2c 06 	lds	r19, 0x062C	; 0x80062c <secPassed+0x1>
    3964:	28 17       	cp	r18, r24
    3966:	39 07       	cpc	r19, r25
    3968:	3c f0       	brlt	.+14     	; 0x3978 <playQuestionHard+0x470>
			endgame();
    396a:	0e 94 a3 13 	call	0x2746	; 0x2746 <endgame>
			inGame = 0;
    396e:	10 92 28 06 	sts	0x0628, r1	; 0x800628 <__data_end>
			inMenu = 1;
    3972:	f1 e0       	ldi	r31, 0x01	; 1
    3974:	f0 93 04 01 	sts	0x0104, r31	; 0x800104 <inMenu>
	// PINA: 0 up
	// PINA: 1 right
	// PINA: 2 down
	// PINA: 3 left
	// PINA: 4 select
	while (str2length < 4)
    3978:	84 e0       	ldi	r24, 0x04	; 4
    397a:	c8 16       	cp	r12, r24
    397c:	d1 04       	cpc	r13, r1
    397e:	0c f4       	brge	.+2      	; 0x3982 <playQuestionHard+0x47a>
    3980:	b8 ce       	rjmp	.-656    	; 0x36f2 <playQuestionHard+0x1ea>
			inMenu = 1;
		}
	}
	
	// Check answers here - question id's vs input
	if(q.qid == 0){
    3982:	a1 14       	cp	r10, r1
    3984:	b1 04       	cpc	r11, r1
    3986:	b1 f4       	brne	.+44     	; 0x39b4 <playQuestionHard+0x4ac>
		if(an[1] == '+' && an[2] == '+'){
    3988:	a7 96       	adiw	r28, 0x27	; 39
    398a:	8f ad       	ldd	r24, Y+63	; 0x3f
    398c:	a7 97       	sbiw	r28, 0x27	; 39
    398e:	8b 32       	cpi	r24, 0x2B	; 43
    3990:	59 f4       	brne	.+22     	; 0x39a8 <playQuestionHard+0x4a0>
    3992:	a8 96       	adiw	r28, 0x28	; 40
    3994:	8f ad       	ldd	r24, Y+63	; 0x3f
    3996:	a8 97       	sbiw	r28, 0x28	; 40
    3998:	8b 32       	cpi	r24, 0x2B	; 43
    399a:	31 f4       	brne	.+12     	; 0x39a8 <playQuestionHard+0x4a0>
			score++;
    399c:	80 91 2f 06 	lds	r24, 0x062F	; 0x80062f <score>
    39a0:	8f 5f       	subi	r24, 0xFF	; 255
    39a2:	80 93 2f 06 	sts	0x062F, r24	; 0x80062f <score>
    39a6:	3a c0       	rjmp	.+116    	; 0x3a1c <playQuestionHard+0x514>
		}
		else
		score--;
    39a8:	80 91 2f 06 	lds	r24, 0x062F	; 0x80062f <score>
    39ac:	81 50       	subi	r24, 0x01	; 1
    39ae:	80 93 2f 06 	sts	0x062F, r24	; 0x80062f <score>
    39b2:	34 c0       	rjmp	.+104    	; 0x3a1c <playQuestionHard+0x514>
	}
	if(q.qid == 1){
    39b4:	91 e0       	ldi	r25, 0x01	; 1
    39b6:	a9 16       	cp	r10, r25
    39b8:	b1 04       	cpc	r11, r1
    39ba:	b1 f4       	brne	.+44     	; 0x39e8 <playQuestionHard+0x4e0>
		if(an[1] == '+' && an[2] == '*'){
    39bc:	a7 96       	adiw	r28, 0x27	; 39
    39be:	8f ad       	ldd	r24, Y+63	; 0x3f
    39c0:	a7 97       	sbiw	r28, 0x27	; 39
    39c2:	8b 32       	cpi	r24, 0x2B	; 43
    39c4:	59 f4       	brne	.+22     	; 0x39dc <playQuestionHard+0x4d4>
    39c6:	a8 96       	adiw	r28, 0x28	; 40
    39c8:	8f ad       	ldd	r24, Y+63	; 0x3f
    39ca:	a8 97       	sbiw	r28, 0x28	; 40
    39cc:	8a 32       	cpi	r24, 0x2A	; 42
    39ce:	31 f4       	brne	.+12     	; 0x39dc <playQuestionHard+0x4d4>
			score++;
    39d0:	80 91 2f 06 	lds	r24, 0x062F	; 0x80062f <score>
    39d4:	8f 5f       	subi	r24, 0xFF	; 255
    39d6:	80 93 2f 06 	sts	0x062F, r24	; 0x80062f <score>
    39da:	3a c0       	rjmp	.+116    	; 0x3a50 <playQuestionHard+0x548>
		}
		else
		score--;
    39dc:	80 91 2f 06 	lds	r24, 0x062F	; 0x80062f <score>
    39e0:	81 50       	subi	r24, 0x01	; 1
    39e2:	80 93 2f 06 	sts	0x062F, r24	; 0x80062f <score>
    39e6:	34 c0       	rjmp	.+104    	; 0x3a50 <playQuestionHard+0x548>
	}
	if(q.qid == 2){
    39e8:	e2 e0       	ldi	r30, 0x02	; 2
    39ea:	ae 16       	cp	r10, r30
    39ec:	b1 04       	cpc	r11, r1
    39ee:	b1 f4       	brne	.+44     	; 0x3a1c <playQuestionHard+0x514>
		if(an[1] == '*' && an[2] == '+'){
    39f0:	a7 96       	adiw	r28, 0x27	; 39
    39f2:	8f ad       	ldd	r24, Y+63	; 0x3f
    39f4:	a7 97       	sbiw	r28, 0x27	; 39
    39f6:	8a 32       	cpi	r24, 0x2A	; 42
    39f8:	59 f4       	brne	.+22     	; 0x3a10 <playQuestionHard+0x508>
    39fa:	a8 96       	adiw	r28, 0x28	; 40
    39fc:	8f ad       	ldd	r24, Y+63	; 0x3f
    39fe:	a8 97       	sbiw	r28, 0x28	; 40
    3a00:	8b 32       	cpi	r24, 0x2B	; 43
    3a02:	31 f4       	brne	.+12     	; 0x3a10 <playQuestionHard+0x508>
			score++;
    3a04:	80 91 2f 06 	lds	r24, 0x062F	; 0x80062f <score>
    3a08:	8f 5f       	subi	r24, 0xFF	; 255
    3a0a:	80 93 2f 06 	sts	0x062F, r24	; 0x80062f <score>
    3a0e:	3a c0       	rjmp	.+116    	; 0x3a84 <playQuestionHard+0x57c>
		}
		else
		score--;
    3a10:	80 91 2f 06 	lds	r24, 0x062F	; 0x80062f <score>
    3a14:	81 50       	subi	r24, 0x01	; 1
    3a16:	80 93 2f 06 	sts	0x062F, r24	; 0x80062f <score>
    3a1a:	34 c0       	rjmp	.+104    	; 0x3a84 <playQuestionHard+0x57c>
	}
	if(q.qid == 3){
    3a1c:	f3 e0       	ldi	r31, 0x03	; 3
    3a1e:	af 16       	cp	r10, r31
    3a20:	b1 04       	cpc	r11, r1
    3a22:	b1 f4       	brne	.+44     	; 0x3a50 <playQuestionHard+0x548>
		if(an[1] == '*' && an[2] == '-'){
    3a24:	a7 96       	adiw	r28, 0x27	; 39
    3a26:	8f ad       	ldd	r24, Y+63	; 0x3f
    3a28:	a7 97       	sbiw	r28, 0x27	; 39
    3a2a:	8a 32       	cpi	r24, 0x2A	; 42
    3a2c:	59 f4       	brne	.+22     	; 0x3a44 <playQuestionHard+0x53c>
    3a2e:	a8 96       	adiw	r28, 0x28	; 40
    3a30:	8f ad       	ldd	r24, Y+63	; 0x3f
    3a32:	a8 97       	sbiw	r28, 0x28	; 40
    3a34:	8d 32       	cpi	r24, 0x2D	; 45
    3a36:	31 f4       	brne	.+12     	; 0x3a44 <playQuestionHard+0x53c>
			score++;
    3a38:	80 91 2f 06 	lds	r24, 0x062F	; 0x80062f <score>
    3a3c:	8f 5f       	subi	r24, 0xFF	; 255
    3a3e:	80 93 2f 06 	sts	0x062F, r24	; 0x80062f <score>
    3a42:	3a c0       	rjmp	.+116    	; 0x3ab8 <playQuestionHard+0x5b0>
		}
		else
		score--;
    3a44:	80 91 2f 06 	lds	r24, 0x062F	; 0x80062f <score>
    3a48:	81 50       	subi	r24, 0x01	; 1
    3a4a:	80 93 2f 06 	sts	0x062F, r24	; 0x80062f <score>
    3a4e:	34 c0       	rjmp	.+104    	; 0x3ab8 <playQuestionHard+0x5b0>
	}
	if(q.qid == 4){
    3a50:	84 e0       	ldi	r24, 0x04	; 4
    3a52:	a8 16       	cp	r10, r24
    3a54:	b1 04       	cpc	r11, r1
    3a56:	b1 f4       	brne	.+44     	; 0x3a84 <playQuestionHard+0x57c>
		if(an[1] == '-' && an[2] == '/'){
    3a58:	a7 96       	adiw	r28, 0x27	; 39
    3a5a:	8f ad       	ldd	r24, Y+63	; 0x3f
    3a5c:	a7 97       	sbiw	r28, 0x27	; 39
    3a5e:	8d 32       	cpi	r24, 0x2D	; 45
    3a60:	59 f4       	brne	.+22     	; 0x3a78 <playQuestionHard+0x570>
    3a62:	a8 96       	adiw	r28, 0x28	; 40
    3a64:	8f ad       	ldd	r24, Y+63	; 0x3f
    3a66:	a8 97       	sbiw	r28, 0x28	; 40
    3a68:	8f 32       	cpi	r24, 0x2F	; 47
    3a6a:	31 f4       	brne	.+12     	; 0x3a78 <playQuestionHard+0x570>
			score++;
    3a6c:	80 91 2f 06 	lds	r24, 0x062F	; 0x80062f <score>
    3a70:	8f 5f       	subi	r24, 0xFF	; 255
    3a72:	80 93 2f 06 	sts	0x062F, r24	; 0x80062f <score>
    3a76:	3a c0       	rjmp	.+116    	; 0x3aec <playQuestionHard+0x5e4>
		}
		else
		score--;
    3a78:	80 91 2f 06 	lds	r24, 0x062F	; 0x80062f <score>
    3a7c:	81 50       	subi	r24, 0x01	; 1
    3a7e:	80 93 2f 06 	sts	0x062F, r24	; 0x80062f <score>
    3a82:	34 c0       	rjmp	.+104    	; 0x3aec <playQuestionHard+0x5e4>
	}
	if(q.qid == 5){
    3a84:	95 e0       	ldi	r25, 0x05	; 5
    3a86:	a9 16       	cp	r10, r25
    3a88:	b1 04       	cpc	r11, r1
    3a8a:	b1 f4       	brne	.+44     	; 0x3ab8 <playQuestionHard+0x5b0>
		if(an[1] == '/' && an[2] == '+'){
    3a8c:	a7 96       	adiw	r28, 0x27	; 39
    3a8e:	8f ad       	ldd	r24, Y+63	; 0x3f
    3a90:	a7 97       	sbiw	r28, 0x27	; 39
    3a92:	8f 32       	cpi	r24, 0x2F	; 47
    3a94:	59 f4       	brne	.+22     	; 0x3aac <playQuestionHard+0x5a4>
    3a96:	a8 96       	adiw	r28, 0x28	; 40
    3a98:	8f ad       	ldd	r24, Y+63	; 0x3f
    3a9a:	a8 97       	sbiw	r28, 0x28	; 40
    3a9c:	8b 32       	cpi	r24, 0x2B	; 43
    3a9e:	31 f4       	brne	.+12     	; 0x3aac <playQuestionHard+0x5a4>
			score++;
    3aa0:	80 91 2f 06 	lds	r24, 0x062F	; 0x80062f <score>
    3aa4:	8f 5f       	subi	r24, 0xFF	; 255
    3aa6:	80 93 2f 06 	sts	0x062F, r24	; 0x80062f <score>
    3aaa:	3a c0       	rjmp	.+116    	; 0x3b20 <playQuestionHard+0x618>
		}
		else
		score--;
    3aac:	80 91 2f 06 	lds	r24, 0x062F	; 0x80062f <score>
    3ab0:	81 50       	subi	r24, 0x01	; 1
    3ab2:	80 93 2f 06 	sts	0x062F, r24	; 0x80062f <score>
    3ab6:	34 c0       	rjmp	.+104    	; 0x3b20 <playQuestionHard+0x618>
	}
	if(q.qid == 6){
    3ab8:	e6 e0       	ldi	r30, 0x06	; 6
    3aba:	ae 16       	cp	r10, r30
    3abc:	b1 04       	cpc	r11, r1
    3abe:	b1 f4       	brne	.+44     	; 0x3aec <playQuestionHard+0x5e4>
		if(an[1] == '+' && an[2] == '/'){
    3ac0:	a7 96       	adiw	r28, 0x27	; 39
    3ac2:	8f ad       	ldd	r24, Y+63	; 0x3f
    3ac4:	a7 97       	sbiw	r28, 0x27	; 39
    3ac6:	8b 32       	cpi	r24, 0x2B	; 43
    3ac8:	59 f4       	brne	.+22     	; 0x3ae0 <playQuestionHard+0x5d8>
    3aca:	a8 96       	adiw	r28, 0x28	; 40
    3acc:	8f ad       	ldd	r24, Y+63	; 0x3f
    3ace:	a8 97       	sbiw	r28, 0x28	; 40
    3ad0:	8f 32       	cpi	r24, 0x2F	; 47
    3ad2:	31 f4       	brne	.+12     	; 0x3ae0 <playQuestionHard+0x5d8>
			score++;
    3ad4:	80 91 2f 06 	lds	r24, 0x062F	; 0x80062f <score>
    3ad8:	8f 5f       	subi	r24, 0xFF	; 255
    3ada:	80 93 2f 06 	sts	0x062F, r24	; 0x80062f <score>
    3ade:	3a c0       	rjmp	.+116    	; 0x3b54 <playQuestionHard+0x64c>
		}
		else
		score--;
    3ae0:	80 91 2f 06 	lds	r24, 0x062F	; 0x80062f <score>
    3ae4:	81 50       	subi	r24, 0x01	; 1
    3ae6:	80 93 2f 06 	sts	0x062F, r24	; 0x80062f <score>
    3aea:	34 c0       	rjmp	.+104    	; 0x3b54 <playQuestionHard+0x64c>
	}
	if(q.qid == 7){
    3aec:	f7 e0       	ldi	r31, 0x07	; 7
    3aee:	af 16       	cp	r10, r31
    3af0:	b1 04       	cpc	r11, r1
    3af2:	b1 f4       	brne	.+44     	; 0x3b20 <playQuestionHard+0x618>
		if(an[1] == '-' && an[2] == '+'){
    3af4:	a7 96       	adiw	r28, 0x27	; 39
    3af6:	8f ad       	ldd	r24, Y+63	; 0x3f
    3af8:	a7 97       	sbiw	r28, 0x27	; 39
    3afa:	8d 32       	cpi	r24, 0x2D	; 45
    3afc:	59 f4       	brne	.+22     	; 0x3b14 <playQuestionHard+0x60c>
    3afe:	a8 96       	adiw	r28, 0x28	; 40
    3b00:	8f ad       	ldd	r24, Y+63	; 0x3f
    3b02:	a8 97       	sbiw	r28, 0x28	; 40
    3b04:	8b 32       	cpi	r24, 0x2B	; 43
    3b06:	31 f4       	brne	.+12     	; 0x3b14 <playQuestionHard+0x60c>
			score++;
    3b08:	80 91 2f 06 	lds	r24, 0x062F	; 0x80062f <score>
    3b0c:	8f 5f       	subi	r24, 0xFF	; 255
    3b0e:	80 93 2f 06 	sts	0x062F, r24	; 0x80062f <score>
    3b12:	3a c0       	rjmp	.+116    	; 0x3b88 <playQuestionHard+0x680>
		}
		else
		score--;
    3b14:	80 91 2f 06 	lds	r24, 0x062F	; 0x80062f <score>
    3b18:	81 50       	subi	r24, 0x01	; 1
    3b1a:	80 93 2f 06 	sts	0x062F, r24	; 0x80062f <score>
    3b1e:	34 c0       	rjmp	.+104    	; 0x3b88 <playQuestionHard+0x680>
	}
	if(q.qid == 8){
    3b20:	88 e0       	ldi	r24, 0x08	; 8
    3b22:	a8 16       	cp	r10, r24
    3b24:	b1 04       	cpc	r11, r1
    3b26:	b1 f4       	brne	.+44     	; 0x3b54 <playQuestionHard+0x64c>
		if(an[1] == '*' && an[2] == '*'){
    3b28:	a7 96       	adiw	r28, 0x27	; 39
    3b2a:	8f ad       	ldd	r24, Y+63	; 0x3f
    3b2c:	a7 97       	sbiw	r28, 0x27	; 39
    3b2e:	8a 32       	cpi	r24, 0x2A	; 42
    3b30:	59 f4       	brne	.+22     	; 0x3b48 <playQuestionHard+0x640>
    3b32:	a8 96       	adiw	r28, 0x28	; 40
    3b34:	8f ad       	ldd	r24, Y+63	; 0x3f
    3b36:	a8 97       	sbiw	r28, 0x28	; 40
    3b38:	8a 32       	cpi	r24, 0x2A	; 42
    3b3a:	31 f4       	brne	.+12     	; 0x3b48 <playQuestionHard+0x640>
			score++;
    3b3c:	80 91 2f 06 	lds	r24, 0x062F	; 0x80062f <score>
    3b40:	8f 5f       	subi	r24, 0xFF	; 255
    3b42:	80 93 2f 06 	sts	0x062F, r24	; 0x80062f <score>
    3b46:	3a c0       	rjmp	.+116    	; 0x3bbc <playQuestionHard+0x6b4>
		}
		else
		score--;
    3b48:	80 91 2f 06 	lds	r24, 0x062F	; 0x80062f <score>
    3b4c:	81 50       	subi	r24, 0x01	; 1
    3b4e:	80 93 2f 06 	sts	0x062F, r24	; 0x80062f <score>
    3b52:	34 c0       	rjmp	.+104    	; 0x3bbc <playQuestionHard+0x6b4>
	}
	if(q.qid == 9){
    3b54:	99 e0       	ldi	r25, 0x09	; 9
    3b56:	a9 16       	cp	r10, r25
    3b58:	b1 04       	cpc	r11, r1
    3b5a:	b1 f4       	brne	.+44     	; 0x3b88 <playQuestionHard+0x680>
		if(an[1] == '-' && an[2] == '*'){
    3b5c:	a7 96       	adiw	r28, 0x27	; 39
    3b5e:	8f ad       	ldd	r24, Y+63	; 0x3f
    3b60:	a7 97       	sbiw	r28, 0x27	; 39
    3b62:	8d 32       	cpi	r24, 0x2D	; 45
    3b64:	59 f4       	brne	.+22     	; 0x3b7c <playQuestionHard+0x674>
    3b66:	a8 96       	adiw	r28, 0x28	; 40
    3b68:	8f ad       	ldd	r24, Y+63	; 0x3f
    3b6a:	a8 97       	sbiw	r28, 0x28	; 40
    3b6c:	8a 32       	cpi	r24, 0x2A	; 42
    3b6e:	31 f4       	brne	.+12     	; 0x3b7c <playQuestionHard+0x674>
			score++;
    3b70:	80 91 2f 06 	lds	r24, 0x062F	; 0x80062f <score>
    3b74:	8f 5f       	subi	r24, 0xFF	; 255
    3b76:	80 93 2f 06 	sts	0x062F, r24	; 0x80062f <score>
    3b7a:	3a c0       	rjmp	.+116    	; 0x3bf0 <playQuestionHard+0x6e8>
		}
		else
		score--;
    3b7c:	80 91 2f 06 	lds	r24, 0x062F	; 0x80062f <score>
    3b80:	81 50       	subi	r24, 0x01	; 1
    3b82:	80 93 2f 06 	sts	0x062F, r24	; 0x80062f <score>
    3b86:	34 c0       	rjmp	.+104    	; 0x3bf0 <playQuestionHard+0x6e8>
	}
	if(q.qid == 10){
    3b88:	ea e0       	ldi	r30, 0x0A	; 10
    3b8a:	ae 16       	cp	r10, r30
    3b8c:	b1 04       	cpc	r11, r1
    3b8e:	b1 f4       	brne	.+44     	; 0x3bbc <playQuestionHard+0x6b4>
		if(an[1] == '/' && an[2] == '/'){
    3b90:	a7 96       	adiw	r28, 0x27	; 39
    3b92:	8f ad       	ldd	r24, Y+63	; 0x3f
    3b94:	a7 97       	sbiw	r28, 0x27	; 39
    3b96:	8f 32       	cpi	r24, 0x2F	; 47
    3b98:	59 f4       	brne	.+22     	; 0x3bb0 <playQuestionHard+0x6a8>
    3b9a:	a8 96       	adiw	r28, 0x28	; 40
    3b9c:	8f ad       	ldd	r24, Y+63	; 0x3f
    3b9e:	a8 97       	sbiw	r28, 0x28	; 40
    3ba0:	8f 32       	cpi	r24, 0x2F	; 47
    3ba2:	31 f4       	brne	.+12     	; 0x3bb0 <playQuestionHard+0x6a8>
			score++;
    3ba4:	80 91 2f 06 	lds	r24, 0x062F	; 0x80062f <score>
    3ba8:	8f 5f       	subi	r24, 0xFF	; 255
    3baa:	80 93 2f 06 	sts	0x062F, r24	; 0x80062f <score>
    3bae:	3a c0       	rjmp	.+116    	; 0x3c24 <playQuestionHard+0x71c>
		}
		else
		score--;
    3bb0:	80 91 2f 06 	lds	r24, 0x062F	; 0x80062f <score>
    3bb4:	81 50       	subi	r24, 0x01	; 1
    3bb6:	80 93 2f 06 	sts	0x062F, r24	; 0x80062f <score>
    3bba:	34 c0       	rjmp	.+104    	; 0x3c24 <playQuestionHard+0x71c>
	}
	if(q.qid == 11){
    3bbc:	fb e0       	ldi	r31, 0x0B	; 11
    3bbe:	af 16       	cp	r10, r31
    3bc0:	b1 04       	cpc	r11, r1
    3bc2:	b1 f4       	brne	.+44     	; 0x3bf0 <playQuestionHard+0x6e8>
		if(an[1] == '*' && an[2] == '+'){
    3bc4:	a7 96       	adiw	r28, 0x27	; 39
    3bc6:	8f ad       	ldd	r24, Y+63	; 0x3f
    3bc8:	a7 97       	sbiw	r28, 0x27	; 39
    3bca:	8a 32       	cpi	r24, 0x2A	; 42
    3bcc:	59 f4       	brne	.+22     	; 0x3be4 <playQuestionHard+0x6dc>
    3bce:	a8 96       	adiw	r28, 0x28	; 40
    3bd0:	8f ad       	ldd	r24, Y+63	; 0x3f
    3bd2:	a8 97       	sbiw	r28, 0x28	; 40
    3bd4:	8b 32       	cpi	r24, 0x2B	; 43
    3bd6:	31 f4       	brne	.+12     	; 0x3be4 <playQuestionHard+0x6dc>
			score++;
    3bd8:	80 91 2f 06 	lds	r24, 0x062F	; 0x80062f <score>
    3bdc:	8f 5f       	subi	r24, 0xFF	; 255
    3bde:	80 93 2f 06 	sts	0x062F, r24	; 0x80062f <score>
    3be2:	3a c0       	rjmp	.+116    	; 0x3c58 <playQuestionHard+0x750>
		}
		else
		score--;
    3be4:	80 91 2f 06 	lds	r24, 0x062F	; 0x80062f <score>
    3be8:	81 50       	subi	r24, 0x01	; 1
    3bea:	80 93 2f 06 	sts	0x062F, r24	; 0x80062f <score>
    3bee:	34 c0       	rjmp	.+104    	; 0x3c58 <playQuestionHard+0x750>
	}
	if(q.qid == 12){
    3bf0:	8c e0       	ldi	r24, 0x0C	; 12
    3bf2:	a8 16       	cp	r10, r24
    3bf4:	b1 04       	cpc	r11, r1
    3bf6:	b1 f4       	brne	.+44     	; 0x3c24 <playQuestionHard+0x71c>
		if(an[1] == '+' && an[2] == '*'){
    3bf8:	a7 96       	adiw	r28, 0x27	; 39
    3bfa:	8f ad       	ldd	r24, Y+63	; 0x3f
    3bfc:	a7 97       	sbiw	r28, 0x27	; 39
    3bfe:	8b 32       	cpi	r24, 0x2B	; 43
    3c00:	59 f4       	brne	.+22     	; 0x3c18 <playQuestionHard+0x710>
    3c02:	a8 96       	adiw	r28, 0x28	; 40
    3c04:	8f ad       	ldd	r24, Y+63	; 0x3f
    3c06:	a8 97       	sbiw	r28, 0x28	; 40
    3c08:	8a 32       	cpi	r24, 0x2A	; 42
    3c0a:	31 f4       	brne	.+12     	; 0x3c18 <playQuestionHard+0x710>
			score++;
    3c0c:	80 91 2f 06 	lds	r24, 0x062F	; 0x80062f <score>
    3c10:	8f 5f       	subi	r24, 0xFF	; 255
    3c12:	80 93 2f 06 	sts	0x062F, r24	; 0x80062f <score>
    3c16:	3a c0       	rjmp	.+116    	; 0x3c8c <playQuestionHard+0x784>
		}
		else
		score--;
    3c18:	80 91 2f 06 	lds	r24, 0x062F	; 0x80062f <score>
    3c1c:	81 50       	subi	r24, 0x01	; 1
    3c1e:	80 93 2f 06 	sts	0x062F, r24	; 0x80062f <score>
    3c22:	34 c0       	rjmp	.+104    	; 0x3c8c <playQuestionHard+0x784>
	}
	if(q.qid == 13){
    3c24:	9d e0       	ldi	r25, 0x0D	; 13
    3c26:	a9 16       	cp	r10, r25
    3c28:	b1 04       	cpc	r11, r1
    3c2a:	b1 f4       	brne	.+44     	; 0x3c58 <playQuestionHard+0x750>
		if(an[1] == '+' && an[2] == '/'){
    3c2c:	a7 96       	adiw	r28, 0x27	; 39
    3c2e:	8f ad       	ldd	r24, Y+63	; 0x3f
    3c30:	a7 97       	sbiw	r28, 0x27	; 39
    3c32:	8b 32       	cpi	r24, 0x2B	; 43
    3c34:	59 f4       	brne	.+22     	; 0x3c4c <playQuestionHard+0x744>
    3c36:	a8 96       	adiw	r28, 0x28	; 40
    3c38:	8f ad       	ldd	r24, Y+63	; 0x3f
    3c3a:	a8 97       	sbiw	r28, 0x28	; 40
    3c3c:	8f 32       	cpi	r24, 0x2F	; 47
    3c3e:	31 f4       	brne	.+12     	; 0x3c4c <playQuestionHard+0x744>
			score++;
    3c40:	80 91 2f 06 	lds	r24, 0x062F	; 0x80062f <score>
    3c44:	8f 5f       	subi	r24, 0xFF	; 255
    3c46:	80 93 2f 06 	sts	0x062F, r24	; 0x80062f <score>
    3c4a:	3a c0       	rjmp	.+116    	; 0x3cc0 <playQuestionHard+0x7b8>
		}
		else
		score--;
    3c4c:	80 91 2f 06 	lds	r24, 0x062F	; 0x80062f <score>
    3c50:	81 50       	subi	r24, 0x01	; 1
    3c52:	80 93 2f 06 	sts	0x062F, r24	; 0x80062f <score>
    3c56:	34 c0       	rjmp	.+104    	; 0x3cc0 <playQuestionHard+0x7b8>
	}
	if(q.qid == 14){
    3c58:	ee e0       	ldi	r30, 0x0E	; 14
    3c5a:	ae 16       	cp	r10, r30
    3c5c:	b1 04       	cpc	r11, r1
    3c5e:	b1 f4       	brne	.+44     	; 0x3c8c <playQuestionHard+0x784>
		if(an[1] == '*' && an[2] == '-'){
    3c60:	a7 96       	adiw	r28, 0x27	; 39
    3c62:	8f ad       	ldd	r24, Y+63	; 0x3f
    3c64:	a7 97       	sbiw	r28, 0x27	; 39
    3c66:	8a 32       	cpi	r24, 0x2A	; 42
    3c68:	59 f4       	brne	.+22     	; 0x3c80 <playQuestionHard+0x778>
    3c6a:	a8 96       	adiw	r28, 0x28	; 40
    3c6c:	8f ad       	ldd	r24, Y+63	; 0x3f
    3c6e:	a8 97       	sbiw	r28, 0x28	; 40
    3c70:	8d 32       	cpi	r24, 0x2D	; 45
    3c72:	31 f4       	brne	.+12     	; 0x3c80 <playQuestionHard+0x778>
			score++;
    3c74:	80 91 2f 06 	lds	r24, 0x062F	; 0x80062f <score>
    3c78:	8f 5f       	subi	r24, 0xFF	; 255
    3c7a:	80 93 2f 06 	sts	0x062F, r24	; 0x80062f <score>
    3c7e:	3a c0       	rjmp	.+116    	; 0x3cf4 <playQuestionHard+0x7ec>
		}
		else
		score--;
    3c80:	80 91 2f 06 	lds	r24, 0x062F	; 0x80062f <score>
    3c84:	81 50       	subi	r24, 0x01	; 1
    3c86:	80 93 2f 06 	sts	0x062F, r24	; 0x80062f <score>
    3c8a:	34 c0       	rjmp	.+104    	; 0x3cf4 <playQuestionHard+0x7ec>
	}
	if(q.qid == 15){
    3c8c:	ff e0       	ldi	r31, 0x0F	; 15
    3c8e:	af 16       	cp	r10, r31
    3c90:	b1 04       	cpc	r11, r1
    3c92:	b1 f4       	brne	.+44     	; 0x3cc0 <playQuestionHard+0x7b8>
		if(an[1] == '-' && an[2] == '/'){
    3c94:	a7 96       	adiw	r28, 0x27	; 39
    3c96:	8f ad       	ldd	r24, Y+63	; 0x3f
    3c98:	a7 97       	sbiw	r28, 0x27	; 39
    3c9a:	8d 32       	cpi	r24, 0x2D	; 45
    3c9c:	59 f4       	brne	.+22     	; 0x3cb4 <playQuestionHard+0x7ac>
    3c9e:	a8 96       	adiw	r28, 0x28	; 40
    3ca0:	8f ad       	ldd	r24, Y+63	; 0x3f
    3ca2:	a8 97       	sbiw	r28, 0x28	; 40
    3ca4:	8f 32       	cpi	r24, 0x2F	; 47
    3ca6:	31 f4       	brne	.+12     	; 0x3cb4 <playQuestionHard+0x7ac>
			score++;
    3ca8:	80 91 2f 06 	lds	r24, 0x062F	; 0x80062f <score>
    3cac:	8f 5f       	subi	r24, 0xFF	; 255
    3cae:	80 93 2f 06 	sts	0x062F, r24	; 0x80062f <score>
    3cb2:	3a c0       	rjmp	.+116    	; 0x3d28 <playQuestionHard+0x820>
		}
		else
		score--;
    3cb4:	80 91 2f 06 	lds	r24, 0x062F	; 0x80062f <score>
    3cb8:	81 50       	subi	r24, 0x01	; 1
    3cba:	80 93 2f 06 	sts	0x062F, r24	; 0x80062f <score>
    3cbe:	34 c0       	rjmp	.+104    	; 0x3d28 <playQuestionHard+0x820>
	}
	if(q.qid == 16){
    3cc0:	80 e1       	ldi	r24, 0x10	; 16
    3cc2:	a8 16       	cp	r10, r24
    3cc4:	b1 04       	cpc	r11, r1
    3cc6:	b1 f4       	brne	.+44     	; 0x3cf4 <playQuestionHard+0x7ec>
		if(an[1] == '/' && an[2] == '+'){
    3cc8:	a7 96       	adiw	r28, 0x27	; 39
    3cca:	8f ad       	ldd	r24, Y+63	; 0x3f
    3ccc:	a7 97       	sbiw	r28, 0x27	; 39
    3cce:	8f 32       	cpi	r24, 0x2F	; 47
    3cd0:	59 f4       	brne	.+22     	; 0x3ce8 <playQuestionHard+0x7e0>
    3cd2:	a8 96       	adiw	r28, 0x28	; 40
    3cd4:	8f ad       	ldd	r24, Y+63	; 0x3f
    3cd6:	a8 97       	sbiw	r28, 0x28	; 40
    3cd8:	8b 32       	cpi	r24, 0x2B	; 43
    3cda:	31 f4       	brne	.+12     	; 0x3ce8 <playQuestionHard+0x7e0>
			score++;
    3cdc:	80 91 2f 06 	lds	r24, 0x062F	; 0x80062f <score>
    3ce0:	8f 5f       	subi	r24, 0xFF	; 255
    3ce2:	80 93 2f 06 	sts	0x062F, r24	; 0x80062f <score>
    3ce6:	3a c0       	rjmp	.+116    	; 0x3d5c <playQuestionHard+0x854>
		}
		else
		score--;
    3ce8:	80 91 2f 06 	lds	r24, 0x062F	; 0x80062f <score>
    3cec:	81 50       	subi	r24, 0x01	; 1
    3cee:	80 93 2f 06 	sts	0x062F, r24	; 0x80062f <score>
    3cf2:	34 c0       	rjmp	.+104    	; 0x3d5c <playQuestionHard+0x854>
	}
	if(q.qid == 17){
    3cf4:	91 e1       	ldi	r25, 0x11	; 17
    3cf6:	a9 16       	cp	r10, r25
    3cf8:	b1 04       	cpc	r11, r1
    3cfa:	b1 f4       	brne	.+44     	; 0x3d28 <playQuestionHard+0x820>
		if(an[1] == '-' && an[2] == '*'){
    3cfc:	a7 96       	adiw	r28, 0x27	; 39
    3cfe:	8f ad       	ldd	r24, Y+63	; 0x3f
    3d00:	a7 97       	sbiw	r28, 0x27	; 39
    3d02:	8d 32       	cpi	r24, 0x2D	; 45
    3d04:	59 f4       	brne	.+22     	; 0x3d1c <playQuestionHard+0x814>
    3d06:	a8 96       	adiw	r28, 0x28	; 40
    3d08:	8f ad       	ldd	r24, Y+63	; 0x3f
    3d0a:	a8 97       	sbiw	r28, 0x28	; 40
    3d0c:	8a 32       	cpi	r24, 0x2A	; 42
    3d0e:	31 f4       	brne	.+12     	; 0x3d1c <playQuestionHard+0x814>
			score++;
    3d10:	80 91 2f 06 	lds	r24, 0x062F	; 0x80062f <score>
    3d14:	8f 5f       	subi	r24, 0xFF	; 255
    3d16:	80 93 2f 06 	sts	0x062F, r24	; 0x80062f <score>
    3d1a:	3a c0       	rjmp	.+116    	; 0x3d90 <playQuestionHard+0x888>
		}
		else
		score--;
    3d1c:	80 91 2f 06 	lds	r24, 0x062F	; 0x80062f <score>
    3d20:	81 50       	subi	r24, 0x01	; 1
    3d22:	80 93 2f 06 	sts	0x062F, r24	; 0x80062f <score>
    3d26:	34 c0       	rjmp	.+104    	; 0x3d90 <playQuestionHard+0x888>
	}
	if(q.qid == 18){
    3d28:	e2 e1       	ldi	r30, 0x12	; 18
    3d2a:	ae 16       	cp	r10, r30
    3d2c:	b1 04       	cpc	r11, r1
    3d2e:	b1 f4       	brne	.+44     	; 0x3d5c <playQuestionHard+0x854>
		if(an[1] == '*' && an[2] == '-'){
    3d30:	a7 96       	adiw	r28, 0x27	; 39
    3d32:	8f ad       	ldd	r24, Y+63	; 0x3f
    3d34:	a7 97       	sbiw	r28, 0x27	; 39
    3d36:	8a 32       	cpi	r24, 0x2A	; 42
    3d38:	59 f4       	brne	.+22     	; 0x3d50 <playQuestionHard+0x848>
    3d3a:	a8 96       	adiw	r28, 0x28	; 40
    3d3c:	8f ad       	ldd	r24, Y+63	; 0x3f
    3d3e:	a8 97       	sbiw	r28, 0x28	; 40
    3d40:	8d 32       	cpi	r24, 0x2D	; 45
    3d42:	31 f4       	brne	.+12     	; 0x3d50 <playQuestionHard+0x848>
			score++;
    3d44:	80 91 2f 06 	lds	r24, 0x062F	; 0x80062f <score>
    3d48:	8f 5f       	subi	r24, 0xFF	; 255
    3d4a:	80 93 2f 06 	sts	0x062F, r24	; 0x80062f <score>
    3d4e:	39 c0       	rjmp	.+114    	; 0x3dc2 <playQuestionHard+0x8ba>
		}
		else
		score--;
    3d50:	80 91 2f 06 	lds	r24, 0x062F	; 0x80062f <score>
    3d54:	81 50       	subi	r24, 0x01	; 1
    3d56:	80 93 2f 06 	sts	0x062F, r24	; 0x80062f <score>
    3d5a:	33 c0       	rjmp	.+102    	; 0x3dc2 <playQuestionHard+0x8ba>
	}
	if(q.qid == 19){
    3d5c:	f3 e1       	ldi	r31, 0x13	; 19
    3d5e:	af 16       	cp	r10, r31
    3d60:	b1 04       	cpc	r11, r1
    3d62:	b1 f4       	brne	.+44     	; 0x3d90 <playQuestionHard+0x888>
		if(an[1] == '/' && an[2] == '*'){
    3d64:	a7 96       	adiw	r28, 0x27	; 39
    3d66:	8f ad       	ldd	r24, Y+63	; 0x3f
    3d68:	a7 97       	sbiw	r28, 0x27	; 39
    3d6a:	8f 32       	cpi	r24, 0x2F	; 47
    3d6c:	59 f4       	brne	.+22     	; 0x3d84 <playQuestionHard+0x87c>
    3d6e:	a8 96       	adiw	r28, 0x28	; 40
    3d70:	8f ad       	ldd	r24, Y+63	; 0x3f
    3d72:	a8 97       	sbiw	r28, 0x28	; 40
    3d74:	8a 32       	cpi	r24, 0x2A	; 42
    3d76:	31 f4       	brne	.+12     	; 0x3d84 <playQuestionHard+0x87c>
			score++;
    3d78:	80 91 2f 06 	lds	r24, 0x062F	; 0x80062f <score>
    3d7c:	8f 5f       	subi	r24, 0xFF	; 255
    3d7e:	80 93 2f 06 	sts	0x062F, r24	; 0x80062f <score>
    3d82:	1f c0       	rjmp	.+62     	; 0x3dc2 <playQuestionHard+0x8ba>
		}
		else
		score--;
    3d84:	80 91 2f 06 	lds	r24, 0x062F	; 0x80062f <score>
    3d88:	81 50       	subi	r24, 0x01	; 1
    3d8a:	80 93 2f 06 	sts	0x062F, r24	; 0x80062f <score>
    3d8e:	19 c0       	rjmp	.+50     	; 0x3dc2 <playQuestionHard+0x8ba>
	}
	if(q.qid == 20){
    3d90:	84 e1       	ldi	r24, 0x14	; 20
    3d92:	a8 16       	cp	r10, r24
    3d94:	b1 04       	cpc	r11, r1
    3d96:	a9 f4       	brne	.+42     	; 0x3dc2 <playQuestionHard+0x8ba>
		if(an[1] == '/' && an[2] == '*'){
    3d98:	a7 96       	adiw	r28, 0x27	; 39
    3d9a:	8f ad       	ldd	r24, Y+63	; 0x3f
    3d9c:	a7 97       	sbiw	r28, 0x27	; 39
    3d9e:	8f 32       	cpi	r24, 0x2F	; 47
    3da0:	59 f4       	brne	.+22     	; 0x3db8 <playQuestionHard+0x8b0>
    3da2:	a8 96       	adiw	r28, 0x28	; 40
    3da4:	8f ad       	ldd	r24, Y+63	; 0x3f
    3da6:	a8 97       	sbiw	r28, 0x28	; 40
    3da8:	8a 32       	cpi	r24, 0x2A	; 42
    3daa:	31 f4       	brne	.+12     	; 0x3db8 <playQuestionHard+0x8b0>
			score++;
    3dac:	80 91 2f 06 	lds	r24, 0x062F	; 0x80062f <score>
    3db0:	8f 5f       	subi	r24, 0xFF	; 255
    3db2:	80 93 2f 06 	sts	0x062F, r24	; 0x80062f <score>
    3db6:	05 c0       	rjmp	.+10     	; 0x3dc2 <playQuestionHard+0x8ba>
		}
		else
		score--;
    3db8:	80 91 2f 06 	lds	r24, 0x062F	; 0x80062f <score>
    3dbc:	81 50       	subi	r24, 0x01	; 1
    3dbe:	80 93 2f 06 	sts	0x062F, r24	; 0x80062f <score>
	}
}
    3dc2:	cc 55       	subi	r28, 0x5C	; 92
    3dc4:	df 4f       	sbci	r29, 0xFF	; 255
    3dc6:	0f b6       	in	r0, 0x3f	; 63
    3dc8:	f8 94       	cli
    3dca:	de bf       	out	0x3e, r29	; 62
    3dcc:	0f be       	out	0x3f, r0	; 63
    3dce:	cd bf       	out	0x3d, r28	; 61
    3dd0:	df 91       	pop	r29
    3dd2:	cf 91       	pop	r28
    3dd4:	1f 91       	pop	r17
    3dd6:	0f 91       	pop	r16
    3dd8:	ff 90       	pop	r15
    3dda:	ef 90       	pop	r14
    3ddc:	df 90       	pop	r13
    3dde:	cf 90       	pop	r12
    3de0:	bf 90       	pop	r11
    3de2:	af 90       	pop	r10
    3de4:	9f 90       	pop	r9
    3de6:	8f 90       	pop	r8
    3de8:	7f 90       	pop	r7
    3dea:	6f 90       	pop	r6
    3dec:	5f 90       	pop	r5
    3dee:	4f 90       	pop	r4
    3df0:	3f 90       	pop	r3
    3df2:	2f 90       	pop	r2
    3df4:	08 95       	ret

00003df6 <playGame>:

void playGame(){
    3df6:	ef 92       	push	r14
    3df8:	ff 92       	push	r15
    3dfa:	0f 93       	push	r16
    3dfc:	1f 93       	push	r17
    3dfe:	cf 93       	push	r28
    3e00:	df 93       	push	r29
    3e02:	cd b7       	in	r28, 0x3d	; 61
    3e04:	de b7       	in	r29, 0x3e	; 62
    3e06:	c5 5b       	subi	r28, 0xB5	; 181
    3e08:	d2 40       	sbci	r29, 0x02	; 2
    3e0a:	0f b6       	in	r0, 0x3f	; 63
    3e0c:	f8 94       	cli
    3e0e:	de bf       	out	0x3e, r29	; 62
    3e10:	0f be       	out	0x3f, r0	; 63
    3e12:	cd bf       	out	0x3d, r28	; 61
	
		// *(NUMBERS), answer, question ID
	struct questionEasy q0 = {"0","1","1",0};		// 0 + 1 = 1
    3e14:	8b e0       	ldi	r24, 0x0B	; 11
    3e16:	ed ea       	ldi	r30, 0xAD	; 173
    3e18:	f1 e0       	ldi	r31, 0x01	; 1
    3e1a:	de 01       	movw	r26, r28
    3e1c:	11 96       	adiw	r26, 0x01	; 1
    3e1e:	01 90       	ld	r0, Z+
    3e20:	0d 92       	st	X+, r0
    3e22:	8a 95       	dec	r24
    3e24:	e1 f7       	brne	.-8      	; 0x3e1e <playGame+0x28>
	struct questionEasy q1 = {"6","8","48",1};	// 6 * 8 = 48
    3e26:	8b e0       	ldi	r24, 0x0B	; 11
    3e28:	e8 eb       	ldi	r30, 0xB8	; 184
    3e2a:	f1 e0       	ldi	r31, 0x01	; 1
    3e2c:	de 01       	movw	r26, r28
    3e2e:	1c 96       	adiw	r26, 0x0c	; 12
    3e30:	01 90       	ld	r0, Z+
    3e32:	0d 92       	st	X+, r0
    3e34:	8a 95       	dec	r24
    3e36:	e1 f7       	brne	.-8      	; 0x3e30 <playGame+0x3a>
	struct questionEasy q2 = {"40","4","10",2};	// 40 / 4 = 10
    3e38:	8b e0       	ldi	r24, 0x0B	; 11
    3e3a:	e3 ec       	ldi	r30, 0xC3	; 195
    3e3c:	f1 e0       	ldi	r31, 0x01	; 1
    3e3e:	de 01       	movw	r26, r28
    3e40:	57 96       	adiw	r26, 0x17	; 23
    3e42:	01 90       	ld	r0, Z+
    3e44:	0d 92       	st	X+, r0
    3e46:	8a 95       	dec	r24
    3e48:	e1 f7       	brne	.-8      	; 0x3e42 <playGame+0x4c>
	struct questionEasy q3 = {"22","14","8",3};	// 22 - 14 = 8
    3e4a:	8b e0       	ldi	r24, 0x0B	; 11
    3e4c:	ee ec       	ldi	r30, 0xCE	; 206
    3e4e:	f1 e0       	ldi	r31, 0x01	; 1
    3e50:	de 01       	movw	r26, r28
    3e52:	92 96       	adiw	r26, 0x22	; 34
    3e54:	01 90       	ld	r0, Z+
    3e56:	0d 92       	st	X+, r0
    3e58:	8a 95       	dec	r24
    3e5a:	e1 f7       	brne	.-8      	; 0x3e54 <playGame+0x5e>
	struct questionEasy q4 = {"13","7","6",4};	// 13 - 7 = 6
    3e5c:	8b e0       	ldi	r24, 0x0B	; 11
    3e5e:	e9 ed       	ldi	r30, 0xD9	; 217
    3e60:	f1 e0       	ldi	r31, 0x01	; 1
    3e62:	de 01       	movw	r26, r28
    3e64:	9d 96       	adiw	r26, 0x2d	; 45
    3e66:	01 90       	ld	r0, Z+
    3e68:	0d 92       	st	X+, r0
    3e6a:	8a 95       	dec	r24
    3e6c:	e1 f7       	brne	.-8      	; 0x3e66 <playGame+0x70>
	struct questionEasy q5 = {"5","5","25",5};	// 5 * 5 = 25
    3e6e:	8b e0       	ldi	r24, 0x0B	; 11
    3e70:	e4 ee       	ldi	r30, 0xE4	; 228
    3e72:	f1 e0       	ldi	r31, 0x01	; 1
    3e74:	de 01       	movw	r26, r28
    3e76:	d8 96       	adiw	r26, 0x38	; 56
    3e78:	01 90       	ld	r0, Z+
    3e7a:	0d 92       	st	X+, r0
    3e7c:	8a 95       	dec	r24
    3e7e:	e1 f7       	brne	.-8      	; 0x3e78 <playGame+0x82>
	struct questionEasy q6 = {"2","3","5",6};		// 2 + 3 = 5
    3e80:	8b e0       	ldi	r24, 0x0B	; 11
    3e82:	ef ee       	ldi	r30, 0xEF	; 239
    3e84:	f1 e0       	ldi	r31, 0x01	; 1
    3e86:	de 01       	movw	r26, r28
    3e88:	ad 5b       	subi	r26, 0xBD	; 189
    3e8a:	bf 4f       	sbci	r27, 0xFF	; 255
    3e8c:	01 90       	ld	r0, Z+
    3e8e:	0d 92       	st	X+, r0
    3e90:	8a 95       	dec	r24
    3e92:	e1 f7       	brne	.-8      	; 0x3e8c <playGame+0x96>
	struct questionEasy q7 = {"6","0","6",7};		// 6 + 0 = 6
    3e94:	8b e0       	ldi	r24, 0x0B	; 11
    3e96:	ea ef       	ldi	r30, 0xFA	; 250
    3e98:	f1 e0       	ldi	r31, 0x01	; 1
    3e9a:	de 01       	movw	r26, r28
    3e9c:	a2 5b       	subi	r26, 0xB2	; 178
    3e9e:	bf 4f       	sbci	r27, 0xFF	; 255
    3ea0:	01 90       	ld	r0, Z+
    3ea2:	0d 92       	st	X+, r0
    3ea4:	8a 95       	dec	r24
    3ea6:	e1 f7       	brne	.-8      	; 0x3ea0 <playGame+0xaa>
	struct questionEasy q8 = {"6","0","0",8};		// 6 * 0 = 0
    3ea8:	8b e0       	ldi	r24, 0x0B	; 11
    3eaa:	e5 e0       	ldi	r30, 0x05	; 5
    3eac:	f2 e0       	ldi	r31, 0x02	; 2
    3eae:	de 01       	movw	r26, r28
    3eb0:	a7 5a       	subi	r26, 0xA7	; 167
    3eb2:	bf 4f       	sbci	r27, 0xFF	; 255
    3eb4:	01 90       	ld	r0, Z+
    3eb6:	0d 92       	st	X+, r0
    3eb8:	8a 95       	dec	r24
    3eba:	e1 f7       	brne	.-8      	; 0x3eb4 <playGame+0xbe>
	struct questionEasy q9 = {"8","0","0",9};		// 8 * 0 = 0
    3ebc:	8b e0       	ldi	r24, 0x0B	; 11
    3ebe:	e0 e1       	ldi	r30, 0x10	; 16
    3ec0:	f2 e0       	ldi	r31, 0x02	; 2
    3ec2:	de 01       	movw	r26, r28
    3ec4:	ac 59       	subi	r26, 0x9C	; 156
    3ec6:	bf 4f       	sbci	r27, 0xFF	; 255
    3ec8:	01 90       	ld	r0, Z+
    3eca:	0d 92       	st	X+, r0
    3ecc:	8a 95       	dec	r24
    3ece:	e1 f7       	brne	.-8      	; 0x3ec8 <playGame+0xd2>
	struct questionEasy q10 = {"50","5","10",10};	// 50 / 5 = 10
    3ed0:	8b e0       	ldi	r24, 0x0B	; 11
    3ed2:	eb e1       	ldi	r30, 0x1B	; 27
    3ed4:	f2 e0       	ldi	r31, 0x02	; 2
    3ed6:	de 01       	movw	r26, r28
    3ed8:	a1 59       	subi	r26, 0x91	; 145
    3eda:	bf 4f       	sbci	r27, 0xFF	; 255
    3edc:	01 90       	ld	r0, Z+
    3ede:	0d 92       	st	X+, r0
    3ee0:	8a 95       	dec	r24
    3ee2:	e1 f7       	brne	.-8      	; 0x3edc <playGame+0xe6>
	struct questionEasy q11 = {"27","15","42",11};	// 27 + 15 = 42
    3ee4:	8b e0       	ldi	r24, 0x0B	; 11
    3ee6:	e6 e2       	ldi	r30, 0x26	; 38
    3ee8:	f2 e0       	ldi	r31, 0x02	; 2
    3eea:	de 01       	movw	r26, r28
    3eec:	a6 58       	subi	r26, 0x86	; 134
    3eee:	bf 4f       	sbci	r27, 0xFF	; 255
    3ef0:	01 90       	ld	r0, Z+
    3ef2:	0d 92       	st	X+, r0
    3ef4:	8a 95       	dec	r24
    3ef6:	e1 f7       	brne	.-8      	; 0x3ef0 <playGame+0xfa>
	struct questionEasy q12 = {"12","8","4",12};		// 12 - 8 = 4
    3ef8:	8b e0       	ldi	r24, 0x0B	; 11
    3efa:	e1 e3       	ldi	r30, 0x31	; 49
    3efc:	f2 e0       	ldi	r31, 0x02	; 2
    3efe:	de 01       	movw	r26, r28
    3f00:	ab 57       	subi	r26, 0x7B	; 123
    3f02:	bf 4f       	sbci	r27, 0xFF	; 255
    3f04:	01 90       	ld	r0, Z+
    3f06:	0d 92       	st	X+, r0
    3f08:	8a 95       	dec	r24
    3f0a:	e1 f7       	brne	.-8      	; 0x3f04 <playGame+0x10e>
	struct questionEasy q13 = {"12","6","2",13};		// 12/6=2
    3f0c:	8b e0       	ldi	r24, 0x0B	; 11
    3f0e:	ec e3       	ldi	r30, 0x3C	; 60
    3f10:	f2 e0       	ldi	r31, 0x02	; 2
    3f12:	de 01       	movw	r26, r28
    3f14:	a0 57       	subi	r26, 0x70	; 112
    3f16:	bf 4f       	sbci	r27, 0xFF	; 255
    3f18:	01 90       	ld	r0, Z+
    3f1a:	0d 92       	st	X+, r0
    3f1c:	8a 95       	dec	r24
    3f1e:	e1 f7       	brne	.-8      	; 0x3f18 <playGame+0x122>
	struct questionEasy q14 = {"12","3","4",14};		// 12/3=4
    3f20:	8b e0       	ldi	r24, 0x0B	; 11
    3f22:	e7 e4       	ldi	r30, 0x47	; 71
    3f24:	f2 e0       	ldi	r31, 0x02	; 2
    3f26:	de 01       	movw	r26, r28
    3f28:	a5 56       	subi	r26, 0x65	; 101
    3f2a:	bf 4f       	sbci	r27, 0xFF	; 255
    3f2c:	01 90       	ld	r0, Z+
    3f2e:	0d 92       	st	X+, r0
    3f30:	8a 95       	dec	r24
    3f32:	e1 f7       	brne	.-8      	; 0x3f2c <playGame+0x136>
	struct questionEasy q15 = {"12","4","3",15};		// 12/4=3
    3f34:	8b e0       	ldi	r24, 0x0B	; 11
    3f36:	e2 e5       	ldi	r30, 0x52	; 82
    3f38:	f2 e0       	ldi	r31, 0x02	; 2
    3f3a:	de 01       	movw	r26, r28
    3f3c:	aa 55       	subi	r26, 0x5A	; 90
    3f3e:	bf 4f       	sbci	r27, 0xFF	; 255
    3f40:	01 90       	ld	r0, Z+
    3f42:	0d 92       	st	X+, r0
    3f44:	8a 95       	dec	r24
    3f46:	e1 f7       	brne	.-8      	; 0x3f40 <playGame+0x14a>
	struct questionEasy q16 = {"33","3","11",16};		// 33/3=11
    3f48:	8b e0       	ldi	r24, 0x0B	; 11
    3f4a:	ed e5       	ldi	r30, 0x5D	; 93
    3f4c:	f2 e0       	ldi	r31, 0x02	; 2
    3f4e:	de 01       	movw	r26, r28
    3f50:	af 54       	subi	r26, 0x4F	; 79
    3f52:	bf 4f       	sbci	r27, 0xFF	; 255
    3f54:	01 90       	ld	r0, Z+
    3f56:	0d 92       	st	X+, r0
    3f58:	8a 95       	dec	r24
    3f5a:	e1 f7       	brne	.-8      	; 0x3f54 <playGame+0x15e>
	struct questionEasy q17 = {"34","12","22",17};	// 34-12=22
    3f5c:	8b e0       	ldi	r24, 0x0B	; 11
    3f5e:	e8 e6       	ldi	r30, 0x68	; 104
    3f60:	f2 e0       	ldi	r31, 0x02	; 2
    3f62:	de 01       	movw	r26, r28
    3f64:	a4 54       	subi	r26, 0x44	; 68
    3f66:	bf 4f       	sbci	r27, 0xFF	; 255
    3f68:	01 90       	ld	r0, Z+
    3f6a:	0d 92       	st	X+, r0
    3f6c:	8a 95       	dec	r24
    3f6e:	e1 f7       	brne	.-8      	; 0x3f68 <playGame+0x172>
	struct questionEasy q18 = {"20","7","13",18};		// 20-7 = 13
    3f70:	8b e0       	ldi	r24, 0x0B	; 11
    3f72:	e3 e7       	ldi	r30, 0x73	; 115
    3f74:	f2 e0       	ldi	r31, 0x02	; 2
    3f76:	de 01       	movw	r26, r28
    3f78:	a9 53       	subi	r26, 0x39	; 57
    3f7a:	bf 4f       	sbci	r27, 0xFF	; 255
    3f7c:	01 90       	ld	r0, Z+
    3f7e:	0d 92       	st	X+, r0
    3f80:	8a 95       	dec	r24
    3f82:	e1 f7       	brne	.-8      	; 0x3f7c <playGame+0x186>
	struct questionEasy q19 = {"11","4","15",19};		// 11+4=15
    3f84:	8b e0       	ldi	r24, 0x0B	; 11
    3f86:	ee e7       	ldi	r30, 0x7E	; 126
    3f88:	f2 e0       	ldi	r31, 0x02	; 2
    3f8a:	de 01       	movw	r26, r28
    3f8c:	ae 52       	subi	r26, 0x2E	; 46
    3f8e:	bf 4f       	sbci	r27, 0xFF	; 255
    3f90:	01 90       	ld	r0, Z+
    3f92:	0d 92       	st	X+, r0
    3f94:	8a 95       	dec	r24
    3f96:	e1 f7       	brne	.-8      	; 0x3f90 <playGame+0x19a>
	struct questionEasy q20 = {"7","52","59",20};		// 7 + 52=59
    3f98:	8b e0       	ldi	r24, 0x0B	; 11
    3f9a:	e9 e8       	ldi	r30, 0x89	; 137
    3f9c:	f2 e0       	ldi	r31, 0x02	; 2
    3f9e:	de 01       	movw	r26, r28
    3fa0:	a3 52       	subi	r26, 0x23	; 35
    3fa2:	bf 4f       	sbci	r27, 0xFF	; 255
    3fa4:	01 90       	ld	r0, Z+
    3fa6:	0d 92       	st	X+, r0
    3fa8:	8a 95       	dec	r24
    3faa:	e1 f7       	brne	.-8      	; 0x3fa4 <playGame+0x1ae>
		
	struct questionMedium m0 = {"1","1","1","3",0};		//1+1+1=3
    3fac:	8a e0       	ldi	r24, 0x0A	; 10
    3fae:	e4 e9       	ldi	r30, 0x94	; 148
    3fb0:	f2 e0       	ldi	r31, 0x02	; 2
    3fb2:	de 01       	movw	r26, r28
    3fb4:	a8 51       	subi	r26, 0x18	; 24
    3fb6:	bf 4f       	sbci	r27, 0xFF	; 255
    3fb8:	01 90       	ld	r0, Z+
    3fba:	0d 92       	st	X+, r0
    3fbc:	8a 95       	dec	r24
    3fbe:	e1 f7       	brne	.-8      	; 0x3fb8 <playGame+0x1c2>
	struct questionMedium m1 = {"4","2","3","10",1};	//4+2*3=10
    3fc0:	8a e0       	ldi	r24, 0x0A	; 10
    3fc2:	ee e9       	ldi	r30, 0x9E	; 158
    3fc4:	f2 e0       	ldi	r31, 0x02	; 2
    3fc6:	de 01       	movw	r26, r28
    3fc8:	ae 50       	subi	r26, 0x0E	; 14
    3fca:	bf 4f       	sbci	r27, 0xFF	; 255
    3fcc:	01 90       	ld	r0, Z+
    3fce:	0d 92       	st	X+, r0
    3fd0:	8a 95       	dec	r24
    3fd2:	e1 f7       	brne	.-8      	; 0x3fcc <playGame+0x1d6>
	struct questionMedium m2 = {"0","4","4","4",2};		//0*4+4=4
    3fd4:	8a e0       	ldi	r24, 0x0A	; 10
    3fd6:	e8 ea       	ldi	r30, 0xA8	; 168
    3fd8:	f2 e0       	ldi	r31, 0x02	; 2
    3fda:	de 01       	movw	r26, r28
    3fdc:	a4 50       	subi	r26, 0x04	; 4
    3fde:	bf 4f       	sbci	r27, 0xFF	; 255
    3fe0:	01 90       	ld	r0, Z+
    3fe2:	0d 92       	st	X+, r0
    3fe4:	8a 95       	dec	r24
    3fe6:	e1 f7       	brne	.-8      	; 0x3fe0 <playGame+0x1ea>
	struct questionMedium m3 = {"6","7","2","40",3};	//6*7-2=40
    3fe8:	8a e0       	ldi	r24, 0x0A	; 10
    3fea:	e2 eb       	ldi	r30, 0xB2	; 178
    3fec:	f2 e0       	ldi	r31, 0x02	; 2
    3fee:	de 01       	movw	r26, r28
    3ff0:	aa 5f       	subi	r26, 0xFA	; 250
    3ff2:	be 4f       	sbci	r27, 0xFE	; 254
    3ff4:	01 90       	ld	r0, Z+
    3ff6:	0d 92       	st	X+, r0
    3ff8:	8a 95       	dec	r24
    3ffa:	e1 f7       	brne	.-8      	; 0x3ff4 <playGame+0x1fe>
	struct questionMedium m4 = {"3","1","2","1",4};		//3-1/2=1
    3ffc:	8a e0       	ldi	r24, 0x0A	; 10
    3ffe:	ec eb       	ldi	r30, 0xBC	; 188
    4000:	f2 e0       	ldi	r31, 0x02	; 2
    4002:	de 01       	movw	r26, r28
    4004:	a0 5f       	subi	r26, 0xF0	; 240
    4006:	be 4f       	sbci	r27, 0xFE	; 254
    4008:	01 90       	ld	r0, Z+
    400a:	0d 92       	st	X+, r0
    400c:	8a 95       	dec	r24
    400e:	e1 f7       	brne	.-8      	; 0x4008 <playGame+0x212>
	struct questionMedium m5 = {"45","5","9","18",5};	//45/5+9=18
    4010:	8a e0       	ldi	r24, 0x0A	; 10
    4012:	e6 ec       	ldi	r30, 0xC6	; 198
    4014:	f2 e0       	ldi	r31, 0x02	; 2
    4016:	de 01       	movw	r26, r28
    4018:	a6 5e       	subi	r26, 0xE6	; 230
    401a:	be 4f       	sbci	r27, 0xFE	; 254
    401c:	01 90       	ld	r0, Z+
    401e:	0d 92       	st	X+, r0
    4020:	8a 95       	dec	r24
    4022:	e1 f7       	brne	.-8      	; 0x401c <playGame+0x226>
	struct questionMedium m6 = {"5","5","5","6",6};		// 5+5/5=6	
    4024:	8a e0       	ldi	r24, 0x0A	; 10
    4026:	e0 ed       	ldi	r30, 0xD0	; 208
    4028:	f2 e0       	ldi	r31, 0x02	; 2
    402a:	de 01       	movw	r26, r28
    402c:	ac 5d       	subi	r26, 0xDC	; 220
    402e:	be 4f       	sbci	r27, 0xFE	; 254
    4030:	01 90       	ld	r0, Z+
    4032:	0d 92       	st	X+, r0
    4034:	8a 95       	dec	r24
    4036:	e1 f7       	brne	.-8      	; 0x4030 <playGame+0x23a>
	struct questionMedium m7 = {"7","3","4","8",7};	// 7-3+4=8	
    4038:	8a e0       	ldi	r24, 0x0A	; 10
    403a:	ea ed       	ldi	r30, 0xDA	; 218
    403c:	f2 e0       	ldi	r31, 0x02	; 2
    403e:	de 01       	movw	r26, r28
    4040:	a2 5d       	subi	r26, 0xD2	; 210
    4042:	be 4f       	sbci	r27, 0xFE	; 254
    4044:	01 90       	ld	r0, Z+
    4046:	0d 92       	st	X+, r0
    4048:	8a 95       	dec	r24
    404a:	e1 f7       	brne	.-8      	; 0x4044 <playGame+0x24e>
	struct questionMedium m8 = {"2","3","4","12",8};	//2*3*4=12
    404c:	8a e0       	ldi	r24, 0x0A	; 10
    404e:	e4 ee       	ldi	r30, 0xE4	; 228
    4050:	f2 e0       	ldi	r31, 0x02	; 2
    4052:	de 01       	movw	r26, r28
    4054:	a8 5c       	subi	r26, 0xC8	; 200
    4056:	be 4f       	sbci	r27, 0xFE	; 254
    4058:	01 90       	ld	r0, Z+
    405a:	0d 92       	st	X+, r0
    405c:	8a 95       	dec	r24
    405e:	e1 f7       	brne	.-8      	; 0x4058 <playGame+0x262>
	struct questionMedium m9 = {"100","1","2","48",9};	//50-1*2=48	
    4060:	8a e0       	ldi	r24, 0x0A	; 10
    4062:	ee ee       	ldi	r30, 0xEE	; 238
    4064:	f2 e0       	ldi	r31, 0x02	; 2
    4066:	de 01       	movw	r26, r28
    4068:	ae 5b       	subi	r26, 0xBE	; 190
    406a:	be 4f       	sbci	r27, 0xFE	; 254
    406c:	01 90       	ld	r0, Z+
    406e:	0d 92       	st	X+, r0
    4070:	8a 95       	dec	r24
    4072:	e1 f7       	brne	.-8      	; 0x406c <playGame+0x276>
	struct questionMedium m10 = {"40","2","2","10",10};	// 40/2/2=10
    4074:	8a e0       	ldi	r24, 0x0A	; 10
    4076:	e8 ef       	ldi	r30, 0xF8	; 248
    4078:	f2 e0       	ldi	r31, 0x02	; 2
    407a:	de 01       	movw	r26, r28
    407c:	a4 5b       	subi	r26, 0xB4	; 180
    407e:	be 4f       	sbci	r27, 0xFE	; 254
    4080:	01 90       	ld	r0, Z+
    4082:	0d 92       	st	X+, r0
    4084:	8a 95       	dec	r24
    4086:	e1 f7       	brne	.-8      	; 0x4080 <playGame+0x28a>
	struct questionMedium m11 = {"5","6","4","34",11};	//5*6+4
    4088:	8a e0       	ldi	r24, 0x0A	; 10
    408a:	e2 e0       	ldi	r30, 0x02	; 2
    408c:	f3 e0       	ldi	r31, 0x03	; 3
    408e:	de 01       	movw	r26, r28
    4090:	aa 5a       	subi	r26, 0xAA	; 170
    4092:	be 4f       	sbci	r27, 0xFE	; 254
    4094:	01 90       	ld	r0, Z+
    4096:	0d 92       	st	X+, r0
    4098:	8a 95       	dec	r24
    409a:	e1 f7       	brne	.-8      	; 0x4094 <playGame+0x29e>
	struct questionMedium m12 = {"1","7","3","22",12};	//1+7*3
    409c:	8a e0       	ldi	r24, 0x0A	; 10
    409e:	ec e0       	ldi	r30, 0x0C	; 12
    40a0:	f3 e0       	ldi	r31, 0x03	; 3
    40a2:	de 01       	movw	r26, r28
    40a4:	a0 5a       	subi	r26, 0xA0	; 160
    40a6:	be 4f       	sbci	r27, 0xFE	; 254
    40a8:	01 90       	ld	r0, Z+
    40aa:	0d 92       	st	X+, r0
    40ac:	8a 95       	dec	r24
    40ae:	e1 f7       	brne	.-8      	; 0x40a8 <playGame+0x2b2>
	struct questionMedium m13 = {"1","5","5","2",13};	//1+5/5=2
    40b0:	8a e0       	ldi	r24, 0x0A	; 10
    40b2:	e6 e1       	ldi	r30, 0x16	; 22
    40b4:	f3 e0       	ldi	r31, 0x03	; 3
    40b6:	de 01       	movw	r26, r28
    40b8:	a6 59       	subi	r26, 0x96	; 150
    40ba:	be 4f       	sbci	r27, 0xFE	; 254
    40bc:	01 90       	ld	r0, Z+
    40be:	0d 92       	st	X+, r0
    40c0:	8a 95       	dec	r24
    40c2:	e1 f7       	brne	.-8      	; 0x40bc <playGame+0x2c6>
	struct questionMedium m14 = {"3","8","4","20",14};	//3*8-4=20
    40c4:	8a e0       	ldi	r24, 0x0A	; 10
    40c6:	e0 e2       	ldi	r30, 0x20	; 32
    40c8:	f3 e0       	ldi	r31, 0x03	; 3
    40ca:	de 01       	movw	r26, r28
    40cc:	ac 58       	subi	r26, 0x8C	; 140
    40ce:	be 4f       	sbci	r27, 0xFE	; 254
    40d0:	01 90       	ld	r0, Z+
    40d2:	0d 92       	st	X+, r0
    40d4:	8a 95       	dec	r24
    40d6:	e1 f7       	brne	.-8      	; 0x40d0 <playGame+0x2da>
	struct questionMedium m15 = {"4","8","4","2",15};	//4-8/4=2	
    40d8:	8a e0       	ldi	r24, 0x0A	; 10
    40da:	ea e2       	ldi	r30, 0x2A	; 42
    40dc:	f3 e0       	ldi	r31, 0x03	; 3
    40de:	de 01       	movw	r26, r28
    40e0:	a2 58       	subi	r26, 0x82	; 130
    40e2:	be 4f       	sbci	r27, 0xFE	; 254
    40e4:	01 90       	ld	r0, Z+
    40e6:	0d 92       	st	X+, r0
    40e8:	8a 95       	dec	r24
    40ea:	e1 f7       	brne	.-8      	; 0x40e4 <playGame+0x2ee>
	struct questionMedium m16 = {"6","2","8","11",16};	//6/2+8	
    40ec:	8a e0       	ldi	r24, 0x0A	; 10
    40ee:	e4 e3       	ldi	r30, 0x34	; 52
    40f0:	f3 e0       	ldi	r31, 0x03	; 3
    40f2:	de 01       	movw	r26, r28
    40f4:	a8 57       	subi	r26, 0x78	; 120
    40f6:	be 4f       	sbci	r27, 0xFE	; 254
    40f8:	01 90       	ld	r0, Z+
    40fa:	0d 92       	st	X+, r0
    40fc:	8a 95       	dec	r24
    40fe:	e1 f7       	brne	.-8      	; 0x40f8 <playGame+0x302>
	struct questionMedium m17 = {"11","3","2","5",17};	//11-3*2=5		
    4100:	8a e0       	ldi	r24, 0x0A	; 10
    4102:	ee e3       	ldi	r30, 0x3E	; 62
    4104:	f3 e0       	ldi	r31, 0x03	; 3
    4106:	de 01       	movw	r26, r28
    4108:	ae 56       	subi	r26, 0x6E	; 110
    410a:	be 4f       	sbci	r27, 0xFE	; 254
    410c:	01 90       	ld	r0, Z+
    410e:	0d 92       	st	X+, r0
    4110:	8a 95       	dec	r24
    4112:	e1 f7       	brne	.-8      	; 0x410c <__stack+0xd>
	struct questionMedium m18 = {"5","5","3","22",18};	//5*5-3=22		
    4114:	8a e0       	ldi	r24, 0x0A	; 10
    4116:	e8 e4       	ldi	r30, 0x48	; 72
    4118:	f3 e0       	ldi	r31, 0x03	; 3
    411a:	de 01       	movw	r26, r28
    411c:	a4 56       	subi	r26, 0x64	; 100
    411e:	be 4f       	sbci	r27, 0xFE	; 254
    4120:	01 90       	ld	r0, Z+
    4122:	0d 92       	st	X+, r0
    4124:	8a 95       	dec	r24
    4126:	e1 f7       	brne	.-8      	; 0x4120 <__stack+0x21>
	struct questionMedium m19 = {"22","11","4","8",19};	//22/11*4=8		
    4128:	8a e0       	ldi	r24, 0x0A	; 10
    412a:	e2 e5       	ldi	r30, 0x52	; 82
    412c:	f3 e0       	ldi	r31, 0x03	; 3
    412e:	de 01       	movw	r26, r28
    4130:	aa 55       	subi	r26, 0x5A	; 90
    4132:	be 4f       	sbci	r27, 0xFE	; 254
    4134:	01 90       	ld	r0, Z+
    4136:	0d 92       	st	X+, r0
    4138:	8a 95       	dec	r24
    413a:	e1 f7       	brne	.-8      	; 0x4134 <__stack+0x35>
	struct questionMedium m20 = {"7","7","6","6",20};	//7/7*6=6		
    413c:	8a e0       	ldi	r24, 0x0A	; 10
    413e:	ec e5       	ldi	r30, 0x5C	; 92
    4140:	f3 e0       	ldi	r31, 0x03	; 3
    4142:	de 01       	movw	r26, r28
    4144:	a0 55       	subi	r26, 0x50	; 80
    4146:	be 4f       	sbci	r27, 0xFE	; 254
    4148:	01 90       	ld	r0, Z+
    414a:	0d 92       	st	X+, r0
    414c:	8a 95       	dec	r24
    414e:	e1 f7       	brne	.-8      	; 0x4148 <__stack+0x49>
			
	struct questionHard h0 = {"1","8","4","2","4",0};	//1*8/4+2=4
    4150:	8c e0       	ldi	r24, 0x0C	; 12
    4152:	e6 e6       	ldi	r30, 0x66	; 102
    4154:	f3 e0       	ldi	r31, 0x03	; 3
    4156:	de 01       	movw	r26, r28
    4158:	a6 54       	subi	r26, 0x46	; 70
    415a:	be 4f       	sbci	r27, 0xFE	; 254
    415c:	01 90       	ld	r0, Z+
    415e:	0d 92       	st	X+, r0
    4160:	8a 95       	dec	r24
    4162:	e1 f7       	brne	.-8      	; 0x415c <__stack+0x5d>
	struct questionHard h1 = {"9","6","1","4","7",1};	//9-6*1+4=7
    4164:	8c e0       	ldi	r24, 0x0C	; 12
    4166:	e2 e7       	ldi	r30, 0x72	; 114
    4168:	f3 e0       	ldi	r31, 0x03	; 3
    416a:	de 01       	movw	r26, r28
    416c:	aa 53       	subi	r26, 0x3A	; 58
    416e:	be 4f       	sbci	r27, 0xFE	; 254
    4170:	01 90       	ld	r0, Z+
    4172:	0d 92       	st	X+, r0
    4174:	8a 95       	dec	r24
    4176:	e1 f7       	brne	.-8      	; 0x4170 <__stack+0x71>
	struct questionHard h2 = {"8","4","16","2","4",2};	//8*4/16+2=4
    4178:	8c e0       	ldi	r24, 0x0C	; 12
    417a:	ee e7       	ldi	r30, 0x7E	; 126
    417c:	f3 e0       	ldi	r31, 0x03	; 3
    417e:	de 01       	movw	r26, r28
    4180:	ae 52       	subi	r26, 0x2E	; 46
    4182:	be 4f       	sbci	r27, 0xFE	; 254
    4184:	01 90       	ld	r0, Z+
    4186:	0d 92       	st	X+, r0
    4188:	8a 95       	dec	r24
    418a:	e1 f7       	brne	.-8      	; 0x4184 <__stack+0x85>
	struct questionHard h3 = {"1","1","1","1","4",3};	//1+1+1+1=4
    418c:	8c e0       	ldi	r24, 0x0C	; 12
    418e:	ea e8       	ldi	r30, 0x8A	; 138
    4190:	f3 e0       	ldi	r31, 0x03	; 3
    4192:	de 01       	movw	r26, r28
    4194:	a2 52       	subi	r26, 0x22	; 34
    4196:	be 4f       	sbci	r27, 0xFE	; 254
    4198:	01 90       	ld	r0, Z+
    419a:	0d 92       	st	X+, r0
    419c:	8a 95       	dec	r24
    419e:	e1 f7       	brne	.-8      	; 0x4198 <__stack+0x99>
	struct questionHard h4 = {"4","5","1","2","7",4};	//4+5*1-2=7
    41a0:	8c e0       	ldi	r24, 0x0C	; 12
    41a2:	e6 e9       	ldi	r30, 0x96	; 150
    41a4:	f3 e0       	ldi	r31, 0x03	; 3
    41a6:	de 01       	movw	r26, r28
    41a8:	a6 51       	subi	r26, 0x16	; 22
    41aa:	be 4f       	sbci	r27, 0xFE	; 254
    41ac:	01 90       	ld	r0, Z+
    41ae:	0d 92       	st	X+, r0
    41b0:	8a 95       	dec	r24
    41b2:	e1 f7       	brne	.-8      	; 0x41ac <__stack+0xad>
	struct questionHard h5 = {"7","2","1","1","16",5};	//7*2+1+1=16
    41b4:	8c e0       	ldi	r24, 0x0C	; 12
    41b6:	e2 ea       	ldi	r30, 0xA2	; 162
    41b8:	f3 e0       	ldi	r31, 0x03	; 3
    41ba:	de 01       	movw	r26, r28
    41bc:	aa 50       	subi	r26, 0x0A	; 10
    41be:	be 4f       	sbci	r27, 0xFE	; 254
    41c0:	01 90       	ld	r0, Z+
    41c2:	0d 92       	st	X+, r0
    41c4:	8a 95       	dec	r24
    41c6:	e1 f7       	brne	.-8      	; 0x41c0 <__stack+0xc1>
	struct questionHard h6 = {"5","5","12","3","16",6};	//5*5-12+3=16
    41c8:	8c e0       	ldi	r24, 0x0C	; 12
    41ca:	ee ea       	ldi	r30, 0xAE	; 174
    41cc:	f3 e0       	ldi	r31, 0x03	; 3
    41ce:	de 01       	movw	r26, r28
    41d0:	ae 5f       	subi	r26, 0xFE	; 254
    41d2:	bd 4f       	sbci	r27, 0xFD	; 253
    41d4:	01 90       	ld	r0, Z+
    41d6:	0d 92       	st	X+, r0
    41d8:	8a 95       	dec	r24
    41da:	e1 f7       	brne	.-8      	; 0x41d4 <__stack+0xd5>
	struct questionHard h7 = {"16","4","4","3","5",7};	//16-4-4-3=5
    41dc:	8c e0       	ldi	r24, 0x0C	; 12
    41de:	ea eb       	ldi	r30, 0xBA	; 186
    41e0:	f3 e0       	ldi	r31, 0x03	; 3
    41e2:	de 01       	movw	r26, r28
    41e4:	a2 5f       	subi	r26, 0xF2	; 242
    41e6:	bd 4f       	sbci	r27, 0xFD	; 253
    41e8:	01 90       	ld	r0, Z+
    41ea:	0d 92       	st	X+, r0
    41ec:	8a 95       	dec	r24
    41ee:	e1 f7       	brne	.-8      	; 0x41e8 <__stack+0xe9>
	struct questionHard h8 = {"5","2","3","3","12",8};	//5-2+3*3=12
    41f0:	8c e0       	ldi	r24, 0x0C	; 12
    41f2:	e6 ec       	ldi	r30, 0xC6	; 198
    41f4:	f3 e0       	ldi	r31, 0x03	; 3
    41f6:	de 01       	movw	r26, r28
    41f8:	a6 5e       	subi	r26, 0xE6	; 230
    41fa:	bd 4f       	sbci	r27, 0xFD	; 253
    41fc:	01 90       	ld	r0, Z+
    41fe:	0d 92       	st	X+, r0
    4200:	8a 95       	dec	r24
    4202:	e1 f7       	brne	.-8      	; 0x41fc <__stack+0xfd>
	struct questionHard h9 = {"3","6","4","8","5",9};	//3+6+4-8=5
    4204:	8c e0       	ldi	r24, 0x0C	; 12
    4206:	e2 ed       	ldi	r30, 0xD2	; 210
    4208:	f3 e0       	ldi	r31, 0x03	; 3
    420a:	de 01       	movw	r26, r28
    420c:	aa 5d       	subi	r26, 0xDA	; 218
    420e:	bd 4f       	sbci	r27, 0xFD	; 253
    4210:	01 90       	ld	r0, Z+
    4212:	0d 92       	st	X+, r0
    4214:	8a 95       	dec	r24
    4216:	e1 f7       	brne	.-8      	; 0x4210 <__stack+0x111>
	struct questionHard h10 = {"5","2","1","2","20",10};//5*2*1*2=20
    4218:	8c e0       	ldi	r24, 0x0C	; 12
    421a:	ee ed       	ldi	r30, 0xDE	; 222
    421c:	f3 e0       	ldi	r31, 0x03	; 3
    421e:	de 01       	movw	r26, r28
    4220:	ae 5c       	subi	r26, 0xCE	; 206
    4222:	bd 4f       	sbci	r27, 0xFD	; 253
    4224:	01 90       	ld	r0, Z+
    4226:	0d 92       	st	X+, r0
    4228:	8a 95       	dec	r24
    422a:	e1 f7       	brne	.-8      	; 0x4224 <__stack+0x125>
	struct questionHard h11 = {"20","15","1","2","7",11};	//20-15*1+2=7
    422c:	8c e0       	ldi	r24, 0x0C	; 12
    422e:	ea ee       	ldi	r30, 0xEA	; 234
    4230:	f3 e0       	ldi	r31, 0x03	; 3
    4232:	de 01       	movw	r26, r28
    4234:	a2 5c       	subi	r26, 0xC2	; 194
    4236:	bd 4f       	sbci	r27, 0xFD	; 253
    4238:	01 90       	ld	r0, Z+
    423a:	0d 92       	st	X+, r0
    423c:	8a 95       	dec	r24
    423e:	e1 f7       	brne	.-8      	; 0x4238 <__stack+0x139>
	struct questionHard h12 = {"7","2","10","2","14",12};	//7+2+10/2=14
    4240:	8c e0       	ldi	r24, 0x0C	; 12
    4242:	e6 ef       	ldi	r30, 0xF6	; 246
    4244:	f3 e0       	ldi	r31, 0x03	; 3
    4246:	de 01       	movw	r26, r28
    4248:	a6 5b       	subi	r26, 0xB6	; 182
    424a:	bd 4f       	sbci	r27, 0xFD	; 253
    424c:	01 90       	ld	r0, Z+
    424e:	0d 92       	st	X+, r0
    4250:	8a 95       	dec	r24
    4252:	e1 f7       	brne	.-8      	; 0x424c <__stack+0x14d>
	struct questionHard h13 = {"8","2","2","5","12",13};	//8-2/2+5=12
    4254:	8c e0       	ldi	r24, 0x0C	; 12
    4256:	e2 e0       	ldi	r30, 0x02	; 2
    4258:	f4 e0       	ldi	r31, 0x04	; 4
    425a:	de 01       	movw	r26, r28
    425c:	aa 5a       	subi	r26, 0xAA	; 170
    425e:	bd 4f       	sbci	r27, 0xFD	; 253
    4260:	01 90       	ld	r0, Z+
    4262:	0d 92       	st	X+, r0
    4264:	8a 95       	dec	r24
    4266:	e1 f7       	brne	.-8      	; 0x4260 <__stack+0x161>
	struct questionHard h14 = {"8","2","2","5","13",14};	//8*2/2+5=13
    4268:	8c e0       	ldi	r24, 0x0C	; 12
    426a:	ee e0       	ldi	r30, 0x0E	; 14
    426c:	f4 e0       	ldi	r31, 0x04	; 4
    426e:	de 01       	movw	r26, r28
    4270:	ae 59       	subi	r26, 0x9E	; 158
    4272:	bd 4f       	sbci	r27, 0xFD	; 253
    4274:	01 90       	ld	r0, Z+
    4276:	0d 92       	st	X+, r0
    4278:	8a 95       	dec	r24
    427a:	e1 f7       	brne	.-8      	; 0x4274 <__stack+0x175>
	struct questionHard h15 = {"13","6","2","6","10",15};	//13+6/2-6=10
    427c:	8c e0       	ldi	r24, 0x0C	; 12
    427e:	ea e1       	ldi	r30, 0x1A	; 26
    4280:	f4 e0       	ldi	r31, 0x04	; 4
    4282:	de 01       	movw	r26, r28
    4284:	a2 59       	subi	r26, 0x92	; 146
    4286:	bd 4f       	sbci	r27, 0xFD	; 253
    4288:	01 90       	ld	r0, Z+
    428a:	0d 92       	st	X+, r0
    428c:	8a 95       	dec	r24
    428e:	e1 f7       	brne	.-8      	; 0x4288 <__stack+0x189>
	struct questionHard h16 = {"9","5","0","2","11",16};	//9-5*0+2=11
    4290:	8c e0       	ldi	r24, 0x0C	; 12
    4292:	e6 e2       	ldi	r30, 0x26	; 38
    4294:	f4 e0       	ldi	r31, 0x04	; 4
    4296:	de 01       	movw	r26, r28
    4298:	a6 58       	subi	r26, 0x86	; 134
    429a:	bd 4f       	sbci	r27, 0xFD	; 253
    429c:	01 90       	ld	r0, Z+
    429e:	0d 92       	st	X+, r0
    42a0:	8a 95       	dec	r24
    42a2:	e1 f7       	brne	.-8      	; 0x429c <__stack+0x19d>
	struct questionHard h17 = {"4","4","2","2","5",17};		//4+4/2/2=5
    42a4:	8c e0       	ldi	r24, 0x0C	; 12
    42a6:	e2 e3       	ldi	r30, 0x32	; 50
    42a8:	f4 e0       	ldi	r31, 0x04	; 4
    42aa:	de 01       	movw	r26, r28
    42ac:	aa 57       	subi	r26, 0x7A	; 122
    42ae:	bd 4f       	sbci	r27, 0xFD	; 253
    42b0:	01 90       	ld	r0, Z+
    42b2:	0d 92       	st	X+, r0
    42b4:	8a 95       	dec	r24
    42b6:	e1 f7       	brne	.-8      	; 0x42b0 <__stack+0x1b1>
	struct questionHard h18 = {"7","7","5","5","2",18};		//7/7+5/5=2																		
    42b8:	8c e0       	ldi	r24, 0x0C	; 12
    42ba:	ee e3       	ldi	r30, 0x3E	; 62
    42bc:	f4 e0       	ldi	r31, 0x04	; 4
    42be:	de 01       	movw	r26, r28
    42c0:	ae 56       	subi	r26, 0x6E	; 110
    42c2:	bd 4f       	sbci	r27, 0xFD	; 253
    42c4:	01 90       	ld	r0, Z+
    42c6:	0d 92       	st	X+, r0
    42c8:	8a 95       	dec	r24
    42ca:	e1 f7       	brne	.-8      	; 0x42c4 <__stack+0x1c5>
	struct questionHard h19 = {"3","2","6","1","13",19};	//3*2+6+1=13		
    42cc:	8c e0       	ldi	r24, 0x0C	; 12
    42ce:	ea e4       	ldi	r30, 0x4A	; 74
    42d0:	f4 e0       	ldi	r31, 0x04	; 4
    42d2:	de 01       	movw	r26, r28
    42d4:	a2 56       	subi	r26, 0x62	; 98
    42d6:	bd 4f       	sbci	r27, 0xFD	; 253
    42d8:	01 90       	ld	r0, Z+
    42da:	0d 92       	st	X+, r0
    42dc:	8a 95       	dec	r24
    42de:	e1 f7       	brne	.-8      	; 0x42d8 <__stack+0x1d9>
	struct questionHard h20 = {"4","5","2","2","8",20};		//4*5/2-2=8
    42e0:	8c e0       	ldi	r24, 0x0C	; 12
    42e2:	e6 e5       	ldi	r30, 0x56	; 86
    42e4:	f4 e0       	ldi	r31, 0x04	; 4
    42e6:	de 01       	movw	r26, r28
    42e8:	a6 55       	subi	r26, 0x56	; 86
    42ea:	bd 4f       	sbci	r27, 0xFD	; 253
    42ec:	01 90       	ld	r0, Z+
    42ee:	0d 92       	st	X+, r0
    42f0:	8a 95       	dec	r24
    42f2:	e1 f7       	brne	.-8      	; 0x42ec <__stack+0x1ed>
			
	if(gameTime == 30 || gameTime == 60 || gameTime == 90)
    42f4:	80 91 07 01 	lds	r24, 0x0107	; 0x800107 <gameTime>
    42f8:	8e 31       	cpi	r24, 0x1E	; 30
    42fa:	11 f4       	brne	.+4      	; 0x4300 <__stack+0x201>
    42fc:	0c 94 ba 2e 	jmp	0x5d74	; 0x5d74 <__stack+0x1c75>
    4300:	8c 33       	cpi	r24, 0x3C	; 60
    4302:	11 f4       	brne	.+4      	; 0x4308 <__stack+0x209>
    4304:	0c 94 ba 2e 	jmp	0x5d74	; 0x5d74 <__stack+0x1c75>
    4308:	8a 35       	cpi	r24, 0x5A	; 90
    430a:	11 f0       	breq	.+4      	; 0x4310 <__stack+0x211>
    430c:	0c 94 c0 2e 	jmp	0x5d80	; 0x5d80 <__stack+0x1c81>
    4310:	0c 94 ba 2e 	jmp	0x5d74	; 0x5d74 <__stack+0x1c75>
	while(inGame){
		if(difficulty == 0){
    4314:	80 91 08 01 	lds	r24, 0x0108	; 0x800108 <difficulty>
    4318:	81 11       	cpse	r24, r1
    431a:	71 c3       	rjmp	.+1762   	; 0x49fe <__stack+0x8ff>
			int r = rand() % 21;
    431c:	0e 94 a4 2f 	call	0x5f48	; 0x5f48 <rand>
    4320:	8c 01       	movw	r16, r24
			LCD_ClearScreen();
    4322:	0e 94 e5 01 	call	0x3ca	; 0x3ca <LCD_ClearScreen>
			switch(r){
    4326:	c8 01       	movw	r24, r16
    4328:	65 e1       	ldi	r22, 0x15	; 21
    432a:	70 e0       	ldi	r23, 0x00	; 0
    432c:	0e 94 2d 2f 	call	0x5e5a	; 0x5e5a <__divmodhi4>
    4330:	85 31       	cpi	r24, 0x15	; 21
    4332:	91 05       	cpc	r25, r1
    4334:	10 f0       	brcs	.+4      	; 0x433a <__stack+0x23b>
    4336:	0c 94 ba 2e 	jmp	0x5d74	; 0x5d74 <__stack+0x1c75>
    433a:	fc 01       	movw	r30, r24
    433c:	ea 5b       	subi	r30, 0xBA	; 186
    433e:	ff 4f       	sbci	r31, 0xFF	; 255
    4340:	0c 94 40 2f 	jmp	0x5e80	; 0x5e80 <__tablejump2__>
			case 0:
				playQuestionEasy(q0);
    4344:	e9 80       	ldd	r14, Y+1	; 0x01
    4346:	fa 80       	ldd	r15, Y+2	; 0x02
    4348:	0b 81       	ldd	r16, Y+3	; 0x03
    434a:	1c 81       	ldd	r17, Y+4	; 0x04
    434c:	2d 81       	ldd	r18, Y+5	; 0x05
    434e:	3e 81       	ldd	r19, Y+6	; 0x06
    4350:	4f 81       	ldd	r20, Y+7	; 0x07
    4352:	58 85       	ldd	r21, Y+8	; 0x08
    4354:	69 85       	ldd	r22, Y+9	; 0x09
    4356:	7a 85       	ldd	r23, Y+10	; 0x0a
    4358:	8b 85       	ldd	r24, Y+11	; 0x0b
    435a:	0e 94 88 14 	call	0x2910	; 0x2910 <playQuestionEasy>
				break;
    435e:	0c 94 ba 2e 	jmp	0x5d74	; 0x5d74 <__stack+0x1c75>
			case 1:	
				playQuestionEasy(q1);
    4362:	ec 84       	ldd	r14, Y+12	; 0x0c
    4364:	fd 84       	ldd	r15, Y+13	; 0x0d
    4366:	0e 85       	ldd	r16, Y+14	; 0x0e
    4368:	1f 85       	ldd	r17, Y+15	; 0x0f
    436a:	28 89       	ldd	r18, Y+16	; 0x10
    436c:	39 89       	ldd	r19, Y+17	; 0x11
    436e:	4a 89       	ldd	r20, Y+18	; 0x12
    4370:	5b 89       	ldd	r21, Y+19	; 0x13
    4372:	6c 89       	ldd	r22, Y+20	; 0x14
    4374:	7d 89       	ldd	r23, Y+21	; 0x15
    4376:	8e 89       	ldd	r24, Y+22	; 0x16
    4378:	0e 94 88 14 	call	0x2910	; 0x2910 <playQuestionEasy>
				break;
    437c:	0c 94 ba 2e 	jmp	0x5d74	; 0x5d74 <__stack+0x1c75>
			case 2:
				playQuestionEasy(q2);
    4380:	ef 88       	ldd	r14, Y+23	; 0x17
    4382:	f8 8c       	ldd	r15, Y+24	; 0x18
    4384:	09 8d       	ldd	r16, Y+25	; 0x19
    4386:	1a 8d       	ldd	r17, Y+26	; 0x1a
    4388:	2b 8d       	ldd	r18, Y+27	; 0x1b
    438a:	3c 8d       	ldd	r19, Y+28	; 0x1c
    438c:	4d 8d       	ldd	r20, Y+29	; 0x1d
    438e:	5e 8d       	ldd	r21, Y+30	; 0x1e
    4390:	6f 8d       	ldd	r22, Y+31	; 0x1f
    4392:	78 a1       	ldd	r23, Y+32	; 0x20
    4394:	89 a1       	ldd	r24, Y+33	; 0x21
    4396:	0e 94 88 14 	call	0x2910	; 0x2910 <playQuestionEasy>
				break;
    439a:	0c 94 ba 2e 	jmp	0x5d74	; 0x5d74 <__stack+0x1c75>
			case 3:	
				playQuestionEasy(q3);
    439e:	ea a0       	ldd	r14, Y+34	; 0x22
    43a0:	fb a0       	ldd	r15, Y+35	; 0x23
    43a2:	0c a1       	ldd	r16, Y+36	; 0x24
    43a4:	1d a1       	ldd	r17, Y+37	; 0x25
    43a6:	2e a1       	ldd	r18, Y+38	; 0x26
    43a8:	3f a1       	ldd	r19, Y+39	; 0x27
    43aa:	48 a5       	ldd	r20, Y+40	; 0x28
    43ac:	59 a5       	ldd	r21, Y+41	; 0x29
    43ae:	6a a5       	ldd	r22, Y+42	; 0x2a
    43b0:	7b a5       	ldd	r23, Y+43	; 0x2b
    43b2:	8c a5       	ldd	r24, Y+44	; 0x2c
    43b4:	0e 94 88 14 	call	0x2910	; 0x2910 <playQuestionEasy>
				break;		
    43b8:	0c 94 ba 2e 	jmp	0x5d74	; 0x5d74 <__stack+0x1c75>
			case 4:	
				playQuestionEasy(q4);
    43bc:	ed a4       	ldd	r14, Y+45	; 0x2d
    43be:	fe a4       	ldd	r15, Y+46	; 0x2e
    43c0:	0f a5       	ldd	r16, Y+47	; 0x2f
    43c2:	18 a9       	ldd	r17, Y+48	; 0x30
    43c4:	29 a9       	ldd	r18, Y+49	; 0x31
    43c6:	3a a9       	ldd	r19, Y+50	; 0x32
    43c8:	4b a9       	ldd	r20, Y+51	; 0x33
    43ca:	5c a9       	ldd	r21, Y+52	; 0x34
    43cc:	6d a9       	ldd	r22, Y+53	; 0x35
    43ce:	7e a9       	ldd	r23, Y+54	; 0x36
    43d0:	8f a9       	ldd	r24, Y+55	; 0x37
    43d2:	0e 94 88 14 	call	0x2910	; 0x2910 <playQuestionEasy>
				break;
    43d6:	0c 94 ba 2e 	jmp	0x5d74	; 0x5d74 <__stack+0x1c75>
			case 5:	
				playQuestionEasy(q5);
    43da:	e8 ac       	ldd	r14, Y+56	; 0x38
    43dc:	f9 ac       	ldd	r15, Y+57	; 0x39
    43de:	0a ad       	ldd	r16, Y+58	; 0x3a
    43e0:	1b ad       	ldd	r17, Y+59	; 0x3b
    43e2:	2c ad       	ldd	r18, Y+60	; 0x3c
    43e4:	3d ad       	ldd	r19, Y+61	; 0x3d
    43e6:	4e ad       	ldd	r20, Y+62	; 0x3e
    43e8:	5f ad       	ldd	r21, Y+63	; 0x3f
    43ea:	21 96       	adiw	r28, 0x01	; 1
    43ec:	6f ad       	ldd	r22, Y+63	; 0x3f
    43ee:	21 97       	sbiw	r28, 0x01	; 1
    43f0:	22 96       	adiw	r28, 0x02	; 2
    43f2:	7f ad       	ldd	r23, Y+63	; 0x3f
    43f4:	22 97       	sbiw	r28, 0x02	; 2
    43f6:	23 96       	adiw	r28, 0x03	; 3
    43f8:	8f ad       	ldd	r24, Y+63	; 0x3f
    43fa:	23 97       	sbiw	r28, 0x03	; 3
    43fc:	0e 94 88 14 	call	0x2910	; 0x2910 <playQuestionEasy>
				break;	
    4400:	0c 94 ba 2e 	jmp	0x5d74	; 0x5d74 <__stack+0x1c75>
			case 6:	
				playQuestionEasy(q6);
    4404:	24 96       	adiw	r28, 0x04	; 4
    4406:	ef ac       	ldd	r14, Y+63	; 0x3f
    4408:	24 97       	sbiw	r28, 0x04	; 4
    440a:	25 96       	adiw	r28, 0x05	; 5
    440c:	ff ac       	ldd	r15, Y+63	; 0x3f
    440e:	25 97       	sbiw	r28, 0x05	; 5
    4410:	26 96       	adiw	r28, 0x06	; 6
    4412:	0f ad       	ldd	r16, Y+63	; 0x3f
    4414:	26 97       	sbiw	r28, 0x06	; 6
    4416:	27 96       	adiw	r28, 0x07	; 7
    4418:	1f ad       	ldd	r17, Y+63	; 0x3f
    441a:	27 97       	sbiw	r28, 0x07	; 7
    441c:	28 96       	adiw	r28, 0x08	; 8
    441e:	2f ad       	ldd	r18, Y+63	; 0x3f
    4420:	28 97       	sbiw	r28, 0x08	; 8
    4422:	29 96       	adiw	r28, 0x09	; 9
    4424:	3f ad       	ldd	r19, Y+63	; 0x3f
    4426:	29 97       	sbiw	r28, 0x09	; 9
    4428:	2a 96       	adiw	r28, 0x0a	; 10
    442a:	4f ad       	ldd	r20, Y+63	; 0x3f
    442c:	2a 97       	sbiw	r28, 0x0a	; 10
    442e:	2b 96       	adiw	r28, 0x0b	; 11
    4430:	5f ad       	ldd	r21, Y+63	; 0x3f
    4432:	2b 97       	sbiw	r28, 0x0b	; 11
    4434:	2c 96       	adiw	r28, 0x0c	; 12
    4436:	6f ad       	ldd	r22, Y+63	; 0x3f
    4438:	2c 97       	sbiw	r28, 0x0c	; 12
    443a:	2d 96       	adiw	r28, 0x0d	; 13
    443c:	7f ad       	ldd	r23, Y+63	; 0x3f
    443e:	2d 97       	sbiw	r28, 0x0d	; 13
    4440:	2e 96       	adiw	r28, 0x0e	; 14
    4442:	8f ad       	ldd	r24, Y+63	; 0x3f
    4444:	2e 97       	sbiw	r28, 0x0e	; 14
    4446:	0e 94 88 14 	call	0x2910	; 0x2910 <playQuestionEasy>
				break;	
    444a:	0c 94 ba 2e 	jmp	0x5d74	; 0x5d74 <__stack+0x1c75>
			case 7:	
				playQuestionEasy(q7);
    444e:	2f 96       	adiw	r28, 0x0f	; 15
    4450:	ef ac       	ldd	r14, Y+63	; 0x3f
    4452:	2f 97       	sbiw	r28, 0x0f	; 15
    4454:	60 96       	adiw	r28, 0x10	; 16
    4456:	ff ac       	ldd	r15, Y+63	; 0x3f
    4458:	60 97       	sbiw	r28, 0x10	; 16
    445a:	61 96       	adiw	r28, 0x11	; 17
    445c:	0f ad       	ldd	r16, Y+63	; 0x3f
    445e:	61 97       	sbiw	r28, 0x11	; 17
    4460:	62 96       	adiw	r28, 0x12	; 18
    4462:	1f ad       	ldd	r17, Y+63	; 0x3f
    4464:	62 97       	sbiw	r28, 0x12	; 18
    4466:	63 96       	adiw	r28, 0x13	; 19
    4468:	2f ad       	ldd	r18, Y+63	; 0x3f
    446a:	63 97       	sbiw	r28, 0x13	; 19
    446c:	64 96       	adiw	r28, 0x14	; 20
    446e:	3f ad       	ldd	r19, Y+63	; 0x3f
    4470:	64 97       	sbiw	r28, 0x14	; 20
    4472:	65 96       	adiw	r28, 0x15	; 21
    4474:	4f ad       	ldd	r20, Y+63	; 0x3f
    4476:	65 97       	sbiw	r28, 0x15	; 21
    4478:	66 96       	adiw	r28, 0x16	; 22
    447a:	5f ad       	ldd	r21, Y+63	; 0x3f
    447c:	66 97       	sbiw	r28, 0x16	; 22
    447e:	67 96       	adiw	r28, 0x17	; 23
    4480:	6f ad       	ldd	r22, Y+63	; 0x3f
    4482:	67 97       	sbiw	r28, 0x17	; 23
    4484:	68 96       	adiw	r28, 0x18	; 24
    4486:	7f ad       	ldd	r23, Y+63	; 0x3f
    4488:	68 97       	sbiw	r28, 0x18	; 24
    448a:	69 96       	adiw	r28, 0x19	; 25
    448c:	8f ad       	ldd	r24, Y+63	; 0x3f
    448e:	69 97       	sbiw	r28, 0x19	; 25
    4490:	0e 94 88 14 	call	0x2910	; 0x2910 <playQuestionEasy>
				break;		
    4494:	0c 94 ba 2e 	jmp	0x5d74	; 0x5d74 <__stack+0x1c75>
			case 8:	
				playQuestionEasy(q8);
    4498:	6a 96       	adiw	r28, 0x1a	; 26
    449a:	ef ac       	ldd	r14, Y+63	; 0x3f
    449c:	6a 97       	sbiw	r28, 0x1a	; 26
    449e:	6b 96       	adiw	r28, 0x1b	; 27
    44a0:	ff ac       	ldd	r15, Y+63	; 0x3f
    44a2:	6b 97       	sbiw	r28, 0x1b	; 27
    44a4:	6c 96       	adiw	r28, 0x1c	; 28
    44a6:	0f ad       	ldd	r16, Y+63	; 0x3f
    44a8:	6c 97       	sbiw	r28, 0x1c	; 28
    44aa:	6d 96       	adiw	r28, 0x1d	; 29
    44ac:	1f ad       	ldd	r17, Y+63	; 0x3f
    44ae:	6d 97       	sbiw	r28, 0x1d	; 29
    44b0:	6e 96       	adiw	r28, 0x1e	; 30
    44b2:	2f ad       	ldd	r18, Y+63	; 0x3f
    44b4:	6e 97       	sbiw	r28, 0x1e	; 30
    44b6:	6f 96       	adiw	r28, 0x1f	; 31
    44b8:	3f ad       	ldd	r19, Y+63	; 0x3f
    44ba:	6f 97       	sbiw	r28, 0x1f	; 31
    44bc:	a0 96       	adiw	r28, 0x20	; 32
    44be:	4f ad       	ldd	r20, Y+63	; 0x3f
    44c0:	a0 97       	sbiw	r28, 0x20	; 32
    44c2:	a1 96       	adiw	r28, 0x21	; 33
    44c4:	5f ad       	ldd	r21, Y+63	; 0x3f
    44c6:	a1 97       	sbiw	r28, 0x21	; 33
    44c8:	a2 96       	adiw	r28, 0x22	; 34
    44ca:	6f ad       	ldd	r22, Y+63	; 0x3f
    44cc:	a2 97       	sbiw	r28, 0x22	; 34
    44ce:	a3 96       	adiw	r28, 0x23	; 35
    44d0:	7f ad       	ldd	r23, Y+63	; 0x3f
    44d2:	a3 97       	sbiw	r28, 0x23	; 35
    44d4:	a4 96       	adiw	r28, 0x24	; 36
    44d6:	8f ad       	ldd	r24, Y+63	; 0x3f
    44d8:	a4 97       	sbiw	r28, 0x24	; 36
    44da:	0e 94 88 14 	call	0x2910	; 0x2910 <playQuestionEasy>
				break;	
    44de:	0c 94 ba 2e 	jmp	0x5d74	; 0x5d74 <__stack+0x1c75>
			case 9:	
				playQuestionEasy(q9);
    44e2:	a5 96       	adiw	r28, 0x25	; 37
    44e4:	ef ac       	ldd	r14, Y+63	; 0x3f
    44e6:	a5 97       	sbiw	r28, 0x25	; 37
    44e8:	a6 96       	adiw	r28, 0x26	; 38
    44ea:	ff ac       	ldd	r15, Y+63	; 0x3f
    44ec:	a6 97       	sbiw	r28, 0x26	; 38
    44ee:	a7 96       	adiw	r28, 0x27	; 39
    44f0:	0f ad       	ldd	r16, Y+63	; 0x3f
    44f2:	a7 97       	sbiw	r28, 0x27	; 39
    44f4:	a8 96       	adiw	r28, 0x28	; 40
    44f6:	1f ad       	ldd	r17, Y+63	; 0x3f
    44f8:	a8 97       	sbiw	r28, 0x28	; 40
    44fa:	a9 96       	adiw	r28, 0x29	; 41
    44fc:	2f ad       	ldd	r18, Y+63	; 0x3f
    44fe:	a9 97       	sbiw	r28, 0x29	; 41
    4500:	aa 96       	adiw	r28, 0x2a	; 42
    4502:	3f ad       	ldd	r19, Y+63	; 0x3f
    4504:	aa 97       	sbiw	r28, 0x2a	; 42
    4506:	ab 96       	adiw	r28, 0x2b	; 43
    4508:	4f ad       	ldd	r20, Y+63	; 0x3f
    450a:	ab 97       	sbiw	r28, 0x2b	; 43
    450c:	ac 96       	adiw	r28, 0x2c	; 44
    450e:	5f ad       	ldd	r21, Y+63	; 0x3f
    4510:	ac 97       	sbiw	r28, 0x2c	; 44
    4512:	ad 96       	adiw	r28, 0x2d	; 45
    4514:	6f ad       	ldd	r22, Y+63	; 0x3f
    4516:	ad 97       	sbiw	r28, 0x2d	; 45
    4518:	ae 96       	adiw	r28, 0x2e	; 46
    451a:	7f ad       	ldd	r23, Y+63	; 0x3f
    451c:	ae 97       	sbiw	r28, 0x2e	; 46
    451e:	af 96       	adiw	r28, 0x2f	; 47
    4520:	8f ad       	ldd	r24, Y+63	; 0x3f
    4522:	af 97       	sbiw	r28, 0x2f	; 47
    4524:	0e 94 88 14 	call	0x2910	; 0x2910 <playQuestionEasy>
				break;	
    4528:	0c 94 ba 2e 	jmp	0x5d74	; 0x5d74 <__stack+0x1c75>
			case 10:
				playQuestionEasy(q10);
    452c:	e0 96       	adiw	r28, 0x30	; 48
    452e:	ef ac       	ldd	r14, Y+63	; 0x3f
    4530:	e0 97       	sbiw	r28, 0x30	; 48
    4532:	e1 96       	adiw	r28, 0x31	; 49
    4534:	ff ac       	ldd	r15, Y+63	; 0x3f
    4536:	e1 97       	sbiw	r28, 0x31	; 49
    4538:	e2 96       	adiw	r28, 0x32	; 50
    453a:	0f ad       	ldd	r16, Y+63	; 0x3f
    453c:	e2 97       	sbiw	r28, 0x32	; 50
    453e:	e3 96       	adiw	r28, 0x33	; 51
    4540:	1f ad       	ldd	r17, Y+63	; 0x3f
    4542:	e3 97       	sbiw	r28, 0x33	; 51
    4544:	e4 96       	adiw	r28, 0x34	; 52
    4546:	2f ad       	ldd	r18, Y+63	; 0x3f
    4548:	e4 97       	sbiw	r28, 0x34	; 52
    454a:	e5 96       	adiw	r28, 0x35	; 53
    454c:	3f ad       	ldd	r19, Y+63	; 0x3f
    454e:	e5 97       	sbiw	r28, 0x35	; 53
    4550:	e6 96       	adiw	r28, 0x36	; 54
    4552:	4f ad       	ldd	r20, Y+63	; 0x3f
    4554:	e6 97       	sbiw	r28, 0x36	; 54
    4556:	e7 96       	adiw	r28, 0x37	; 55
    4558:	5f ad       	ldd	r21, Y+63	; 0x3f
    455a:	e7 97       	sbiw	r28, 0x37	; 55
    455c:	e8 96       	adiw	r28, 0x38	; 56
    455e:	6f ad       	ldd	r22, Y+63	; 0x3f
    4560:	e8 97       	sbiw	r28, 0x38	; 56
    4562:	e9 96       	adiw	r28, 0x39	; 57
    4564:	7f ad       	ldd	r23, Y+63	; 0x3f
    4566:	e9 97       	sbiw	r28, 0x39	; 57
    4568:	ea 96       	adiw	r28, 0x3a	; 58
    456a:	8f ad       	ldd	r24, Y+63	; 0x3f
    456c:	ea 97       	sbiw	r28, 0x3a	; 58
    456e:	0e 94 88 14 	call	0x2910	; 0x2910 <playQuestionEasy>
				break;	
    4572:	0c 94 ba 2e 	jmp	0x5d74	; 0x5d74 <__stack+0x1c75>
			case 11:
				playQuestionEasy(q11);
    4576:	eb 96       	adiw	r28, 0x3b	; 59
    4578:	ef ac       	ldd	r14, Y+63	; 0x3f
    457a:	eb 97       	sbiw	r28, 0x3b	; 59
    457c:	ec 96       	adiw	r28, 0x3c	; 60
    457e:	ff ac       	ldd	r15, Y+63	; 0x3f
    4580:	ec 97       	sbiw	r28, 0x3c	; 60
    4582:	ed 96       	adiw	r28, 0x3d	; 61
    4584:	0f ad       	ldd	r16, Y+63	; 0x3f
    4586:	ed 97       	sbiw	r28, 0x3d	; 61
    4588:	ee 96       	adiw	r28, 0x3e	; 62
    458a:	1f ad       	ldd	r17, Y+63	; 0x3f
    458c:	ee 97       	sbiw	r28, 0x3e	; 62
    458e:	ef 96       	adiw	r28, 0x3f	; 63
    4590:	2f ad       	ldd	r18, Y+63	; 0x3f
    4592:	ef 97       	sbiw	r28, 0x3f	; 63
    4594:	c1 58       	subi	r28, 0x81	; 129
    4596:	df 4f       	sbci	r29, 0xFF	; 255
    4598:	38 81       	ld	r19, Y
    459a:	cf 57       	subi	r28, 0x7F	; 127
    459c:	d0 40       	sbci	r29, 0x00	; 0
    459e:	c0 58       	subi	r28, 0x80	; 128
    45a0:	df 4f       	sbci	r29, 0xFF	; 255
    45a2:	48 81       	ld	r20, Y
    45a4:	c0 58       	subi	r28, 0x80	; 128
    45a6:	d0 40       	sbci	r29, 0x00	; 0
    45a8:	cf 57       	subi	r28, 0x7F	; 127
    45aa:	df 4f       	sbci	r29, 0xFF	; 255
    45ac:	58 81       	ld	r21, Y
    45ae:	c1 58       	subi	r28, 0x81	; 129
    45b0:	d0 40       	sbci	r29, 0x00	; 0
    45b2:	ce 57       	subi	r28, 0x7E	; 126
    45b4:	df 4f       	sbci	r29, 0xFF	; 255
    45b6:	68 81       	ld	r22, Y
    45b8:	c2 58       	subi	r28, 0x82	; 130
    45ba:	d0 40       	sbci	r29, 0x00	; 0
    45bc:	cd 57       	subi	r28, 0x7D	; 125
    45be:	df 4f       	sbci	r29, 0xFF	; 255
    45c0:	78 81       	ld	r23, Y
    45c2:	c3 58       	subi	r28, 0x83	; 131
    45c4:	d0 40       	sbci	r29, 0x00	; 0
    45c6:	cc 57       	subi	r28, 0x7C	; 124
    45c8:	df 4f       	sbci	r29, 0xFF	; 255
    45ca:	88 81       	ld	r24, Y
    45cc:	c4 58       	subi	r28, 0x84	; 132
    45ce:	d0 40       	sbci	r29, 0x00	; 0
    45d0:	0e 94 88 14 	call	0x2910	; 0x2910 <playQuestionEasy>
				break;
    45d4:	0c 94 ba 2e 	jmp	0x5d74	; 0x5d74 <__stack+0x1c75>
			case 12:
				playQuestionEasy(q12);
    45d8:	cb 57       	subi	r28, 0x7B	; 123
    45da:	df 4f       	sbci	r29, 0xFF	; 255
    45dc:	e8 80       	ld	r14, Y
    45de:	c5 58       	subi	r28, 0x85	; 133
    45e0:	d0 40       	sbci	r29, 0x00	; 0
    45e2:	ca 57       	subi	r28, 0x7A	; 122
    45e4:	df 4f       	sbci	r29, 0xFF	; 255
    45e6:	f8 80       	ld	r15, Y
    45e8:	c6 58       	subi	r28, 0x86	; 134
    45ea:	d0 40       	sbci	r29, 0x00	; 0
    45ec:	c9 57       	subi	r28, 0x79	; 121
    45ee:	df 4f       	sbci	r29, 0xFF	; 255
    45f0:	08 81       	ld	r16, Y
    45f2:	c7 58       	subi	r28, 0x87	; 135
    45f4:	d0 40       	sbci	r29, 0x00	; 0
    45f6:	c8 57       	subi	r28, 0x78	; 120
    45f8:	df 4f       	sbci	r29, 0xFF	; 255
    45fa:	18 81       	ld	r17, Y
    45fc:	c8 58       	subi	r28, 0x88	; 136
    45fe:	d0 40       	sbci	r29, 0x00	; 0
    4600:	c7 57       	subi	r28, 0x77	; 119
    4602:	df 4f       	sbci	r29, 0xFF	; 255
    4604:	28 81       	ld	r18, Y
    4606:	c9 58       	subi	r28, 0x89	; 137
    4608:	d0 40       	sbci	r29, 0x00	; 0
    460a:	c6 57       	subi	r28, 0x76	; 118
    460c:	df 4f       	sbci	r29, 0xFF	; 255
    460e:	38 81       	ld	r19, Y
    4610:	ca 58       	subi	r28, 0x8A	; 138
    4612:	d0 40       	sbci	r29, 0x00	; 0
    4614:	c5 57       	subi	r28, 0x75	; 117
    4616:	df 4f       	sbci	r29, 0xFF	; 255
    4618:	48 81       	ld	r20, Y
    461a:	cb 58       	subi	r28, 0x8B	; 139
    461c:	d0 40       	sbci	r29, 0x00	; 0
    461e:	c4 57       	subi	r28, 0x74	; 116
    4620:	df 4f       	sbci	r29, 0xFF	; 255
    4622:	58 81       	ld	r21, Y
    4624:	cc 58       	subi	r28, 0x8C	; 140
    4626:	d0 40       	sbci	r29, 0x00	; 0
    4628:	c3 57       	subi	r28, 0x73	; 115
    462a:	df 4f       	sbci	r29, 0xFF	; 255
    462c:	68 81       	ld	r22, Y
    462e:	cd 58       	subi	r28, 0x8D	; 141
    4630:	d0 40       	sbci	r29, 0x00	; 0
    4632:	c2 57       	subi	r28, 0x72	; 114
    4634:	df 4f       	sbci	r29, 0xFF	; 255
    4636:	78 81       	ld	r23, Y
    4638:	ce 58       	subi	r28, 0x8E	; 142
    463a:	d0 40       	sbci	r29, 0x00	; 0
    463c:	c1 57       	subi	r28, 0x71	; 113
    463e:	df 4f       	sbci	r29, 0xFF	; 255
    4640:	88 81       	ld	r24, Y
    4642:	cf 58       	subi	r28, 0x8F	; 143
    4644:	d0 40       	sbci	r29, 0x00	; 0
    4646:	0e 94 88 14 	call	0x2910	; 0x2910 <playQuestionEasy>
				break;
    464a:	0c 94 ba 2e 	jmp	0x5d74	; 0x5d74 <__stack+0x1c75>
			case 13:
				playQuestionEasy(q13);
    464e:	c0 57       	subi	r28, 0x70	; 112
    4650:	df 4f       	sbci	r29, 0xFF	; 255
    4652:	e8 80       	ld	r14, Y
    4654:	c0 59       	subi	r28, 0x90	; 144
    4656:	d0 40       	sbci	r29, 0x00	; 0
    4658:	cf 56       	subi	r28, 0x6F	; 111
    465a:	df 4f       	sbci	r29, 0xFF	; 255
    465c:	f8 80       	ld	r15, Y
    465e:	c1 59       	subi	r28, 0x91	; 145
    4660:	d0 40       	sbci	r29, 0x00	; 0
    4662:	ce 56       	subi	r28, 0x6E	; 110
    4664:	df 4f       	sbci	r29, 0xFF	; 255
    4666:	08 81       	ld	r16, Y
    4668:	c2 59       	subi	r28, 0x92	; 146
    466a:	d0 40       	sbci	r29, 0x00	; 0
    466c:	cd 56       	subi	r28, 0x6D	; 109
    466e:	df 4f       	sbci	r29, 0xFF	; 255
    4670:	18 81       	ld	r17, Y
    4672:	c3 59       	subi	r28, 0x93	; 147
    4674:	d0 40       	sbci	r29, 0x00	; 0
    4676:	cc 56       	subi	r28, 0x6C	; 108
    4678:	df 4f       	sbci	r29, 0xFF	; 255
    467a:	28 81       	ld	r18, Y
    467c:	c4 59       	subi	r28, 0x94	; 148
    467e:	d0 40       	sbci	r29, 0x00	; 0
    4680:	cb 56       	subi	r28, 0x6B	; 107
    4682:	df 4f       	sbci	r29, 0xFF	; 255
    4684:	38 81       	ld	r19, Y
    4686:	c5 59       	subi	r28, 0x95	; 149
    4688:	d0 40       	sbci	r29, 0x00	; 0
    468a:	ca 56       	subi	r28, 0x6A	; 106
    468c:	df 4f       	sbci	r29, 0xFF	; 255
    468e:	48 81       	ld	r20, Y
    4690:	c6 59       	subi	r28, 0x96	; 150
    4692:	d0 40       	sbci	r29, 0x00	; 0
    4694:	c9 56       	subi	r28, 0x69	; 105
    4696:	df 4f       	sbci	r29, 0xFF	; 255
    4698:	58 81       	ld	r21, Y
    469a:	c7 59       	subi	r28, 0x97	; 151
    469c:	d0 40       	sbci	r29, 0x00	; 0
    469e:	c8 56       	subi	r28, 0x68	; 104
    46a0:	df 4f       	sbci	r29, 0xFF	; 255
    46a2:	68 81       	ld	r22, Y
    46a4:	c8 59       	subi	r28, 0x98	; 152
    46a6:	d0 40       	sbci	r29, 0x00	; 0
    46a8:	c7 56       	subi	r28, 0x67	; 103
    46aa:	df 4f       	sbci	r29, 0xFF	; 255
    46ac:	78 81       	ld	r23, Y
    46ae:	c9 59       	subi	r28, 0x99	; 153
    46b0:	d0 40       	sbci	r29, 0x00	; 0
    46b2:	c6 56       	subi	r28, 0x66	; 102
    46b4:	df 4f       	sbci	r29, 0xFF	; 255
    46b6:	88 81       	ld	r24, Y
    46b8:	ca 59       	subi	r28, 0x9A	; 154
    46ba:	d0 40       	sbci	r29, 0x00	; 0
    46bc:	0e 94 88 14 	call	0x2910	; 0x2910 <playQuestionEasy>
				break;
    46c0:	0c 94 ba 2e 	jmp	0x5d74	; 0x5d74 <__stack+0x1c75>
			case 14:
				playQuestionEasy(q14);
    46c4:	c5 56       	subi	r28, 0x65	; 101
    46c6:	df 4f       	sbci	r29, 0xFF	; 255
    46c8:	e8 80       	ld	r14, Y
    46ca:	cb 59       	subi	r28, 0x9B	; 155
    46cc:	d0 40       	sbci	r29, 0x00	; 0
    46ce:	c4 56       	subi	r28, 0x64	; 100
    46d0:	df 4f       	sbci	r29, 0xFF	; 255
    46d2:	f8 80       	ld	r15, Y
    46d4:	cc 59       	subi	r28, 0x9C	; 156
    46d6:	d0 40       	sbci	r29, 0x00	; 0
    46d8:	c3 56       	subi	r28, 0x63	; 99
    46da:	df 4f       	sbci	r29, 0xFF	; 255
    46dc:	08 81       	ld	r16, Y
    46de:	cd 59       	subi	r28, 0x9D	; 157
    46e0:	d0 40       	sbci	r29, 0x00	; 0
    46e2:	c2 56       	subi	r28, 0x62	; 98
    46e4:	df 4f       	sbci	r29, 0xFF	; 255
    46e6:	18 81       	ld	r17, Y
    46e8:	ce 59       	subi	r28, 0x9E	; 158
    46ea:	d0 40       	sbci	r29, 0x00	; 0
    46ec:	c1 56       	subi	r28, 0x61	; 97
    46ee:	df 4f       	sbci	r29, 0xFF	; 255
    46f0:	28 81       	ld	r18, Y
    46f2:	cf 59       	subi	r28, 0x9F	; 159
    46f4:	d0 40       	sbci	r29, 0x00	; 0
    46f6:	c0 56       	subi	r28, 0x60	; 96
    46f8:	df 4f       	sbci	r29, 0xFF	; 255
    46fa:	38 81       	ld	r19, Y
    46fc:	c0 5a       	subi	r28, 0xA0	; 160
    46fe:	d0 40       	sbci	r29, 0x00	; 0
    4700:	cf 55       	subi	r28, 0x5F	; 95
    4702:	df 4f       	sbci	r29, 0xFF	; 255
    4704:	48 81       	ld	r20, Y
    4706:	c1 5a       	subi	r28, 0xA1	; 161
    4708:	d0 40       	sbci	r29, 0x00	; 0
    470a:	ce 55       	subi	r28, 0x5E	; 94
    470c:	df 4f       	sbci	r29, 0xFF	; 255
    470e:	58 81       	ld	r21, Y
    4710:	c2 5a       	subi	r28, 0xA2	; 162
    4712:	d0 40       	sbci	r29, 0x00	; 0
    4714:	cd 55       	subi	r28, 0x5D	; 93
    4716:	df 4f       	sbci	r29, 0xFF	; 255
    4718:	68 81       	ld	r22, Y
    471a:	c3 5a       	subi	r28, 0xA3	; 163
    471c:	d0 40       	sbci	r29, 0x00	; 0
    471e:	cc 55       	subi	r28, 0x5C	; 92
    4720:	df 4f       	sbci	r29, 0xFF	; 255
    4722:	78 81       	ld	r23, Y
    4724:	c4 5a       	subi	r28, 0xA4	; 164
    4726:	d0 40       	sbci	r29, 0x00	; 0
    4728:	cb 55       	subi	r28, 0x5B	; 91
    472a:	df 4f       	sbci	r29, 0xFF	; 255
    472c:	88 81       	ld	r24, Y
    472e:	c5 5a       	subi	r28, 0xA5	; 165
    4730:	d0 40       	sbci	r29, 0x00	; 0
    4732:	0e 94 88 14 	call	0x2910	; 0x2910 <playQuestionEasy>
				break;
    4736:	0c 94 ba 2e 	jmp	0x5d74	; 0x5d74 <__stack+0x1c75>
			case 15:
				playQuestionEasy(q15);
    473a:	ca 55       	subi	r28, 0x5A	; 90
    473c:	df 4f       	sbci	r29, 0xFF	; 255
    473e:	e8 80       	ld	r14, Y
    4740:	c6 5a       	subi	r28, 0xA6	; 166
    4742:	d0 40       	sbci	r29, 0x00	; 0
    4744:	c9 55       	subi	r28, 0x59	; 89
    4746:	df 4f       	sbci	r29, 0xFF	; 255
    4748:	f8 80       	ld	r15, Y
    474a:	c7 5a       	subi	r28, 0xA7	; 167
    474c:	d0 40       	sbci	r29, 0x00	; 0
    474e:	c8 55       	subi	r28, 0x58	; 88
    4750:	df 4f       	sbci	r29, 0xFF	; 255
    4752:	08 81       	ld	r16, Y
    4754:	c8 5a       	subi	r28, 0xA8	; 168
    4756:	d0 40       	sbci	r29, 0x00	; 0
    4758:	c7 55       	subi	r28, 0x57	; 87
    475a:	df 4f       	sbci	r29, 0xFF	; 255
    475c:	18 81       	ld	r17, Y
    475e:	c9 5a       	subi	r28, 0xA9	; 169
    4760:	d0 40       	sbci	r29, 0x00	; 0
    4762:	c6 55       	subi	r28, 0x56	; 86
    4764:	df 4f       	sbci	r29, 0xFF	; 255
    4766:	28 81       	ld	r18, Y
    4768:	ca 5a       	subi	r28, 0xAA	; 170
    476a:	d0 40       	sbci	r29, 0x00	; 0
    476c:	c5 55       	subi	r28, 0x55	; 85
    476e:	df 4f       	sbci	r29, 0xFF	; 255
    4770:	38 81       	ld	r19, Y
    4772:	cb 5a       	subi	r28, 0xAB	; 171
    4774:	d0 40       	sbci	r29, 0x00	; 0
    4776:	c4 55       	subi	r28, 0x54	; 84
    4778:	df 4f       	sbci	r29, 0xFF	; 255
    477a:	48 81       	ld	r20, Y
    477c:	cc 5a       	subi	r28, 0xAC	; 172
    477e:	d0 40       	sbci	r29, 0x00	; 0
    4780:	c3 55       	subi	r28, 0x53	; 83
    4782:	df 4f       	sbci	r29, 0xFF	; 255
    4784:	58 81       	ld	r21, Y
    4786:	cd 5a       	subi	r28, 0xAD	; 173
    4788:	d0 40       	sbci	r29, 0x00	; 0
    478a:	c2 55       	subi	r28, 0x52	; 82
    478c:	df 4f       	sbci	r29, 0xFF	; 255
    478e:	68 81       	ld	r22, Y
    4790:	ce 5a       	subi	r28, 0xAE	; 174
    4792:	d0 40       	sbci	r29, 0x00	; 0
    4794:	c1 55       	subi	r28, 0x51	; 81
    4796:	df 4f       	sbci	r29, 0xFF	; 255
    4798:	78 81       	ld	r23, Y
    479a:	cf 5a       	subi	r28, 0xAF	; 175
    479c:	d0 40       	sbci	r29, 0x00	; 0
    479e:	c0 55       	subi	r28, 0x50	; 80
    47a0:	df 4f       	sbci	r29, 0xFF	; 255
    47a2:	88 81       	ld	r24, Y
    47a4:	c0 5b       	subi	r28, 0xB0	; 176
    47a6:	d0 40       	sbci	r29, 0x00	; 0
    47a8:	0e 94 88 14 	call	0x2910	; 0x2910 <playQuestionEasy>
				break;
    47ac:	0c 94 ba 2e 	jmp	0x5d74	; 0x5d74 <__stack+0x1c75>
			case 16:
				playQuestionEasy(q16);
    47b0:	cf 54       	subi	r28, 0x4F	; 79
    47b2:	df 4f       	sbci	r29, 0xFF	; 255
    47b4:	e8 80       	ld	r14, Y
    47b6:	c1 5b       	subi	r28, 0xB1	; 177
    47b8:	d0 40       	sbci	r29, 0x00	; 0
    47ba:	ce 54       	subi	r28, 0x4E	; 78
    47bc:	df 4f       	sbci	r29, 0xFF	; 255
    47be:	f8 80       	ld	r15, Y
    47c0:	c2 5b       	subi	r28, 0xB2	; 178
    47c2:	d0 40       	sbci	r29, 0x00	; 0
    47c4:	cd 54       	subi	r28, 0x4D	; 77
    47c6:	df 4f       	sbci	r29, 0xFF	; 255
    47c8:	08 81       	ld	r16, Y
    47ca:	c3 5b       	subi	r28, 0xB3	; 179
    47cc:	d0 40       	sbci	r29, 0x00	; 0
    47ce:	cc 54       	subi	r28, 0x4C	; 76
    47d0:	df 4f       	sbci	r29, 0xFF	; 255
    47d2:	18 81       	ld	r17, Y
    47d4:	c4 5b       	subi	r28, 0xB4	; 180
    47d6:	d0 40       	sbci	r29, 0x00	; 0
    47d8:	cb 54       	subi	r28, 0x4B	; 75
    47da:	df 4f       	sbci	r29, 0xFF	; 255
    47dc:	28 81       	ld	r18, Y
    47de:	c5 5b       	subi	r28, 0xB5	; 181
    47e0:	d0 40       	sbci	r29, 0x00	; 0
    47e2:	ca 54       	subi	r28, 0x4A	; 74
    47e4:	df 4f       	sbci	r29, 0xFF	; 255
    47e6:	38 81       	ld	r19, Y
    47e8:	c6 5b       	subi	r28, 0xB6	; 182
    47ea:	d0 40       	sbci	r29, 0x00	; 0
    47ec:	c9 54       	subi	r28, 0x49	; 73
    47ee:	df 4f       	sbci	r29, 0xFF	; 255
    47f0:	48 81       	ld	r20, Y
    47f2:	c7 5b       	subi	r28, 0xB7	; 183
    47f4:	d0 40       	sbci	r29, 0x00	; 0
    47f6:	c8 54       	subi	r28, 0x48	; 72
    47f8:	df 4f       	sbci	r29, 0xFF	; 255
    47fa:	58 81       	ld	r21, Y
    47fc:	c8 5b       	subi	r28, 0xB8	; 184
    47fe:	d0 40       	sbci	r29, 0x00	; 0
    4800:	c7 54       	subi	r28, 0x47	; 71
    4802:	df 4f       	sbci	r29, 0xFF	; 255
    4804:	68 81       	ld	r22, Y
    4806:	c9 5b       	subi	r28, 0xB9	; 185
    4808:	d0 40       	sbci	r29, 0x00	; 0
    480a:	c6 54       	subi	r28, 0x46	; 70
    480c:	df 4f       	sbci	r29, 0xFF	; 255
    480e:	78 81       	ld	r23, Y
    4810:	ca 5b       	subi	r28, 0xBA	; 186
    4812:	d0 40       	sbci	r29, 0x00	; 0
    4814:	c5 54       	subi	r28, 0x45	; 69
    4816:	df 4f       	sbci	r29, 0xFF	; 255
    4818:	88 81       	ld	r24, Y
    481a:	cb 5b       	subi	r28, 0xBB	; 187
    481c:	d0 40       	sbci	r29, 0x00	; 0
    481e:	0e 94 88 14 	call	0x2910	; 0x2910 <playQuestionEasy>
				break;
    4822:	0c 94 ba 2e 	jmp	0x5d74	; 0x5d74 <__stack+0x1c75>
			case 17:
				playQuestionEasy(q17);
    4826:	c4 54       	subi	r28, 0x44	; 68
    4828:	df 4f       	sbci	r29, 0xFF	; 255
    482a:	e8 80       	ld	r14, Y
    482c:	cc 5b       	subi	r28, 0xBC	; 188
    482e:	d0 40       	sbci	r29, 0x00	; 0
    4830:	c3 54       	subi	r28, 0x43	; 67
    4832:	df 4f       	sbci	r29, 0xFF	; 255
    4834:	f8 80       	ld	r15, Y
    4836:	cd 5b       	subi	r28, 0xBD	; 189
    4838:	d0 40       	sbci	r29, 0x00	; 0
    483a:	c2 54       	subi	r28, 0x42	; 66
    483c:	df 4f       	sbci	r29, 0xFF	; 255
    483e:	08 81       	ld	r16, Y
    4840:	ce 5b       	subi	r28, 0xBE	; 190
    4842:	d0 40       	sbci	r29, 0x00	; 0
    4844:	c1 54       	subi	r28, 0x41	; 65
    4846:	df 4f       	sbci	r29, 0xFF	; 255
    4848:	18 81       	ld	r17, Y
    484a:	cf 5b       	subi	r28, 0xBF	; 191
    484c:	d0 40       	sbci	r29, 0x00	; 0
    484e:	c0 54       	subi	r28, 0x40	; 64
    4850:	df 4f       	sbci	r29, 0xFF	; 255
    4852:	28 81       	ld	r18, Y
    4854:	c0 5c       	subi	r28, 0xC0	; 192
    4856:	d0 40       	sbci	r29, 0x00	; 0
    4858:	cf 53       	subi	r28, 0x3F	; 63
    485a:	df 4f       	sbci	r29, 0xFF	; 255
    485c:	38 81       	ld	r19, Y
    485e:	c1 5c       	subi	r28, 0xC1	; 193
    4860:	d0 40       	sbci	r29, 0x00	; 0
    4862:	ce 53       	subi	r28, 0x3E	; 62
    4864:	df 4f       	sbci	r29, 0xFF	; 255
    4866:	48 81       	ld	r20, Y
    4868:	c2 5c       	subi	r28, 0xC2	; 194
    486a:	d0 40       	sbci	r29, 0x00	; 0
    486c:	cd 53       	subi	r28, 0x3D	; 61
    486e:	df 4f       	sbci	r29, 0xFF	; 255
    4870:	58 81       	ld	r21, Y
    4872:	c3 5c       	subi	r28, 0xC3	; 195
    4874:	d0 40       	sbci	r29, 0x00	; 0
    4876:	cc 53       	subi	r28, 0x3C	; 60
    4878:	df 4f       	sbci	r29, 0xFF	; 255
    487a:	68 81       	ld	r22, Y
    487c:	c4 5c       	subi	r28, 0xC4	; 196
    487e:	d0 40       	sbci	r29, 0x00	; 0
    4880:	cb 53       	subi	r28, 0x3B	; 59
    4882:	df 4f       	sbci	r29, 0xFF	; 255
    4884:	78 81       	ld	r23, Y
    4886:	c5 5c       	subi	r28, 0xC5	; 197
    4888:	d0 40       	sbci	r29, 0x00	; 0
    488a:	ca 53       	subi	r28, 0x3A	; 58
    488c:	df 4f       	sbci	r29, 0xFF	; 255
    488e:	88 81       	ld	r24, Y
    4890:	c6 5c       	subi	r28, 0xC6	; 198
    4892:	d0 40       	sbci	r29, 0x00	; 0
    4894:	0e 94 88 14 	call	0x2910	; 0x2910 <playQuestionEasy>
				break;
    4898:	0c 94 ba 2e 	jmp	0x5d74	; 0x5d74 <__stack+0x1c75>
			case 18:
				playQuestionEasy(q18);
    489c:	c9 53       	subi	r28, 0x39	; 57
    489e:	df 4f       	sbci	r29, 0xFF	; 255
    48a0:	e8 80       	ld	r14, Y
    48a2:	c7 5c       	subi	r28, 0xC7	; 199
    48a4:	d0 40       	sbci	r29, 0x00	; 0
    48a6:	c8 53       	subi	r28, 0x38	; 56
    48a8:	df 4f       	sbci	r29, 0xFF	; 255
    48aa:	f8 80       	ld	r15, Y
    48ac:	c8 5c       	subi	r28, 0xC8	; 200
    48ae:	d0 40       	sbci	r29, 0x00	; 0
    48b0:	c7 53       	subi	r28, 0x37	; 55
    48b2:	df 4f       	sbci	r29, 0xFF	; 255
    48b4:	08 81       	ld	r16, Y
    48b6:	c9 5c       	subi	r28, 0xC9	; 201
    48b8:	d0 40       	sbci	r29, 0x00	; 0
    48ba:	c6 53       	subi	r28, 0x36	; 54
    48bc:	df 4f       	sbci	r29, 0xFF	; 255
    48be:	18 81       	ld	r17, Y
    48c0:	ca 5c       	subi	r28, 0xCA	; 202
    48c2:	d0 40       	sbci	r29, 0x00	; 0
    48c4:	c5 53       	subi	r28, 0x35	; 53
    48c6:	df 4f       	sbci	r29, 0xFF	; 255
    48c8:	28 81       	ld	r18, Y
    48ca:	cb 5c       	subi	r28, 0xCB	; 203
    48cc:	d0 40       	sbci	r29, 0x00	; 0
    48ce:	c4 53       	subi	r28, 0x34	; 52
    48d0:	df 4f       	sbci	r29, 0xFF	; 255
    48d2:	38 81       	ld	r19, Y
    48d4:	cc 5c       	subi	r28, 0xCC	; 204
    48d6:	d0 40       	sbci	r29, 0x00	; 0
    48d8:	c3 53       	subi	r28, 0x33	; 51
    48da:	df 4f       	sbci	r29, 0xFF	; 255
    48dc:	48 81       	ld	r20, Y
    48de:	cd 5c       	subi	r28, 0xCD	; 205
    48e0:	d0 40       	sbci	r29, 0x00	; 0
    48e2:	c2 53       	subi	r28, 0x32	; 50
    48e4:	df 4f       	sbci	r29, 0xFF	; 255
    48e6:	58 81       	ld	r21, Y
    48e8:	ce 5c       	subi	r28, 0xCE	; 206
    48ea:	d0 40       	sbci	r29, 0x00	; 0
    48ec:	c1 53       	subi	r28, 0x31	; 49
    48ee:	df 4f       	sbci	r29, 0xFF	; 255
    48f0:	68 81       	ld	r22, Y
    48f2:	cf 5c       	subi	r28, 0xCF	; 207
    48f4:	d0 40       	sbci	r29, 0x00	; 0
    48f6:	c0 53       	subi	r28, 0x30	; 48
    48f8:	df 4f       	sbci	r29, 0xFF	; 255
    48fa:	78 81       	ld	r23, Y
    48fc:	c0 5d       	subi	r28, 0xD0	; 208
    48fe:	d0 40       	sbci	r29, 0x00	; 0
    4900:	cf 52       	subi	r28, 0x2F	; 47
    4902:	df 4f       	sbci	r29, 0xFF	; 255
    4904:	88 81       	ld	r24, Y
    4906:	c1 5d       	subi	r28, 0xD1	; 209
    4908:	d0 40       	sbci	r29, 0x00	; 0
    490a:	0e 94 88 14 	call	0x2910	; 0x2910 <playQuestionEasy>
				break;
    490e:	0c 94 ba 2e 	jmp	0x5d74	; 0x5d74 <__stack+0x1c75>
			case 19:
				playQuestionEasy(q19);
    4912:	ce 52       	subi	r28, 0x2E	; 46
    4914:	df 4f       	sbci	r29, 0xFF	; 255
    4916:	e8 80       	ld	r14, Y
    4918:	c2 5d       	subi	r28, 0xD2	; 210
    491a:	d0 40       	sbci	r29, 0x00	; 0
    491c:	cd 52       	subi	r28, 0x2D	; 45
    491e:	df 4f       	sbci	r29, 0xFF	; 255
    4920:	f8 80       	ld	r15, Y
    4922:	c3 5d       	subi	r28, 0xD3	; 211
    4924:	d0 40       	sbci	r29, 0x00	; 0
    4926:	cc 52       	subi	r28, 0x2C	; 44
    4928:	df 4f       	sbci	r29, 0xFF	; 255
    492a:	08 81       	ld	r16, Y
    492c:	c4 5d       	subi	r28, 0xD4	; 212
    492e:	d0 40       	sbci	r29, 0x00	; 0
    4930:	cb 52       	subi	r28, 0x2B	; 43
    4932:	df 4f       	sbci	r29, 0xFF	; 255
    4934:	18 81       	ld	r17, Y
    4936:	c5 5d       	subi	r28, 0xD5	; 213
    4938:	d0 40       	sbci	r29, 0x00	; 0
    493a:	ca 52       	subi	r28, 0x2A	; 42
    493c:	df 4f       	sbci	r29, 0xFF	; 255
    493e:	28 81       	ld	r18, Y
    4940:	c6 5d       	subi	r28, 0xD6	; 214
    4942:	d0 40       	sbci	r29, 0x00	; 0
    4944:	c9 52       	subi	r28, 0x29	; 41
    4946:	df 4f       	sbci	r29, 0xFF	; 255
    4948:	38 81       	ld	r19, Y
    494a:	c7 5d       	subi	r28, 0xD7	; 215
    494c:	d0 40       	sbci	r29, 0x00	; 0
    494e:	c8 52       	subi	r28, 0x28	; 40
    4950:	df 4f       	sbci	r29, 0xFF	; 255
    4952:	48 81       	ld	r20, Y
    4954:	c8 5d       	subi	r28, 0xD8	; 216
    4956:	d0 40       	sbci	r29, 0x00	; 0
    4958:	c7 52       	subi	r28, 0x27	; 39
    495a:	df 4f       	sbci	r29, 0xFF	; 255
    495c:	58 81       	ld	r21, Y
    495e:	c9 5d       	subi	r28, 0xD9	; 217
    4960:	d0 40       	sbci	r29, 0x00	; 0
    4962:	c6 52       	subi	r28, 0x26	; 38
    4964:	df 4f       	sbci	r29, 0xFF	; 255
    4966:	68 81       	ld	r22, Y
    4968:	ca 5d       	subi	r28, 0xDA	; 218
    496a:	d0 40       	sbci	r29, 0x00	; 0
    496c:	c5 52       	subi	r28, 0x25	; 37
    496e:	df 4f       	sbci	r29, 0xFF	; 255
    4970:	78 81       	ld	r23, Y
    4972:	cb 5d       	subi	r28, 0xDB	; 219
    4974:	d0 40       	sbci	r29, 0x00	; 0
    4976:	c4 52       	subi	r28, 0x24	; 36
    4978:	df 4f       	sbci	r29, 0xFF	; 255
    497a:	88 81       	ld	r24, Y
    497c:	cc 5d       	subi	r28, 0xDC	; 220
    497e:	d0 40       	sbci	r29, 0x00	; 0
    4980:	0e 94 88 14 	call	0x2910	; 0x2910 <playQuestionEasy>
				break;
    4984:	0c 94 ba 2e 	jmp	0x5d74	; 0x5d74 <__stack+0x1c75>
			case 20:
				playQuestionEasy(q20);
    4988:	c3 52       	subi	r28, 0x23	; 35
    498a:	df 4f       	sbci	r29, 0xFF	; 255
    498c:	e8 80       	ld	r14, Y
    498e:	cd 5d       	subi	r28, 0xDD	; 221
    4990:	d0 40       	sbci	r29, 0x00	; 0
    4992:	c2 52       	subi	r28, 0x22	; 34
    4994:	df 4f       	sbci	r29, 0xFF	; 255
    4996:	f8 80       	ld	r15, Y
    4998:	ce 5d       	subi	r28, 0xDE	; 222
    499a:	d0 40       	sbci	r29, 0x00	; 0
    499c:	c1 52       	subi	r28, 0x21	; 33
    499e:	df 4f       	sbci	r29, 0xFF	; 255
    49a0:	08 81       	ld	r16, Y
    49a2:	cf 5d       	subi	r28, 0xDF	; 223
    49a4:	d0 40       	sbci	r29, 0x00	; 0
    49a6:	c0 52       	subi	r28, 0x20	; 32
    49a8:	df 4f       	sbci	r29, 0xFF	; 255
    49aa:	18 81       	ld	r17, Y
    49ac:	c0 5e       	subi	r28, 0xE0	; 224
    49ae:	d0 40       	sbci	r29, 0x00	; 0
    49b0:	cf 51       	subi	r28, 0x1F	; 31
    49b2:	df 4f       	sbci	r29, 0xFF	; 255
    49b4:	28 81       	ld	r18, Y
    49b6:	c1 5e       	subi	r28, 0xE1	; 225
    49b8:	d0 40       	sbci	r29, 0x00	; 0
    49ba:	ce 51       	subi	r28, 0x1E	; 30
    49bc:	df 4f       	sbci	r29, 0xFF	; 255
    49be:	38 81       	ld	r19, Y
    49c0:	c2 5e       	subi	r28, 0xE2	; 226
    49c2:	d0 40       	sbci	r29, 0x00	; 0
    49c4:	cd 51       	subi	r28, 0x1D	; 29
    49c6:	df 4f       	sbci	r29, 0xFF	; 255
    49c8:	48 81       	ld	r20, Y
    49ca:	c3 5e       	subi	r28, 0xE3	; 227
    49cc:	d0 40       	sbci	r29, 0x00	; 0
    49ce:	cc 51       	subi	r28, 0x1C	; 28
    49d0:	df 4f       	sbci	r29, 0xFF	; 255
    49d2:	58 81       	ld	r21, Y
    49d4:	c4 5e       	subi	r28, 0xE4	; 228
    49d6:	d0 40       	sbci	r29, 0x00	; 0
    49d8:	cb 51       	subi	r28, 0x1B	; 27
    49da:	df 4f       	sbci	r29, 0xFF	; 255
    49dc:	68 81       	ld	r22, Y
    49de:	c5 5e       	subi	r28, 0xE5	; 229
    49e0:	d0 40       	sbci	r29, 0x00	; 0
    49e2:	ca 51       	subi	r28, 0x1A	; 26
    49e4:	df 4f       	sbci	r29, 0xFF	; 255
    49e6:	78 81       	ld	r23, Y
    49e8:	c6 5e       	subi	r28, 0xE6	; 230
    49ea:	d0 40       	sbci	r29, 0x00	; 0
    49ec:	c9 51       	subi	r28, 0x19	; 25
    49ee:	df 4f       	sbci	r29, 0xFF	; 255
    49f0:	88 81       	ld	r24, Y
    49f2:	c7 5e       	subi	r28, 0xE7	; 231
    49f4:	d0 40       	sbci	r29, 0x00	; 0
    49f6:	0e 94 88 14 	call	0x2910	; 0x2910 <playQuestionEasy>
				break;
    49fa:	0c 94 ba 2e 	jmp	0x5d74	; 0x5d74 <__stack+0x1c75>
			}
		}
		else if(difficulty == 2){
    49fe:	82 30       	cpi	r24, 0x02	; 2
    4a00:	09 f0       	breq	.+2      	; 0x4a04 <__stack+0x905>
    4a02:	45 c5       	rjmp	.+2698   	; 0x548e <__stack+0x138f>
			int r = rand() % 21;
    4a04:	0e 94 a4 2f 	call	0x5f48	; 0x5f48 <rand>
    4a08:	8c 01       	movw	r16, r24
			LCD_ClearScreen();
    4a0a:	0e 94 e5 01 	call	0x3ca	; 0x3ca <LCD_ClearScreen>
			switch(r){
    4a0e:	c8 01       	movw	r24, r16
    4a10:	65 e1       	ldi	r22, 0x15	; 21
    4a12:	70 e0       	ldi	r23, 0x00	; 0
    4a14:	0e 94 2d 2f 	call	0x5e5a	; 0x5e5a <__divmodhi4>
    4a18:	85 31       	cpi	r24, 0x15	; 21
    4a1a:	91 05       	cpc	r25, r1
    4a1c:	10 f0       	brcs	.+4      	; 0x4a22 <__stack+0x923>
    4a1e:	0c 94 ba 2e 	jmp	0x5d74	; 0x5d74 <__stack+0x1c75>
    4a22:	fc 01       	movw	r30, r24
    4a24:	e5 5a       	subi	r30, 0xA5	; 165
    4a26:	ff 4f       	sbci	r31, 0xFF	; 255
    4a28:	0c 94 40 2f 	jmp	0x5e80	; 0x5e80 <__tablejump2__>
				case 0:
				playQuestionHard(h0);
    4a2c:	c6 54       	subi	r28, 0x46	; 70
    4a2e:	de 4f       	sbci	r29, 0xFE	; 254
    4a30:	e8 80       	ld	r14, Y
    4a32:	ca 5b       	subi	r28, 0xBA	; 186
    4a34:	d1 40       	sbci	r29, 0x01	; 1
    4a36:	c5 54       	subi	r28, 0x45	; 69
    4a38:	de 4f       	sbci	r29, 0xFE	; 254
    4a3a:	f8 80       	ld	r15, Y
    4a3c:	cb 5b       	subi	r28, 0xBB	; 187
    4a3e:	d1 40       	sbci	r29, 0x01	; 1
    4a40:	c4 54       	subi	r28, 0x44	; 68
    4a42:	de 4f       	sbci	r29, 0xFE	; 254
    4a44:	08 81       	ld	r16, Y
    4a46:	cc 5b       	subi	r28, 0xBC	; 188
    4a48:	d1 40       	sbci	r29, 0x01	; 1
    4a4a:	c3 54       	subi	r28, 0x43	; 67
    4a4c:	de 4f       	sbci	r29, 0xFE	; 254
    4a4e:	18 81       	ld	r17, Y
    4a50:	cd 5b       	subi	r28, 0xBD	; 189
    4a52:	d1 40       	sbci	r29, 0x01	; 1
    4a54:	c2 54       	subi	r28, 0x42	; 66
    4a56:	de 4f       	sbci	r29, 0xFE	; 254
    4a58:	28 81       	ld	r18, Y
    4a5a:	ce 5b       	subi	r28, 0xBE	; 190
    4a5c:	d1 40       	sbci	r29, 0x01	; 1
    4a5e:	c1 54       	subi	r28, 0x41	; 65
    4a60:	de 4f       	sbci	r29, 0xFE	; 254
    4a62:	38 81       	ld	r19, Y
    4a64:	cf 5b       	subi	r28, 0xBF	; 191
    4a66:	d1 40       	sbci	r29, 0x01	; 1
    4a68:	c0 54       	subi	r28, 0x40	; 64
    4a6a:	de 4f       	sbci	r29, 0xFE	; 254
    4a6c:	48 81       	ld	r20, Y
    4a6e:	c0 5c       	subi	r28, 0xC0	; 192
    4a70:	d1 40       	sbci	r29, 0x01	; 1
    4a72:	cf 53       	subi	r28, 0x3F	; 63
    4a74:	de 4f       	sbci	r29, 0xFE	; 254
    4a76:	58 81       	ld	r21, Y
    4a78:	c1 5c       	subi	r28, 0xC1	; 193
    4a7a:	d1 40       	sbci	r29, 0x01	; 1
    4a7c:	ce 53       	subi	r28, 0x3E	; 62
    4a7e:	de 4f       	sbci	r29, 0xFE	; 254
    4a80:	68 81       	ld	r22, Y
    4a82:	c2 5c       	subi	r28, 0xC2	; 194
    4a84:	d1 40       	sbci	r29, 0x01	; 1
    4a86:	cd 53       	subi	r28, 0x3D	; 61
    4a88:	de 4f       	sbci	r29, 0xFE	; 254
    4a8a:	78 81       	ld	r23, Y
    4a8c:	c3 5c       	subi	r28, 0xC3	; 195
    4a8e:	d1 40       	sbci	r29, 0x01	; 1
    4a90:	cc 53       	subi	r28, 0x3C	; 60
    4a92:	de 4f       	sbci	r29, 0xFE	; 254
    4a94:	88 81       	ld	r24, Y
    4a96:	c4 5c       	subi	r28, 0xC4	; 196
    4a98:	d1 40       	sbci	r29, 0x01	; 1
    4a9a:	cb 53       	subi	r28, 0x3B	; 59
    4a9c:	de 4f       	sbci	r29, 0xFE	; 254
    4a9e:	98 81       	ld	r25, Y
    4aa0:	c5 5c       	subi	r28, 0xC5	; 197
    4aa2:	d1 40       	sbci	r29, 0x01	; 1
    4aa4:	0e 94 84 1a 	call	0x3508	; 0x3508 <playQuestionHard>
				break;
    4aa8:	0c 94 ba 2e 	jmp	0x5d74	; 0x5d74 <__stack+0x1c75>
				case 1:
				playQuestionHard(h1);
    4aac:	ca 53       	subi	r28, 0x3A	; 58
    4aae:	de 4f       	sbci	r29, 0xFE	; 254
    4ab0:	e8 80       	ld	r14, Y
    4ab2:	c6 5c       	subi	r28, 0xC6	; 198
    4ab4:	d1 40       	sbci	r29, 0x01	; 1
    4ab6:	c9 53       	subi	r28, 0x39	; 57
    4ab8:	de 4f       	sbci	r29, 0xFE	; 254
    4aba:	f8 80       	ld	r15, Y
    4abc:	c7 5c       	subi	r28, 0xC7	; 199
    4abe:	d1 40       	sbci	r29, 0x01	; 1
    4ac0:	c8 53       	subi	r28, 0x38	; 56
    4ac2:	de 4f       	sbci	r29, 0xFE	; 254
    4ac4:	08 81       	ld	r16, Y
    4ac6:	c8 5c       	subi	r28, 0xC8	; 200
    4ac8:	d1 40       	sbci	r29, 0x01	; 1
    4aca:	c7 53       	subi	r28, 0x37	; 55
    4acc:	de 4f       	sbci	r29, 0xFE	; 254
    4ace:	18 81       	ld	r17, Y
    4ad0:	c9 5c       	subi	r28, 0xC9	; 201
    4ad2:	d1 40       	sbci	r29, 0x01	; 1
    4ad4:	c6 53       	subi	r28, 0x36	; 54
    4ad6:	de 4f       	sbci	r29, 0xFE	; 254
    4ad8:	28 81       	ld	r18, Y
    4ada:	ca 5c       	subi	r28, 0xCA	; 202
    4adc:	d1 40       	sbci	r29, 0x01	; 1
    4ade:	c5 53       	subi	r28, 0x35	; 53
    4ae0:	de 4f       	sbci	r29, 0xFE	; 254
    4ae2:	38 81       	ld	r19, Y
    4ae4:	cb 5c       	subi	r28, 0xCB	; 203
    4ae6:	d1 40       	sbci	r29, 0x01	; 1
    4ae8:	c4 53       	subi	r28, 0x34	; 52
    4aea:	de 4f       	sbci	r29, 0xFE	; 254
    4aec:	48 81       	ld	r20, Y
    4aee:	cc 5c       	subi	r28, 0xCC	; 204
    4af0:	d1 40       	sbci	r29, 0x01	; 1
    4af2:	c3 53       	subi	r28, 0x33	; 51
    4af4:	de 4f       	sbci	r29, 0xFE	; 254
    4af6:	58 81       	ld	r21, Y
    4af8:	cd 5c       	subi	r28, 0xCD	; 205
    4afa:	d1 40       	sbci	r29, 0x01	; 1
    4afc:	c2 53       	subi	r28, 0x32	; 50
    4afe:	de 4f       	sbci	r29, 0xFE	; 254
    4b00:	68 81       	ld	r22, Y
    4b02:	ce 5c       	subi	r28, 0xCE	; 206
    4b04:	d1 40       	sbci	r29, 0x01	; 1
    4b06:	c1 53       	subi	r28, 0x31	; 49
    4b08:	de 4f       	sbci	r29, 0xFE	; 254
    4b0a:	78 81       	ld	r23, Y
    4b0c:	cf 5c       	subi	r28, 0xCF	; 207
    4b0e:	d1 40       	sbci	r29, 0x01	; 1
    4b10:	c0 53       	subi	r28, 0x30	; 48
    4b12:	de 4f       	sbci	r29, 0xFE	; 254
    4b14:	88 81       	ld	r24, Y
    4b16:	c0 5d       	subi	r28, 0xD0	; 208
    4b18:	d1 40       	sbci	r29, 0x01	; 1
    4b1a:	cf 52       	subi	r28, 0x2F	; 47
    4b1c:	de 4f       	sbci	r29, 0xFE	; 254
    4b1e:	98 81       	ld	r25, Y
    4b20:	c1 5d       	subi	r28, 0xD1	; 209
    4b22:	d1 40       	sbci	r29, 0x01	; 1
    4b24:	0e 94 84 1a 	call	0x3508	; 0x3508 <playQuestionHard>
				break;
    4b28:	0c 94 ba 2e 	jmp	0x5d74	; 0x5d74 <__stack+0x1c75>
				case 2:
				playQuestionHard(h2);
    4b2c:	ce 52       	subi	r28, 0x2E	; 46
    4b2e:	de 4f       	sbci	r29, 0xFE	; 254
    4b30:	e8 80       	ld	r14, Y
    4b32:	c2 5d       	subi	r28, 0xD2	; 210
    4b34:	d1 40       	sbci	r29, 0x01	; 1
    4b36:	cd 52       	subi	r28, 0x2D	; 45
    4b38:	de 4f       	sbci	r29, 0xFE	; 254
    4b3a:	f8 80       	ld	r15, Y
    4b3c:	c3 5d       	subi	r28, 0xD3	; 211
    4b3e:	d1 40       	sbci	r29, 0x01	; 1
    4b40:	cc 52       	subi	r28, 0x2C	; 44
    4b42:	de 4f       	sbci	r29, 0xFE	; 254
    4b44:	08 81       	ld	r16, Y
    4b46:	c4 5d       	subi	r28, 0xD4	; 212
    4b48:	d1 40       	sbci	r29, 0x01	; 1
    4b4a:	cb 52       	subi	r28, 0x2B	; 43
    4b4c:	de 4f       	sbci	r29, 0xFE	; 254
    4b4e:	18 81       	ld	r17, Y
    4b50:	c5 5d       	subi	r28, 0xD5	; 213
    4b52:	d1 40       	sbci	r29, 0x01	; 1
    4b54:	ca 52       	subi	r28, 0x2A	; 42
    4b56:	de 4f       	sbci	r29, 0xFE	; 254
    4b58:	28 81       	ld	r18, Y
    4b5a:	c6 5d       	subi	r28, 0xD6	; 214
    4b5c:	d1 40       	sbci	r29, 0x01	; 1
    4b5e:	c9 52       	subi	r28, 0x29	; 41
    4b60:	de 4f       	sbci	r29, 0xFE	; 254
    4b62:	38 81       	ld	r19, Y
    4b64:	c7 5d       	subi	r28, 0xD7	; 215
    4b66:	d1 40       	sbci	r29, 0x01	; 1
    4b68:	c8 52       	subi	r28, 0x28	; 40
    4b6a:	de 4f       	sbci	r29, 0xFE	; 254
    4b6c:	48 81       	ld	r20, Y
    4b6e:	c8 5d       	subi	r28, 0xD8	; 216
    4b70:	d1 40       	sbci	r29, 0x01	; 1
    4b72:	c7 52       	subi	r28, 0x27	; 39
    4b74:	de 4f       	sbci	r29, 0xFE	; 254
    4b76:	58 81       	ld	r21, Y
    4b78:	c9 5d       	subi	r28, 0xD9	; 217
    4b7a:	d1 40       	sbci	r29, 0x01	; 1
    4b7c:	c6 52       	subi	r28, 0x26	; 38
    4b7e:	de 4f       	sbci	r29, 0xFE	; 254
    4b80:	68 81       	ld	r22, Y
    4b82:	ca 5d       	subi	r28, 0xDA	; 218
    4b84:	d1 40       	sbci	r29, 0x01	; 1
    4b86:	c5 52       	subi	r28, 0x25	; 37
    4b88:	de 4f       	sbci	r29, 0xFE	; 254
    4b8a:	78 81       	ld	r23, Y
    4b8c:	cb 5d       	subi	r28, 0xDB	; 219
    4b8e:	d1 40       	sbci	r29, 0x01	; 1
    4b90:	c4 52       	subi	r28, 0x24	; 36
    4b92:	de 4f       	sbci	r29, 0xFE	; 254
    4b94:	88 81       	ld	r24, Y
    4b96:	cc 5d       	subi	r28, 0xDC	; 220
    4b98:	d1 40       	sbci	r29, 0x01	; 1
    4b9a:	c3 52       	subi	r28, 0x23	; 35
    4b9c:	de 4f       	sbci	r29, 0xFE	; 254
    4b9e:	98 81       	ld	r25, Y
    4ba0:	cd 5d       	subi	r28, 0xDD	; 221
    4ba2:	d1 40       	sbci	r29, 0x01	; 1
    4ba4:	0e 94 84 1a 	call	0x3508	; 0x3508 <playQuestionHard>
				break;
    4ba8:	0c 94 ba 2e 	jmp	0x5d74	; 0x5d74 <__stack+0x1c75>
				case 3:
				playQuestionHard(h3);
    4bac:	c2 52       	subi	r28, 0x22	; 34
    4bae:	de 4f       	sbci	r29, 0xFE	; 254
    4bb0:	e8 80       	ld	r14, Y
    4bb2:	ce 5d       	subi	r28, 0xDE	; 222
    4bb4:	d1 40       	sbci	r29, 0x01	; 1
    4bb6:	c1 52       	subi	r28, 0x21	; 33
    4bb8:	de 4f       	sbci	r29, 0xFE	; 254
    4bba:	f8 80       	ld	r15, Y
    4bbc:	cf 5d       	subi	r28, 0xDF	; 223
    4bbe:	d1 40       	sbci	r29, 0x01	; 1
    4bc0:	c0 52       	subi	r28, 0x20	; 32
    4bc2:	de 4f       	sbci	r29, 0xFE	; 254
    4bc4:	08 81       	ld	r16, Y
    4bc6:	c0 5e       	subi	r28, 0xE0	; 224
    4bc8:	d1 40       	sbci	r29, 0x01	; 1
    4bca:	cf 51       	subi	r28, 0x1F	; 31
    4bcc:	de 4f       	sbci	r29, 0xFE	; 254
    4bce:	18 81       	ld	r17, Y
    4bd0:	c1 5e       	subi	r28, 0xE1	; 225
    4bd2:	d1 40       	sbci	r29, 0x01	; 1
    4bd4:	ce 51       	subi	r28, 0x1E	; 30
    4bd6:	de 4f       	sbci	r29, 0xFE	; 254
    4bd8:	28 81       	ld	r18, Y
    4bda:	c2 5e       	subi	r28, 0xE2	; 226
    4bdc:	d1 40       	sbci	r29, 0x01	; 1
    4bde:	cd 51       	subi	r28, 0x1D	; 29
    4be0:	de 4f       	sbci	r29, 0xFE	; 254
    4be2:	38 81       	ld	r19, Y
    4be4:	c3 5e       	subi	r28, 0xE3	; 227
    4be6:	d1 40       	sbci	r29, 0x01	; 1
    4be8:	cc 51       	subi	r28, 0x1C	; 28
    4bea:	de 4f       	sbci	r29, 0xFE	; 254
    4bec:	48 81       	ld	r20, Y
    4bee:	c4 5e       	subi	r28, 0xE4	; 228
    4bf0:	d1 40       	sbci	r29, 0x01	; 1
    4bf2:	cb 51       	subi	r28, 0x1B	; 27
    4bf4:	de 4f       	sbci	r29, 0xFE	; 254
    4bf6:	58 81       	ld	r21, Y
    4bf8:	c5 5e       	subi	r28, 0xE5	; 229
    4bfa:	d1 40       	sbci	r29, 0x01	; 1
    4bfc:	ca 51       	subi	r28, 0x1A	; 26
    4bfe:	de 4f       	sbci	r29, 0xFE	; 254
    4c00:	68 81       	ld	r22, Y
    4c02:	c6 5e       	subi	r28, 0xE6	; 230
    4c04:	d1 40       	sbci	r29, 0x01	; 1
    4c06:	c9 51       	subi	r28, 0x19	; 25
    4c08:	de 4f       	sbci	r29, 0xFE	; 254
    4c0a:	78 81       	ld	r23, Y
    4c0c:	c7 5e       	subi	r28, 0xE7	; 231
    4c0e:	d1 40       	sbci	r29, 0x01	; 1
    4c10:	c8 51       	subi	r28, 0x18	; 24
    4c12:	de 4f       	sbci	r29, 0xFE	; 254
    4c14:	88 81       	ld	r24, Y
    4c16:	c8 5e       	subi	r28, 0xE8	; 232
    4c18:	d1 40       	sbci	r29, 0x01	; 1
    4c1a:	c7 51       	subi	r28, 0x17	; 23
    4c1c:	de 4f       	sbci	r29, 0xFE	; 254
    4c1e:	98 81       	ld	r25, Y
    4c20:	c9 5e       	subi	r28, 0xE9	; 233
    4c22:	d1 40       	sbci	r29, 0x01	; 1
    4c24:	0e 94 84 1a 	call	0x3508	; 0x3508 <playQuestionHard>
				break;
    4c28:	0c 94 ba 2e 	jmp	0x5d74	; 0x5d74 <__stack+0x1c75>
				case 4:
				playQuestionHard(h4);
    4c2c:	c6 51       	subi	r28, 0x16	; 22
    4c2e:	de 4f       	sbci	r29, 0xFE	; 254
    4c30:	e8 80       	ld	r14, Y
    4c32:	ca 5e       	subi	r28, 0xEA	; 234
    4c34:	d1 40       	sbci	r29, 0x01	; 1
    4c36:	c5 51       	subi	r28, 0x15	; 21
    4c38:	de 4f       	sbci	r29, 0xFE	; 254
    4c3a:	f8 80       	ld	r15, Y
    4c3c:	cb 5e       	subi	r28, 0xEB	; 235
    4c3e:	d1 40       	sbci	r29, 0x01	; 1
    4c40:	c4 51       	subi	r28, 0x14	; 20
    4c42:	de 4f       	sbci	r29, 0xFE	; 254
    4c44:	08 81       	ld	r16, Y
    4c46:	cc 5e       	subi	r28, 0xEC	; 236
    4c48:	d1 40       	sbci	r29, 0x01	; 1
    4c4a:	c3 51       	subi	r28, 0x13	; 19
    4c4c:	de 4f       	sbci	r29, 0xFE	; 254
    4c4e:	18 81       	ld	r17, Y
    4c50:	cd 5e       	subi	r28, 0xED	; 237
    4c52:	d1 40       	sbci	r29, 0x01	; 1
    4c54:	c2 51       	subi	r28, 0x12	; 18
    4c56:	de 4f       	sbci	r29, 0xFE	; 254
    4c58:	28 81       	ld	r18, Y
    4c5a:	ce 5e       	subi	r28, 0xEE	; 238
    4c5c:	d1 40       	sbci	r29, 0x01	; 1
    4c5e:	c1 51       	subi	r28, 0x11	; 17
    4c60:	de 4f       	sbci	r29, 0xFE	; 254
    4c62:	38 81       	ld	r19, Y
    4c64:	cf 5e       	subi	r28, 0xEF	; 239
    4c66:	d1 40       	sbci	r29, 0x01	; 1
    4c68:	c0 51       	subi	r28, 0x10	; 16
    4c6a:	de 4f       	sbci	r29, 0xFE	; 254
    4c6c:	48 81       	ld	r20, Y
    4c6e:	c0 5f       	subi	r28, 0xF0	; 240
    4c70:	d1 40       	sbci	r29, 0x01	; 1
    4c72:	cf 50       	subi	r28, 0x0F	; 15
    4c74:	de 4f       	sbci	r29, 0xFE	; 254
    4c76:	58 81       	ld	r21, Y
    4c78:	c1 5f       	subi	r28, 0xF1	; 241
    4c7a:	d1 40       	sbci	r29, 0x01	; 1
    4c7c:	ce 50       	subi	r28, 0x0E	; 14
    4c7e:	de 4f       	sbci	r29, 0xFE	; 254
    4c80:	68 81       	ld	r22, Y
    4c82:	c2 5f       	subi	r28, 0xF2	; 242
    4c84:	d1 40       	sbci	r29, 0x01	; 1
    4c86:	cd 50       	subi	r28, 0x0D	; 13
    4c88:	de 4f       	sbci	r29, 0xFE	; 254
    4c8a:	78 81       	ld	r23, Y
    4c8c:	c3 5f       	subi	r28, 0xF3	; 243
    4c8e:	d1 40       	sbci	r29, 0x01	; 1
    4c90:	cc 50       	subi	r28, 0x0C	; 12
    4c92:	de 4f       	sbci	r29, 0xFE	; 254
    4c94:	88 81       	ld	r24, Y
    4c96:	c4 5f       	subi	r28, 0xF4	; 244
    4c98:	d1 40       	sbci	r29, 0x01	; 1
    4c9a:	cb 50       	subi	r28, 0x0B	; 11
    4c9c:	de 4f       	sbci	r29, 0xFE	; 254
    4c9e:	98 81       	ld	r25, Y
    4ca0:	c5 5f       	subi	r28, 0xF5	; 245
    4ca2:	d1 40       	sbci	r29, 0x01	; 1
    4ca4:	0e 94 84 1a 	call	0x3508	; 0x3508 <playQuestionHard>
				break;
    4ca8:	0c 94 ba 2e 	jmp	0x5d74	; 0x5d74 <__stack+0x1c75>
				case 5:
				playQuestionHard(h5);
    4cac:	ca 50       	subi	r28, 0x0A	; 10
    4cae:	de 4f       	sbci	r29, 0xFE	; 254
    4cb0:	e8 80       	ld	r14, Y
    4cb2:	c6 5f       	subi	r28, 0xF6	; 246
    4cb4:	d1 40       	sbci	r29, 0x01	; 1
    4cb6:	c9 50       	subi	r28, 0x09	; 9
    4cb8:	de 4f       	sbci	r29, 0xFE	; 254
    4cba:	f8 80       	ld	r15, Y
    4cbc:	c7 5f       	subi	r28, 0xF7	; 247
    4cbe:	d1 40       	sbci	r29, 0x01	; 1
    4cc0:	c8 50       	subi	r28, 0x08	; 8
    4cc2:	de 4f       	sbci	r29, 0xFE	; 254
    4cc4:	08 81       	ld	r16, Y
    4cc6:	c8 5f       	subi	r28, 0xF8	; 248
    4cc8:	d1 40       	sbci	r29, 0x01	; 1
    4cca:	c7 50       	subi	r28, 0x07	; 7
    4ccc:	de 4f       	sbci	r29, 0xFE	; 254
    4cce:	18 81       	ld	r17, Y
    4cd0:	c9 5f       	subi	r28, 0xF9	; 249
    4cd2:	d1 40       	sbci	r29, 0x01	; 1
    4cd4:	c6 50       	subi	r28, 0x06	; 6
    4cd6:	de 4f       	sbci	r29, 0xFE	; 254
    4cd8:	28 81       	ld	r18, Y
    4cda:	ca 5f       	subi	r28, 0xFA	; 250
    4cdc:	d1 40       	sbci	r29, 0x01	; 1
    4cde:	c5 50       	subi	r28, 0x05	; 5
    4ce0:	de 4f       	sbci	r29, 0xFE	; 254
    4ce2:	38 81       	ld	r19, Y
    4ce4:	cb 5f       	subi	r28, 0xFB	; 251
    4ce6:	d1 40       	sbci	r29, 0x01	; 1
    4ce8:	c4 50       	subi	r28, 0x04	; 4
    4cea:	de 4f       	sbci	r29, 0xFE	; 254
    4cec:	48 81       	ld	r20, Y
    4cee:	cc 5f       	subi	r28, 0xFC	; 252
    4cf0:	d1 40       	sbci	r29, 0x01	; 1
    4cf2:	c3 50       	subi	r28, 0x03	; 3
    4cf4:	de 4f       	sbci	r29, 0xFE	; 254
    4cf6:	58 81       	ld	r21, Y
    4cf8:	cd 5f       	subi	r28, 0xFD	; 253
    4cfa:	d1 40       	sbci	r29, 0x01	; 1
    4cfc:	c2 50       	subi	r28, 0x02	; 2
    4cfe:	de 4f       	sbci	r29, 0xFE	; 254
    4d00:	68 81       	ld	r22, Y
    4d02:	ce 5f       	subi	r28, 0xFE	; 254
    4d04:	d1 40       	sbci	r29, 0x01	; 1
    4d06:	c1 50       	subi	r28, 0x01	; 1
    4d08:	de 4f       	sbci	r29, 0xFE	; 254
    4d0a:	78 81       	ld	r23, Y
    4d0c:	cf 5f       	subi	r28, 0xFF	; 255
    4d0e:	d1 40       	sbci	r29, 0x01	; 1
    4d10:	c0 50       	subi	r28, 0x00	; 0
    4d12:	de 4f       	sbci	r29, 0xFE	; 254
    4d14:	88 81       	ld	r24, Y
    4d16:	c0 50       	subi	r28, 0x00	; 0
    4d18:	d2 40       	sbci	r29, 0x02	; 2
    4d1a:	cf 5f       	subi	r28, 0xFF	; 255
    4d1c:	dd 4f       	sbci	r29, 0xFD	; 253
    4d1e:	98 81       	ld	r25, Y
    4d20:	c1 50       	subi	r28, 0x01	; 1
    4d22:	d2 40       	sbci	r29, 0x02	; 2
    4d24:	0e 94 84 1a 	call	0x3508	; 0x3508 <playQuestionHard>
				break;
    4d28:	0c 94 ba 2e 	jmp	0x5d74	; 0x5d74 <__stack+0x1c75>
				case 6:
				playQuestionHard(h6);
    4d2c:	ce 5f       	subi	r28, 0xFE	; 254
    4d2e:	dd 4f       	sbci	r29, 0xFD	; 253
    4d30:	e8 80       	ld	r14, Y
    4d32:	c2 50       	subi	r28, 0x02	; 2
    4d34:	d2 40       	sbci	r29, 0x02	; 2
    4d36:	cd 5f       	subi	r28, 0xFD	; 253
    4d38:	dd 4f       	sbci	r29, 0xFD	; 253
    4d3a:	f8 80       	ld	r15, Y
    4d3c:	c3 50       	subi	r28, 0x03	; 3
    4d3e:	d2 40       	sbci	r29, 0x02	; 2
    4d40:	cc 5f       	subi	r28, 0xFC	; 252
    4d42:	dd 4f       	sbci	r29, 0xFD	; 253
    4d44:	08 81       	ld	r16, Y
    4d46:	c4 50       	subi	r28, 0x04	; 4
    4d48:	d2 40       	sbci	r29, 0x02	; 2
    4d4a:	cb 5f       	subi	r28, 0xFB	; 251
    4d4c:	dd 4f       	sbci	r29, 0xFD	; 253
    4d4e:	18 81       	ld	r17, Y
    4d50:	c5 50       	subi	r28, 0x05	; 5
    4d52:	d2 40       	sbci	r29, 0x02	; 2
    4d54:	ca 5f       	subi	r28, 0xFA	; 250
    4d56:	dd 4f       	sbci	r29, 0xFD	; 253
    4d58:	28 81       	ld	r18, Y
    4d5a:	c6 50       	subi	r28, 0x06	; 6
    4d5c:	d2 40       	sbci	r29, 0x02	; 2
    4d5e:	c9 5f       	subi	r28, 0xF9	; 249
    4d60:	dd 4f       	sbci	r29, 0xFD	; 253
    4d62:	38 81       	ld	r19, Y
    4d64:	c7 50       	subi	r28, 0x07	; 7
    4d66:	d2 40       	sbci	r29, 0x02	; 2
    4d68:	c8 5f       	subi	r28, 0xF8	; 248
    4d6a:	dd 4f       	sbci	r29, 0xFD	; 253
    4d6c:	48 81       	ld	r20, Y
    4d6e:	c8 50       	subi	r28, 0x08	; 8
    4d70:	d2 40       	sbci	r29, 0x02	; 2
    4d72:	c7 5f       	subi	r28, 0xF7	; 247
    4d74:	dd 4f       	sbci	r29, 0xFD	; 253
    4d76:	58 81       	ld	r21, Y
    4d78:	c9 50       	subi	r28, 0x09	; 9
    4d7a:	d2 40       	sbci	r29, 0x02	; 2
    4d7c:	c6 5f       	subi	r28, 0xF6	; 246
    4d7e:	dd 4f       	sbci	r29, 0xFD	; 253
    4d80:	68 81       	ld	r22, Y
    4d82:	ca 50       	subi	r28, 0x0A	; 10
    4d84:	d2 40       	sbci	r29, 0x02	; 2
    4d86:	c5 5f       	subi	r28, 0xF5	; 245
    4d88:	dd 4f       	sbci	r29, 0xFD	; 253
    4d8a:	78 81       	ld	r23, Y
    4d8c:	cb 50       	subi	r28, 0x0B	; 11
    4d8e:	d2 40       	sbci	r29, 0x02	; 2
    4d90:	c4 5f       	subi	r28, 0xF4	; 244
    4d92:	dd 4f       	sbci	r29, 0xFD	; 253
    4d94:	88 81       	ld	r24, Y
    4d96:	cc 50       	subi	r28, 0x0C	; 12
    4d98:	d2 40       	sbci	r29, 0x02	; 2
    4d9a:	c3 5f       	subi	r28, 0xF3	; 243
    4d9c:	dd 4f       	sbci	r29, 0xFD	; 253
    4d9e:	98 81       	ld	r25, Y
    4da0:	cd 50       	subi	r28, 0x0D	; 13
    4da2:	d2 40       	sbci	r29, 0x02	; 2
    4da4:	0e 94 84 1a 	call	0x3508	; 0x3508 <playQuestionHard>
				break;
    4da8:	e5 c7       	rjmp	.+4042   	; 0x5d74 <__stack+0x1c75>
				case 7:
				playQuestionHard(h7);
    4daa:	c2 5f       	subi	r28, 0xF2	; 242
    4dac:	dd 4f       	sbci	r29, 0xFD	; 253
    4dae:	e8 80       	ld	r14, Y
    4db0:	ce 50       	subi	r28, 0x0E	; 14
    4db2:	d2 40       	sbci	r29, 0x02	; 2
    4db4:	c1 5f       	subi	r28, 0xF1	; 241
    4db6:	dd 4f       	sbci	r29, 0xFD	; 253
    4db8:	f8 80       	ld	r15, Y
    4dba:	cf 50       	subi	r28, 0x0F	; 15
    4dbc:	d2 40       	sbci	r29, 0x02	; 2
    4dbe:	c0 5f       	subi	r28, 0xF0	; 240
    4dc0:	dd 4f       	sbci	r29, 0xFD	; 253
    4dc2:	08 81       	ld	r16, Y
    4dc4:	c0 51       	subi	r28, 0x10	; 16
    4dc6:	d2 40       	sbci	r29, 0x02	; 2
    4dc8:	cf 5e       	subi	r28, 0xEF	; 239
    4dca:	dd 4f       	sbci	r29, 0xFD	; 253
    4dcc:	18 81       	ld	r17, Y
    4dce:	c1 51       	subi	r28, 0x11	; 17
    4dd0:	d2 40       	sbci	r29, 0x02	; 2
    4dd2:	ce 5e       	subi	r28, 0xEE	; 238
    4dd4:	dd 4f       	sbci	r29, 0xFD	; 253
    4dd6:	28 81       	ld	r18, Y
    4dd8:	c2 51       	subi	r28, 0x12	; 18
    4dda:	d2 40       	sbci	r29, 0x02	; 2
    4ddc:	cd 5e       	subi	r28, 0xED	; 237
    4dde:	dd 4f       	sbci	r29, 0xFD	; 253
    4de0:	38 81       	ld	r19, Y
    4de2:	c3 51       	subi	r28, 0x13	; 19
    4de4:	d2 40       	sbci	r29, 0x02	; 2
    4de6:	cc 5e       	subi	r28, 0xEC	; 236
    4de8:	dd 4f       	sbci	r29, 0xFD	; 253
    4dea:	48 81       	ld	r20, Y
    4dec:	c4 51       	subi	r28, 0x14	; 20
    4dee:	d2 40       	sbci	r29, 0x02	; 2
    4df0:	cb 5e       	subi	r28, 0xEB	; 235
    4df2:	dd 4f       	sbci	r29, 0xFD	; 253
    4df4:	58 81       	ld	r21, Y
    4df6:	c5 51       	subi	r28, 0x15	; 21
    4df8:	d2 40       	sbci	r29, 0x02	; 2
    4dfa:	ca 5e       	subi	r28, 0xEA	; 234
    4dfc:	dd 4f       	sbci	r29, 0xFD	; 253
    4dfe:	68 81       	ld	r22, Y
    4e00:	c6 51       	subi	r28, 0x16	; 22
    4e02:	d2 40       	sbci	r29, 0x02	; 2
    4e04:	c9 5e       	subi	r28, 0xE9	; 233
    4e06:	dd 4f       	sbci	r29, 0xFD	; 253
    4e08:	78 81       	ld	r23, Y
    4e0a:	c7 51       	subi	r28, 0x17	; 23
    4e0c:	d2 40       	sbci	r29, 0x02	; 2
    4e0e:	c8 5e       	subi	r28, 0xE8	; 232
    4e10:	dd 4f       	sbci	r29, 0xFD	; 253
    4e12:	88 81       	ld	r24, Y
    4e14:	c8 51       	subi	r28, 0x18	; 24
    4e16:	d2 40       	sbci	r29, 0x02	; 2
    4e18:	c7 5e       	subi	r28, 0xE7	; 231
    4e1a:	dd 4f       	sbci	r29, 0xFD	; 253
    4e1c:	98 81       	ld	r25, Y
    4e1e:	c9 51       	subi	r28, 0x19	; 25
    4e20:	d2 40       	sbci	r29, 0x02	; 2
    4e22:	0e 94 84 1a 	call	0x3508	; 0x3508 <playQuestionHard>
				break;
    4e26:	a6 c7       	rjmp	.+3916   	; 0x5d74 <__stack+0x1c75>
				case 8:
				playQuestionHard(h8);
    4e28:	c6 5e       	subi	r28, 0xE6	; 230
    4e2a:	dd 4f       	sbci	r29, 0xFD	; 253
    4e2c:	e8 80       	ld	r14, Y
    4e2e:	ca 51       	subi	r28, 0x1A	; 26
    4e30:	d2 40       	sbci	r29, 0x02	; 2
    4e32:	c5 5e       	subi	r28, 0xE5	; 229
    4e34:	dd 4f       	sbci	r29, 0xFD	; 253
    4e36:	f8 80       	ld	r15, Y
    4e38:	cb 51       	subi	r28, 0x1B	; 27
    4e3a:	d2 40       	sbci	r29, 0x02	; 2
    4e3c:	c4 5e       	subi	r28, 0xE4	; 228
    4e3e:	dd 4f       	sbci	r29, 0xFD	; 253
    4e40:	08 81       	ld	r16, Y
    4e42:	cc 51       	subi	r28, 0x1C	; 28
    4e44:	d2 40       	sbci	r29, 0x02	; 2
    4e46:	c3 5e       	subi	r28, 0xE3	; 227
    4e48:	dd 4f       	sbci	r29, 0xFD	; 253
    4e4a:	18 81       	ld	r17, Y
    4e4c:	cd 51       	subi	r28, 0x1D	; 29
    4e4e:	d2 40       	sbci	r29, 0x02	; 2
    4e50:	c2 5e       	subi	r28, 0xE2	; 226
    4e52:	dd 4f       	sbci	r29, 0xFD	; 253
    4e54:	28 81       	ld	r18, Y
    4e56:	ce 51       	subi	r28, 0x1E	; 30
    4e58:	d2 40       	sbci	r29, 0x02	; 2
    4e5a:	c1 5e       	subi	r28, 0xE1	; 225
    4e5c:	dd 4f       	sbci	r29, 0xFD	; 253
    4e5e:	38 81       	ld	r19, Y
    4e60:	cf 51       	subi	r28, 0x1F	; 31
    4e62:	d2 40       	sbci	r29, 0x02	; 2
    4e64:	c0 5e       	subi	r28, 0xE0	; 224
    4e66:	dd 4f       	sbci	r29, 0xFD	; 253
    4e68:	48 81       	ld	r20, Y
    4e6a:	c0 52       	subi	r28, 0x20	; 32
    4e6c:	d2 40       	sbci	r29, 0x02	; 2
    4e6e:	cf 5d       	subi	r28, 0xDF	; 223
    4e70:	dd 4f       	sbci	r29, 0xFD	; 253
    4e72:	58 81       	ld	r21, Y
    4e74:	c1 52       	subi	r28, 0x21	; 33
    4e76:	d2 40       	sbci	r29, 0x02	; 2
    4e78:	ce 5d       	subi	r28, 0xDE	; 222
    4e7a:	dd 4f       	sbci	r29, 0xFD	; 253
    4e7c:	68 81       	ld	r22, Y
    4e7e:	c2 52       	subi	r28, 0x22	; 34
    4e80:	d2 40       	sbci	r29, 0x02	; 2
    4e82:	cd 5d       	subi	r28, 0xDD	; 221
    4e84:	dd 4f       	sbci	r29, 0xFD	; 253
    4e86:	78 81       	ld	r23, Y
    4e88:	c3 52       	subi	r28, 0x23	; 35
    4e8a:	d2 40       	sbci	r29, 0x02	; 2
    4e8c:	cc 5d       	subi	r28, 0xDC	; 220
    4e8e:	dd 4f       	sbci	r29, 0xFD	; 253
    4e90:	88 81       	ld	r24, Y
    4e92:	c4 52       	subi	r28, 0x24	; 36
    4e94:	d2 40       	sbci	r29, 0x02	; 2
    4e96:	cb 5d       	subi	r28, 0xDB	; 219
    4e98:	dd 4f       	sbci	r29, 0xFD	; 253
    4e9a:	98 81       	ld	r25, Y
    4e9c:	c5 52       	subi	r28, 0x25	; 37
    4e9e:	d2 40       	sbci	r29, 0x02	; 2
    4ea0:	0e 94 84 1a 	call	0x3508	; 0x3508 <playQuestionHard>
				break;
    4ea4:	67 c7       	rjmp	.+3790   	; 0x5d74 <__stack+0x1c75>
				case 9:
				playQuestionHard(h9);
    4ea6:	ca 5d       	subi	r28, 0xDA	; 218
    4ea8:	dd 4f       	sbci	r29, 0xFD	; 253
    4eaa:	e8 80       	ld	r14, Y
    4eac:	c6 52       	subi	r28, 0x26	; 38
    4eae:	d2 40       	sbci	r29, 0x02	; 2
    4eb0:	c9 5d       	subi	r28, 0xD9	; 217
    4eb2:	dd 4f       	sbci	r29, 0xFD	; 253
    4eb4:	f8 80       	ld	r15, Y
    4eb6:	c7 52       	subi	r28, 0x27	; 39
    4eb8:	d2 40       	sbci	r29, 0x02	; 2
    4eba:	c8 5d       	subi	r28, 0xD8	; 216
    4ebc:	dd 4f       	sbci	r29, 0xFD	; 253
    4ebe:	08 81       	ld	r16, Y
    4ec0:	c8 52       	subi	r28, 0x28	; 40
    4ec2:	d2 40       	sbci	r29, 0x02	; 2
    4ec4:	c7 5d       	subi	r28, 0xD7	; 215
    4ec6:	dd 4f       	sbci	r29, 0xFD	; 253
    4ec8:	18 81       	ld	r17, Y
    4eca:	c9 52       	subi	r28, 0x29	; 41
    4ecc:	d2 40       	sbci	r29, 0x02	; 2
    4ece:	c6 5d       	subi	r28, 0xD6	; 214
    4ed0:	dd 4f       	sbci	r29, 0xFD	; 253
    4ed2:	28 81       	ld	r18, Y
    4ed4:	ca 52       	subi	r28, 0x2A	; 42
    4ed6:	d2 40       	sbci	r29, 0x02	; 2
    4ed8:	c5 5d       	subi	r28, 0xD5	; 213
    4eda:	dd 4f       	sbci	r29, 0xFD	; 253
    4edc:	38 81       	ld	r19, Y
    4ede:	cb 52       	subi	r28, 0x2B	; 43
    4ee0:	d2 40       	sbci	r29, 0x02	; 2
    4ee2:	c4 5d       	subi	r28, 0xD4	; 212
    4ee4:	dd 4f       	sbci	r29, 0xFD	; 253
    4ee6:	48 81       	ld	r20, Y
    4ee8:	cc 52       	subi	r28, 0x2C	; 44
    4eea:	d2 40       	sbci	r29, 0x02	; 2
    4eec:	c3 5d       	subi	r28, 0xD3	; 211
    4eee:	dd 4f       	sbci	r29, 0xFD	; 253
    4ef0:	58 81       	ld	r21, Y
    4ef2:	cd 52       	subi	r28, 0x2D	; 45
    4ef4:	d2 40       	sbci	r29, 0x02	; 2
    4ef6:	c2 5d       	subi	r28, 0xD2	; 210
    4ef8:	dd 4f       	sbci	r29, 0xFD	; 253
    4efa:	68 81       	ld	r22, Y
    4efc:	ce 52       	subi	r28, 0x2E	; 46
    4efe:	d2 40       	sbci	r29, 0x02	; 2
    4f00:	c1 5d       	subi	r28, 0xD1	; 209
    4f02:	dd 4f       	sbci	r29, 0xFD	; 253
    4f04:	78 81       	ld	r23, Y
    4f06:	cf 52       	subi	r28, 0x2F	; 47
    4f08:	d2 40       	sbci	r29, 0x02	; 2
    4f0a:	c0 5d       	subi	r28, 0xD0	; 208
    4f0c:	dd 4f       	sbci	r29, 0xFD	; 253
    4f0e:	88 81       	ld	r24, Y
    4f10:	c0 53       	subi	r28, 0x30	; 48
    4f12:	d2 40       	sbci	r29, 0x02	; 2
    4f14:	cf 5c       	subi	r28, 0xCF	; 207
    4f16:	dd 4f       	sbci	r29, 0xFD	; 253
    4f18:	98 81       	ld	r25, Y
    4f1a:	c1 53       	subi	r28, 0x31	; 49
    4f1c:	d2 40       	sbci	r29, 0x02	; 2
    4f1e:	0e 94 84 1a 	call	0x3508	; 0x3508 <playQuestionHard>
				break;
    4f22:	28 c7       	rjmp	.+3664   	; 0x5d74 <__stack+0x1c75>
				case 10:
				playQuestionHard(h10);
    4f24:	ce 5c       	subi	r28, 0xCE	; 206
    4f26:	dd 4f       	sbci	r29, 0xFD	; 253
    4f28:	e8 80       	ld	r14, Y
    4f2a:	c2 53       	subi	r28, 0x32	; 50
    4f2c:	d2 40       	sbci	r29, 0x02	; 2
    4f2e:	cd 5c       	subi	r28, 0xCD	; 205
    4f30:	dd 4f       	sbci	r29, 0xFD	; 253
    4f32:	f8 80       	ld	r15, Y
    4f34:	c3 53       	subi	r28, 0x33	; 51
    4f36:	d2 40       	sbci	r29, 0x02	; 2
    4f38:	cc 5c       	subi	r28, 0xCC	; 204
    4f3a:	dd 4f       	sbci	r29, 0xFD	; 253
    4f3c:	08 81       	ld	r16, Y
    4f3e:	c4 53       	subi	r28, 0x34	; 52
    4f40:	d2 40       	sbci	r29, 0x02	; 2
    4f42:	cb 5c       	subi	r28, 0xCB	; 203
    4f44:	dd 4f       	sbci	r29, 0xFD	; 253
    4f46:	18 81       	ld	r17, Y
    4f48:	c5 53       	subi	r28, 0x35	; 53
    4f4a:	d2 40       	sbci	r29, 0x02	; 2
    4f4c:	ca 5c       	subi	r28, 0xCA	; 202
    4f4e:	dd 4f       	sbci	r29, 0xFD	; 253
    4f50:	28 81       	ld	r18, Y
    4f52:	c6 53       	subi	r28, 0x36	; 54
    4f54:	d2 40       	sbci	r29, 0x02	; 2
    4f56:	c9 5c       	subi	r28, 0xC9	; 201
    4f58:	dd 4f       	sbci	r29, 0xFD	; 253
    4f5a:	38 81       	ld	r19, Y
    4f5c:	c7 53       	subi	r28, 0x37	; 55
    4f5e:	d2 40       	sbci	r29, 0x02	; 2
    4f60:	c8 5c       	subi	r28, 0xC8	; 200
    4f62:	dd 4f       	sbci	r29, 0xFD	; 253
    4f64:	48 81       	ld	r20, Y
    4f66:	c8 53       	subi	r28, 0x38	; 56
    4f68:	d2 40       	sbci	r29, 0x02	; 2
    4f6a:	c7 5c       	subi	r28, 0xC7	; 199
    4f6c:	dd 4f       	sbci	r29, 0xFD	; 253
    4f6e:	58 81       	ld	r21, Y
    4f70:	c9 53       	subi	r28, 0x39	; 57
    4f72:	d2 40       	sbci	r29, 0x02	; 2
    4f74:	c6 5c       	subi	r28, 0xC6	; 198
    4f76:	dd 4f       	sbci	r29, 0xFD	; 253
    4f78:	68 81       	ld	r22, Y
    4f7a:	ca 53       	subi	r28, 0x3A	; 58
    4f7c:	d2 40       	sbci	r29, 0x02	; 2
    4f7e:	c5 5c       	subi	r28, 0xC5	; 197
    4f80:	dd 4f       	sbci	r29, 0xFD	; 253
    4f82:	78 81       	ld	r23, Y
    4f84:	cb 53       	subi	r28, 0x3B	; 59
    4f86:	d2 40       	sbci	r29, 0x02	; 2
    4f88:	c4 5c       	subi	r28, 0xC4	; 196
    4f8a:	dd 4f       	sbci	r29, 0xFD	; 253
    4f8c:	88 81       	ld	r24, Y
    4f8e:	cc 53       	subi	r28, 0x3C	; 60
    4f90:	d2 40       	sbci	r29, 0x02	; 2
    4f92:	c3 5c       	subi	r28, 0xC3	; 195
    4f94:	dd 4f       	sbci	r29, 0xFD	; 253
    4f96:	98 81       	ld	r25, Y
    4f98:	cd 53       	subi	r28, 0x3D	; 61
    4f9a:	d2 40       	sbci	r29, 0x02	; 2
    4f9c:	0e 94 84 1a 	call	0x3508	; 0x3508 <playQuestionHard>
				break;
    4fa0:	e9 c6       	rjmp	.+3538   	; 0x5d74 <__stack+0x1c75>
				case 11:
				playQuestionHard(h11);
    4fa2:	c2 5c       	subi	r28, 0xC2	; 194
    4fa4:	dd 4f       	sbci	r29, 0xFD	; 253
    4fa6:	e8 80       	ld	r14, Y
    4fa8:	ce 53       	subi	r28, 0x3E	; 62
    4faa:	d2 40       	sbci	r29, 0x02	; 2
    4fac:	c1 5c       	subi	r28, 0xC1	; 193
    4fae:	dd 4f       	sbci	r29, 0xFD	; 253
    4fb0:	f8 80       	ld	r15, Y
    4fb2:	cf 53       	subi	r28, 0x3F	; 63
    4fb4:	d2 40       	sbci	r29, 0x02	; 2
    4fb6:	c0 5c       	subi	r28, 0xC0	; 192
    4fb8:	dd 4f       	sbci	r29, 0xFD	; 253
    4fba:	08 81       	ld	r16, Y
    4fbc:	c0 54       	subi	r28, 0x40	; 64
    4fbe:	d2 40       	sbci	r29, 0x02	; 2
    4fc0:	cf 5b       	subi	r28, 0xBF	; 191
    4fc2:	dd 4f       	sbci	r29, 0xFD	; 253
    4fc4:	18 81       	ld	r17, Y
    4fc6:	c1 54       	subi	r28, 0x41	; 65
    4fc8:	d2 40       	sbci	r29, 0x02	; 2
    4fca:	ce 5b       	subi	r28, 0xBE	; 190
    4fcc:	dd 4f       	sbci	r29, 0xFD	; 253
    4fce:	28 81       	ld	r18, Y
    4fd0:	c2 54       	subi	r28, 0x42	; 66
    4fd2:	d2 40       	sbci	r29, 0x02	; 2
    4fd4:	cd 5b       	subi	r28, 0xBD	; 189
    4fd6:	dd 4f       	sbci	r29, 0xFD	; 253
    4fd8:	38 81       	ld	r19, Y
    4fda:	c3 54       	subi	r28, 0x43	; 67
    4fdc:	d2 40       	sbci	r29, 0x02	; 2
    4fde:	cc 5b       	subi	r28, 0xBC	; 188
    4fe0:	dd 4f       	sbci	r29, 0xFD	; 253
    4fe2:	48 81       	ld	r20, Y
    4fe4:	c4 54       	subi	r28, 0x44	; 68
    4fe6:	d2 40       	sbci	r29, 0x02	; 2
    4fe8:	cb 5b       	subi	r28, 0xBB	; 187
    4fea:	dd 4f       	sbci	r29, 0xFD	; 253
    4fec:	58 81       	ld	r21, Y
    4fee:	c5 54       	subi	r28, 0x45	; 69
    4ff0:	d2 40       	sbci	r29, 0x02	; 2
    4ff2:	ca 5b       	subi	r28, 0xBA	; 186
    4ff4:	dd 4f       	sbci	r29, 0xFD	; 253
    4ff6:	68 81       	ld	r22, Y
    4ff8:	c6 54       	subi	r28, 0x46	; 70
    4ffa:	d2 40       	sbci	r29, 0x02	; 2
    4ffc:	c9 5b       	subi	r28, 0xB9	; 185
    4ffe:	dd 4f       	sbci	r29, 0xFD	; 253
    5000:	78 81       	ld	r23, Y
    5002:	c7 54       	subi	r28, 0x47	; 71
    5004:	d2 40       	sbci	r29, 0x02	; 2
    5006:	c8 5b       	subi	r28, 0xB8	; 184
    5008:	dd 4f       	sbci	r29, 0xFD	; 253
    500a:	88 81       	ld	r24, Y
    500c:	c8 54       	subi	r28, 0x48	; 72
    500e:	d2 40       	sbci	r29, 0x02	; 2
    5010:	c7 5b       	subi	r28, 0xB7	; 183
    5012:	dd 4f       	sbci	r29, 0xFD	; 253
    5014:	98 81       	ld	r25, Y
    5016:	c9 54       	subi	r28, 0x49	; 73
    5018:	d2 40       	sbci	r29, 0x02	; 2
    501a:	0e 94 84 1a 	call	0x3508	; 0x3508 <playQuestionHard>
				break;
    501e:	aa c6       	rjmp	.+3412   	; 0x5d74 <__stack+0x1c75>
				case 12:
				playQuestionHard(h12);
    5020:	c6 5b       	subi	r28, 0xB6	; 182
    5022:	dd 4f       	sbci	r29, 0xFD	; 253
    5024:	e8 80       	ld	r14, Y
    5026:	ca 54       	subi	r28, 0x4A	; 74
    5028:	d2 40       	sbci	r29, 0x02	; 2
    502a:	c5 5b       	subi	r28, 0xB5	; 181
    502c:	dd 4f       	sbci	r29, 0xFD	; 253
    502e:	f8 80       	ld	r15, Y
    5030:	cb 54       	subi	r28, 0x4B	; 75
    5032:	d2 40       	sbci	r29, 0x02	; 2
    5034:	c4 5b       	subi	r28, 0xB4	; 180
    5036:	dd 4f       	sbci	r29, 0xFD	; 253
    5038:	08 81       	ld	r16, Y
    503a:	cc 54       	subi	r28, 0x4C	; 76
    503c:	d2 40       	sbci	r29, 0x02	; 2
    503e:	c3 5b       	subi	r28, 0xB3	; 179
    5040:	dd 4f       	sbci	r29, 0xFD	; 253
    5042:	18 81       	ld	r17, Y
    5044:	cd 54       	subi	r28, 0x4D	; 77
    5046:	d2 40       	sbci	r29, 0x02	; 2
    5048:	c2 5b       	subi	r28, 0xB2	; 178
    504a:	dd 4f       	sbci	r29, 0xFD	; 253
    504c:	28 81       	ld	r18, Y
    504e:	ce 54       	subi	r28, 0x4E	; 78
    5050:	d2 40       	sbci	r29, 0x02	; 2
    5052:	c1 5b       	subi	r28, 0xB1	; 177
    5054:	dd 4f       	sbci	r29, 0xFD	; 253
    5056:	38 81       	ld	r19, Y
    5058:	cf 54       	subi	r28, 0x4F	; 79
    505a:	d2 40       	sbci	r29, 0x02	; 2
    505c:	c0 5b       	subi	r28, 0xB0	; 176
    505e:	dd 4f       	sbci	r29, 0xFD	; 253
    5060:	48 81       	ld	r20, Y
    5062:	c0 55       	subi	r28, 0x50	; 80
    5064:	d2 40       	sbci	r29, 0x02	; 2
    5066:	cf 5a       	subi	r28, 0xAF	; 175
    5068:	dd 4f       	sbci	r29, 0xFD	; 253
    506a:	58 81       	ld	r21, Y
    506c:	c1 55       	subi	r28, 0x51	; 81
    506e:	d2 40       	sbci	r29, 0x02	; 2
    5070:	ce 5a       	subi	r28, 0xAE	; 174
    5072:	dd 4f       	sbci	r29, 0xFD	; 253
    5074:	68 81       	ld	r22, Y
    5076:	c2 55       	subi	r28, 0x52	; 82
    5078:	d2 40       	sbci	r29, 0x02	; 2
    507a:	cd 5a       	subi	r28, 0xAD	; 173
    507c:	dd 4f       	sbci	r29, 0xFD	; 253
    507e:	78 81       	ld	r23, Y
    5080:	c3 55       	subi	r28, 0x53	; 83
    5082:	d2 40       	sbci	r29, 0x02	; 2
    5084:	cc 5a       	subi	r28, 0xAC	; 172
    5086:	dd 4f       	sbci	r29, 0xFD	; 253
    5088:	88 81       	ld	r24, Y
    508a:	c4 55       	subi	r28, 0x54	; 84
    508c:	d2 40       	sbci	r29, 0x02	; 2
    508e:	cb 5a       	subi	r28, 0xAB	; 171
    5090:	dd 4f       	sbci	r29, 0xFD	; 253
    5092:	98 81       	ld	r25, Y
    5094:	c5 55       	subi	r28, 0x55	; 85
    5096:	d2 40       	sbci	r29, 0x02	; 2
    5098:	0e 94 84 1a 	call	0x3508	; 0x3508 <playQuestionHard>
				break;
    509c:	6b c6       	rjmp	.+3286   	; 0x5d74 <__stack+0x1c75>
				case 13:
				playQuestionHard(h13);
    509e:	ca 5a       	subi	r28, 0xAA	; 170
    50a0:	dd 4f       	sbci	r29, 0xFD	; 253
    50a2:	e8 80       	ld	r14, Y
    50a4:	c6 55       	subi	r28, 0x56	; 86
    50a6:	d2 40       	sbci	r29, 0x02	; 2
    50a8:	c9 5a       	subi	r28, 0xA9	; 169
    50aa:	dd 4f       	sbci	r29, 0xFD	; 253
    50ac:	f8 80       	ld	r15, Y
    50ae:	c7 55       	subi	r28, 0x57	; 87
    50b0:	d2 40       	sbci	r29, 0x02	; 2
    50b2:	c8 5a       	subi	r28, 0xA8	; 168
    50b4:	dd 4f       	sbci	r29, 0xFD	; 253
    50b6:	08 81       	ld	r16, Y
    50b8:	c8 55       	subi	r28, 0x58	; 88
    50ba:	d2 40       	sbci	r29, 0x02	; 2
    50bc:	c7 5a       	subi	r28, 0xA7	; 167
    50be:	dd 4f       	sbci	r29, 0xFD	; 253
    50c0:	18 81       	ld	r17, Y
    50c2:	c9 55       	subi	r28, 0x59	; 89
    50c4:	d2 40       	sbci	r29, 0x02	; 2
    50c6:	c6 5a       	subi	r28, 0xA6	; 166
    50c8:	dd 4f       	sbci	r29, 0xFD	; 253
    50ca:	28 81       	ld	r18, Y
    50cc:	ca 55       	subi	r28, 0x5A	; 90
    50ce:	d2 40       	sbci	r29, 0x02	; 2
    50d0:	c5 5a       	subi	r28, 0xA5	; 165
    50d2:	dd 4f       	sbci	r29, 0xFD	; 253
    50d4:	38 81       	ld	r19, Y
    50d6:	cb 55       	subi	r28, 0x5B	; 91
    50d8:	d2 40       	sbci	r29, 0x02	; 2
    50da:	c4 5a       	subi	r28, 0xA4	; 164
    50dc:	dd 4f       	sbci	r29, 0xFD	; 253
    50de:	48 81       	ld	r20, Y
    50e0:	cc 55       	subi	r28, 0x5C	; 92
    50e2:	d2 40       	sbci	r29, 0x02	; 2
    50e4:	c3 5a       	subi	r28, 0xA3	; 163
    50e6:	dd 4f       	sbci	r29, 0xFD	; 253
    50e8:	58 81       	ld	r21, Y
    50ea:	cd 55       	subi	r28, 0x5D	; 93
    50ec:	d2 40       	sbci	r29, 0x02	; 2
    50ee:	c2 5a       	subi	r28, 0xA2	; 162
    50f0:	dd 4f       	sbci	r29, 0xFD	; 253
    50f2:	68 81       	ld	r22, Y
    50f4:	ce 55       	subi	r28, 0x5E	; 94
    50f6:	d2 40       	sbci	r29, 0x02	; 2
    50f8:	c1 5a       	subi	r28, 0xA1	; 161
    50fa:	dd 4f       	sbci	r29, 0xFD	; 253
    50fc:	78 81       	ld	r23, Y
    50fe:	cf 55       	subi	r28, 0x5F	; 95
    5100:	d2 40       	sbci	r29, 0x02	; 2
    5102:	c0 5a       	subi	r28, 0xA0	; 160
    5104:	dd 4f       	sbci	r29, 0xFD	; 253
    5106:	88 81       	ld	r24, Y
    5108:	c0 56       	subi	r28, 0x60	; 96
    510a:	d2 40       	sbci	r29, 0x02	; 2
    510c:	cf 59       	subi	r28, 0x9F	; 159
    510e:	dd 4f       	sbci	r29, 0xFD	; 253
    5110:	98 81       	ld	r25, Y
    5112:	c1 56       	subi	r28, 0x61	; 97
    5114:	d2 40       	sbci	r29, 0x02	; 2
    5116:	0e 94 84 1a 	call	0x3508	; 0x3508 <playQuestionHard>
				break;
    511a:	2c c6       	rjmp	.+3160   	; 0x5d74 <__stack+0x1c75>
				case 14:
				playQuestionHard(h14);
    511c:	ce 59       	subi	r28, 0x9E	; 158
    511e:	dd 4f       	sbci	r29, 0xFD	; 253
    5120:	e8 80       	ld	r14, Y
    5122:	c2 56       	subi	r28, 0x62	; 98
    5124:	d2 40       	sbci	r29, 0x02	; 2
    5126:	cd 59       	subi	r28, 0x9D	; 157
    5128:	dd 4f       	sbci	r29, 0xFD	; 253
    512a:	f8 80       	ld	r15, Y
    512c:	c3 56       	subi	r28, 0x63	; 99
    512e:	d2 40       	sbci	r29, 0x02	; 2
    5130:	cc 59       	subi	r28, 0x9C	; 156
    5132:	dd 4f       	sbci	r29, 0xFD	; 253
    5134:	08 81       	ld	r16, Y
    5136:	c4 56       	subi	r28, 0x64	; 100
    5138:	d2 40       	sbci	r29, 0x02	; 2
    513a:	cb 59       	subi	r28, 0x9B	; 155
    513c:	dd 4f       	sbci	r29, 0xFD	; 253
    513e:	18 81       	ld	r17, Y
    5140:	c5 56       	subi	r28, 0x65	; 101
    5142:	d2 40       	sbci	r29, 0x02	; 2
    5144:	ca 59       	subi	r28, 0x9A	; 154
    5146:	dd 4f       	sbci	r29, 0xFD	; 253
    5148:	28 81       	ld	r18, Y
    514a:	c6 56       	subi	r28, 0x66	; 102
    514c:	d2 40       	sbci	r29, 0x02	; 2
    514e:	c9 59       	subi	r28, 0x99	; 153
    5150:	dd 4f       	sbci	r29, 0xFD	; 253
    5152:	38 81       	ld	r19, Y
    5154:	c7 56       	subi	r28, 0x67	; 103
    5156:	d2 40       	sbci	r29, 0x02	; 2
    5158:	c8 59       	subi	r28, 0x98	; 152
    515a:	dd 4f       	sbci	r29, 0xFD	; 253
    515c:	48 81       	ld	r20, Y
    515e:	c8 56       	subi	r28, 0x68	; 104
    5160:	d2 40       	sbci	r29, 0x02	; 2
    5162:	c7 59       	subi	r28, 0x97	; 151
    5164:	dd 4f       	sbci	r29, 0xFD	; 253
    5166:	58 81       	ld	r21, Y
    5168:	c9 56       	subi	r28, 0x69	; 105
    516a:	d2 40       	sbci	r29, 0x02	; 2
    516c:	c6 59       	subi	r28, 0x96	; 150
    516e:	dd 4f       	sbci	r29, 0xFD	; 253
    5170:	68 81       	ld	r22, Y
    5172:	ca 56       	subi	r28, 0x6A	; 106
    5174:	d2 40       	sbci	r29, 0x02	; 2
    5176:	c5 59       	subi	r28, 0x95	; 149
    5178:	dd 4f       	sbci	r29, 0xFD	; 253
    517a:	78 81       	ld	r23, Y
    517c:	cb 56       	subi	r28, 0x6B	; 107
    517e:	d2 40       	sbci	r29, 0x02	; 2
    5180:	c4 59       	subi	r28, 0x94	; 148
    5182:	dd 4f       	sbci	r29, 0xFD	; 253
    5184:	88 81       	ld	r24, Y
    5186:	cc 56       	subi	r28, 0x6C	; 108
    5188:	d2 40       	sbci	r29, 0x02	; 2
    518a:	c3 59       	subi	r28, 0x93	; 147
    518c:	dd 4f       	sbci	r29, 0xFD	; 253
    518e:	98 81       	ld	r25, Y
    5190:	cd 56       	subi	r28, 0x6D	; 109
    5192:	d2 40       	sbci	r29, 0x02	; 2
    5194:	0e 94 84 1a 	call	0x3508	; 0x3508 <playQuestionHard>
				break;
    5198:	ed c5       	rjmp	.+3034   	; 0x5d74 <__stack+0x1c75>
				case 15:
				playQuestionHard(h15);
    519a:	c2 59       	subi	r28, 0x92	; 146
    519c:	dd 4f       	sbci	r29, 0xFD	; 253
    519e:	e8 80       	ld	r14, Y
    51a0:	ce 56       	subi	r28, 0x6E	; 110
    51a2:	d2 40       	sbci	r29, 0x02	; 2
    51a4:	c1 59       	subi	r28, 0x91	; 145
    51a6:	dd 4f       	sbci	r29, 0xFD	; 253
    51a8:	f8 80       	ld	r15, Y
    51aa:	cf 56       	subi	r28, 0x6F	; 111
    51ac:	d2 40       	sbci	r29, 0x02	; 2
    51ae:	c0 59       	subi	r28, 0x90	; 144
    51b0:	dd 4f       	sbci	r29, 0xFD	; 253
    51b2:	08 81       	ld	r16, Y
    51b4:	c0 57       	subi	r28, 0x70	; 112
    51b6:	d2 40       	sbci	r29, 0x02	; 2
    51b8:	cf 58       	subi	r28, 0x8F	; 143
    51ba:	dd 4f       	sbci	r29, 0xFD	; 253
    51bc:	18 81       	ld	r17, Y
    51be:	c1 57       	subi	r28, 0x71	; 113
    51c0:	d2 40       	sbci	r29, 0x02	; 2
    51c2:	ce 58       	subi	r28, 0x8E	; 142
    51c4:	dd 4f       	sbci	r29, 0xFD	; 253
    51c6:	28 81       	ld	r18, Y
    51c8:	c2 57       	subi	r28, 0x72	; 114
    51ca:	d2 40       	sbci	r29, 0x02	; 2
    51cc:	cd 58       	subi	r28, 0x8D	; 141
    51ce:	dd 4f       	sbci	r29, 0xFD	; 253
    51d0:	38 81       	ld	r19, Y
    51d2:	c3 57       	subi	r28, 0x73	; 115
    51d4:	d2 40       	sbci	r29, 0x02	; 2
    51d6:	cc 58       	subi	r28, 0x8C	; 140
    51d8:	dd 4f       	sbci	r29, 0xFD	; 253
    51da:	48 81       	ld	r20, Y
    51dc:	c4 57       	subi	r28, 0x74	; 116
    51de:	d2 40       	sbci	r29, 0x02	; 2
    51e0:	cb 58       	subi	r28, 0x8B	; 139
    51e2:	dd 4f       	sbci	r29, 0xFD	; 253
    51e4:	58 81       	ld	r21, Y
    51e6:	c5 57       	subi	r28, 0x75	; 117
    51e8:	d2 40       	sbci	r29, 0x02	; 2
    51ea:	ca 58       	subi	r28, 0x8A	; 138
    51ec:	dd 4f       	sbci	r29, 0xFD	; 253
    51ee:	68 81       	ld	r22, Y
    51f0:	c6 57       	subi	r28, 0x76	; 118
    51f2:	d2 40       	sbci	r29, 0x02	; 2
    51f4:	c9 58       	subi	r28, 0x89	; 137
    51f6:	dd 4f       	sbci	r29, 0xFD	; 253
    51f8:	78 81       	ld	r23, Y
    51fa:	c7 57       	subi	r28, 0x77	; 119
    51fc:	d2 40       	sbci	r29, 0x02	; 2
    51fe:	c8 58       	subi	r28, 0x88	; 136
    5200:	dd 4f       	sbci	r29, 0xFD	; 253
    5202:	88 81       	ld	r24, Y
    5204:	c8 57       	subi	r28, 0x78	; 120
    5206:	d2 40       	sbci	r29, 0x02	; 2
    5208:	c7 58       	subi	r28, 0x87	; 135
    520a:	dd 4f       	sbci	r29, 0xFD	; 253
    520c:	98 81       	ld	r25, Y
    520e:	c9 57       	subi	r28, 0x79	; 121
    5210:	d2 40       	sbci	r29, 0x02	; 2
    5212:	0e 94 84 1a 	call	0x3508	; 0x3508 <playQuestionHard>
				break;
    5216:	ae c5       	rjmp	.+2908   	; 0x5d74 <__stack+0x1c75>
				case 16:
				playQuestionHard(h16);
    5218:	c6 58       	subi	r28, 0x86	; 134
    521a:	dd 4f       	sbci	r29, 0xFD	; 253
    521c:	e8 80       	ld	r14, Y
    521e:	ca 57       	subi	r28, 0x7A	; 122
    5220:	d2 40       	sbci	r29, 0x02	; 2
    5222:	c5 58       	subi	r28, 0x85	; 133
    5224:	dd 4f       	sbci	r29, 0xFD	; 253
    5226:	f8 80       	ld	r15, Y
    5228:	cb 57       	subi	r28, 0x7B	; 123
    522a:	d2 40       	sbci	r29, 0x02	; 2
    522c:	c4 58       	subi	r28, 0x84	; 132
    522e:	dd 4f       	sbci	r29, 0xFD	; 253
    5230:	08 81       	ld	r16, Y
    5232:	cc 57       	subi	r28, 0x7C	; 124
    5234:	d2 40       	sbci	r29, 0x02	; 2
    5236:	c3 58       	subi	r28, 0x83	; 131
    5238:	dd 4f       	sbci	r29, 0xFD	; 253
    523a:	18 81       	ld	r17, Y
    523c:	cd 57       	subi	r28, 0x7D	; 125
    523e:	d2 40       	sbci	r29, 0x02	; 2
    5240:	c2 58       	subi	r28, 0x82	; 130
    5242:	dd 4f       	sbci	r29, 0xFD	; 253
    5244:	28 81       	ld	r18, Y
    5246:	ce 57       	subi	r28, 0x7E	; 126
    5248:	d2 40       	sbci	r29, 0x02	; 2
    524a:	c1 58       	subi	r28, 0x81	; 129
    524c:	dd 4f       	sbci	r29, 0xFD	; 253
    524e:	38 81       	ld	r19, Y
    5250:	cf 57       	subi	r28, 0x7F	; 127
    5252:	d2 40       	sbci	r29, 0x02	; 2
    5254:	c0 58       	subi	r28, 0x80	; 128
    5256:	dd 4f       	sbci	r29, 0xFD	; 253
    5258:	48 81       	ld	r20, Y
    525a:	c0 58       	subi	r28, 0x80	; 128
    525c:	d2 40       	sbci	r29, 0x02	; 2
    525e:	cf 57       	subi	r28, 0x7F	; 127
    5260:	dd 4f       	sbci	r29, 0xFD	; 253
    5262:	58 81       	ld	r21, Y
    5264:	c1 58       	subi	r28, 0x81	; 129
    5266:	d2 40       	sbci	r29, 0x02	; 2
    5268:	ce 57       	subi	r28, 0x7E	; 126
    526a:	dd 4f       	sbci	r29, 0xFD	; 253
    526c:	68 81       	ld	r22, Y
    526e:	c2 58       	subi	r28, 0x82	; 130
    5270:	d2 40       	sbci	r29, 0x02	; 2
    5272:	cd 57       	subi	r28, 0x7D	; 125
    5274:	dd 4f       	sbci	r29, 0xFD	; 253
    5276:	78 81       	ld	r23, Y
    5278:	c3 58       	subi	r28, 0x83	; 131
    527a:	d2 40       	sbci	r29, 0x02	; 2
    527c:	cc 57       	subi	r28, 0x7C	; 124
    527e:	dd 4f       	sbci	r29, 0xFD	; 253
    5280:	88 81       	ld	r24, Y
    5282:	c4 58       	subi	r28, 0x84	; 132
    5284:	d2 40       	sbci	r29, 0x02	; 2
    5286:	cb 57       	subi	r28, 0x7B	; 123
    5288:	dd 4f       	sbci	r29, 0xFD	; 253
    528a:	98 81       	ld	r25, Y
    528c:	c5 58       	subi	r28, 0x85	; 133
    528e:	d2 40       	sbci	r29, 0x02	; 2
    5290:	0e 94 84 1a 	call	0x3508	; 0x3508 <playQuestionHard>
				break;
    5294:	6f c5       	rjmp	.+2782   	; 0x5d74 <__stack+0x1c75>
				case 17:
				playQuestionHard(h17);
    5296:	ca 57       	subi	r28, 0x7A	; 122
    5298:	dd 4f       	sbci	r29, 0xFD	; 253
    529a:	e8 80       	ld	r14, Y
    529c:	c6 58       	subi	r28, 0x86	; 134
    529e:	d2 40       	sbci	r29, 0x02	; 2
    52a0:	c9 57       	subi	r28, 0x79	; 121
    52a2:	dd 4f       	sbci	r29, 0xFD	; 253
    52a4:	f8 80       	ld	r15, Y
    52a6:	c7 58       	subi	r28, 0x87	; 135
    52a8:	d2 40       	sbci	r29, 0x02	; 2
    52aa:	c8 57       	subi	r28, 0x78	; 120
    52ac:	dd 4f       	sbci	r29, 0xFD	; 253
    52ae:	08 81       	ld	r16, Y
    52b0:	c8 58       	subi	r28, 0x88	; 136
    52b2:	d2 40       	sbci	r29, 0x02	; 2
    52b4:	c7 57       	subi	r28, 0x77	; 119
    52b6:	dd 4f       	sbci	r29, 0xFD	; 253
    52b8:	18 81       	ld	r17, Y
    52ba:	c9 58       	subi	r28, 0x89	; 137
    52bc:	d2 40       	sbci	r29, 0x02	; 2
    52be:	c6 57       	subi	r28, 0x76	; 118
    52c0:	dd 4f       	sbci	r29, 0xFD	; 253
    52c2:	28 81       	ld	r18, Y
    52c4:	ca 58       	subi	r28, 0x8A	; 138
    52c6:	d2 40       	sbci	r29, 0x02	; 2
    52c8:	c5 57       	subi	r28, 0x75	; 117
    52ca:	dd 4f       	sbci	r29, 0xFD	; 253
    52cc:	38 81       	ld	r19, Y
    52ce:	cb 58       	subi	r28, 0x8B	; 139
    52d0:	d2 40       	sbci	r29, 0x02	; 2
    52d2:	c4 57       	subi	r28, 0x74	; 116
    52d4:	dd 4f       	sbci	r29, 0xFD	; 253
    52d6:	48 81       	ld	r20, Y
    52d8:	cc 58       	subi	r28, 0x8C	; 140
    52da:	d2 40       	sbci	r29, 0x02	; 2
    52dc:	c3 57       	subi	r28, 0x73	; 115
    52de:	dd 4f       	sbci	r29, 0xFD	; 253
    52e0:	58 81       	ld	r21, Y
    52e2:	cd 58       	subi	r28, 0x8D	; 141
    52e4:	d2 40       	sbci	r29, 0x02	; 2
    52e6:	c2 57       	subi	r28, 0x72	; 114
    52e8:	dd 4f       	sbci	r29, 0xFD	; 253
    52ea:	68 81       	ld	r22, Y
    52ec:	ce 58       	subi	r28, 0x8E	; 142
    52ee:	d2 40       	sbci	r29, 0x02	; 2
    52f0:	c1 57       	subi	r28, 0x71	; 113
    52f2:	dd 4f       	sbci	r29, 0xFD	; 253
    52f4:	78 81       	ld	r23, Y
    52f6:	cf 58       	subi	r28, 0x8F	; 143
    52f8:	d2 40       	sbci	r29, 0x02	; 2
    52fa:	c0 57       	subi	r28, 0x70	; 112
    52fc:	dd 4f       	sbci	r29, 0xFD	; 253
    52fe:	88 81       	ld	r24, Y
    5300:	c0 59       	subi	r28, 0x90	; 144
    5302:	d2 40       	sbci	r29, 0x02	; 2
    5304:	cf 56       	subi	r28, 0x6F	; 111
    5306:	dd 4f       	sbci	r29, 0xFD	; 253
    5308:	98 81       	ld	r25, Y
    530a:	c1 59       	subi	r28, 0x91	; 145
    530c:	d2 40       	sbci	r29, 0x02	; 2
    530e:	0e 94 84 1a 	call	0x3508	; 0x3508 <playQuestionHard>
				break;
    5312:	30 c5       	rjmp	.+2656   	; 0x5d74 <__stack+0x1c75>
				case 18:
				playQuestionHard(h18);
    5314:	ce 56       	subi	r28, 0x6E	; 110
    5316:	dd 4f       	sbci	r29, 0xFD	; 253
    5318:	e8 80       	ld	r14, Y
    531a:	c2 59       	subi	r28, 0x92	; 146
    531c:	d2 40       	sbci	r29, 0x02	; 2
    531e:	cd 56       	subi	r28, 0x6D	; 109
    5320:	dd 4f       	sbci	r29, 0xFD	; 253
    5322:	f8 80       	ld	r15, Y
    5324:	c3 59       	subi	r28, 0x93	; 147
    5326:	d2 40       	sbci	r29, 0x02	; 2
    5328:	cc 56       	subi	r28, 0x6C	; 108
    532a:	dd 4f       	sbci	r29, 0xFD	; 253
    532c:	08 81       	ld	r16, Y
    532e:	c4 59       	subi	r28, 0x94	; 148
    5330:	d2 40       	sbci	r29, 0x02	; 2
    5332:	cb 56       	subi	r28, 0x6B	; 107
    5334:	dd 4f       	sbci	r29, 0xFD	; 253
    5336:	18 81       	ld	r17, Y
    5338:	c5 59       	subi	r28, 0x95	; 149
    533a:	d2 40       	sbci	r29, 0x02	; 2
    533c:	ca 56       	subi	r28, 0x6A	; 106
    533e:	dd 4f       	sbci	r29, 0xFD	; 253
    5340:	28 81       	ld	r18, Y
    5342:	c6 59       	subi	r28, 0x96	; 150
    5344:	d2 40       	sbci	r29, 0x02	; 2
    5346:	c9 56       	subi	r28, 0x69	; 105
    5348:	dd 4f       	sbci	r29, 0xFD	; 253
    534a:	38 81       	ld	r19, Y
    534c:	c7 59       	subi	r28, 0x97	; 151
    534e:	d2 40       	sbci	r29, 0x02	; 2
    5350:	c8 56       	subi	r28, 0x68	; 104
    5352:	dd 4f       	sbci	r29, 0xFD	; 253
    5354:	48 81       	ld	r20, Y
    5356:	c8 59       	subi	r28, 0x98	; 152
    5358:	d2 40       	sbci	r29, 0x02	; 2
    535a:	c7 56       	subi	r28, 0x67	; 103
    535c:	dd 4f       	sbci	r29, 0xFD	; 253
    535e:	58 81       	ld	r21, Y
    5360:	c9 59       	subi	r28, 0x99	; 153
    5362:	d2 40       	sbci	r29, 0x02	; 2
    5364:	c6 56       	subi	r28, 0x66	; 102
    5366:	dd 4f       	sbci	r29, 0xFD	; 253
    5368:	68 81       	ld	r22, Y
    536a:	ca 59       	subi	r28, 0x9A	; 154
    536c:	d2 40       	sbci	r29, 0x02	; 2
    536e:	c5 56       	subi	r28, 0x65	; 101
    5370:	dd 4f       	sbci	r29, 0xFD	; 253
    5372:	78 81       	ld	r23, Y
    5374:	cb 59       	subi	r28, 0x9B	; 155
    5376:	d2 40       	sbci	r29, 0x02	; 2
    5378:	c4 56       	subi	r28, 0x64	; 100
    537a:	dd 4f       	sbci	r29, 0xFD	; 253
    537c:	88 81       	ld	r24, Y
    537e:	cc 59       	subi	r28, 0x9C	; 156
    5380:	d2 40       	sbci	r29, 0x02	; 2
    5382:	c3 56       	subi	r28, 0x63	; 99
    5384:	dd 4f       	sbci	r29, 0xFD	; 253
    5386:	98 81       	ld	r25, Y
    5388:	cd 59       	subi	r28, 0x9D	; 157
    538a:	d2 40       	sbci	r29, 0x02	; 2
    538c:	0e 94 84 1a 	call	0x3508	; 0x3508 <playQuestionHard>
				break;
    5390:	f1 c4       	rjmp	.+2530   	; 0x5d74 <__stack+0x1c75>
				case 19:
				playQuestionHard(h19);
    5392:	c2 56       	subi	r28, 0x62	; 98
    5394:	dd 4f       	sbci	r29, 0xFD	; 253
    5396:	e8 80       	ld	r14, Y
    5398:	ce 59       	subi	r28, 0x9E	; 158
    539a:	d2 40       	sbci	r29, 0x02	; 2
    539c:	c1 56       	subi	r28, 0x61	; 97
    539e:	dd 4f       	sbci	r29, 0xFD	; 253
    53a0:	f8 80       	ld	r15, Y
    53a2:	cf 59       	subi	r28, 0x9F	; 159
    53a4:	d2 40       	sbci	r29, 0x02	; 2
    53a6:	c0 56       	subi	r28, 0x60	; 96
    53a8:	dd 4f       	sbci	r29, 0xFD	; 253
    53aa:	08 81       	ld	r16, Y
    53ac:	c0 5a       	subi	r28, 0xA0	; 160
    53ae:	d2 40       	sbci	r29, 0x02	; 2
    53b0:	cf 55       	subi	r28, 0x5F	; 95
    53b2:	dd 4f       	sbci	r29, 0xFD	; 253
    53b4:	18 81       	ld	r17, Y
    53b6:	c1 5a       	subi	r28, 0xA1	; 161
    53b8:	d2 40       	sbci	r29, 0x02	; 2
    53ba:	ce 55       	subi	r28, 0x5E	; 94
    53bc:	dd 4f       	sbci	r29, 0xFD	; 253
    53be:	28 81       	ld	r18, Y
    53c0:	c2 5a       	subi	r28, 0xA2	; 162
    53c2:	d2 40       	sbci	r29, 0x02	; 2
    53c4:	cd 55       	subi	r28, 0x5D	; 93
    53c6:	dd 4f       	sbci	r29, 0xFD	; 253
    53c8:	38 81       	ld	r19, Y
    53ca:	c3 5a       	subi	r28, 0xA3	; 163
    53cc:	d2 40       	sbci	r29, 0x02	; 2
    53ce:	cc 55       	subi	r28, 0x5C	; 92
    53d0:	dd 4f       	sbci	r29, 0xFD	; 253
    53d2:	48 81       	ld	r20, Y
    53d4:	c4 5a       	subi	r28, 0xA4	; 164
    53d6:	d2 40       	sbci	r29, 0x02	; 2
    53d8:	cb 55       	subi	r28, 0x5B	; 91
    53da:	dd 4f       	sbci	r29, 0xFD	; 253
    53dc:	58 81       	ld	r21, Y
    53de:	c5 5a       	subi	r28, 0xA5	; 165
    53e0:	d2 40       	sbci	r29, 0x02	; 2
    53e2:	ca 55       	subi	r28, 0x5A	; 90
    53e4:	dd 4f       	sbci	r29, 0xFD	; 253
    53e6:	68 81       	ld	r22, Y
    53e8:	c6 5a       	subi	r28, 0xA6	; 166
    53ea:	d2 40       	sbci	r29, 0x02	; 2
    53ec:	c9 55       	subi	r28, 0x59	; 89
    53ee:	dd 4f       	sbci	r29, 0xFD	; 253
    53f0:	78 81       	ld	r23, Y
    53f2:	c7 5a       	subi	r28, 0xA7	; 167
    53f4:	d2 40       	sbci	r29, 0x02	; 2
    53f6:	c8 55       	subi	r28, 0x58	; 88
    53f8:	dd 4f       	sbci	r29, 0xFD	; 253
    53fa:	88 81       	ld	r24, Y
    53fc:	c8 5a       	subi	r28, 0xA8	; 168
    53fe:	d2 40       	sbci	r29, 0x02	; 2
    5400:	c7 55       	subi	r28, 0x57	; 87
    5402:	dd 4f       	sbci	r29, 0xFD	; 253
    5404:	98 81       	ld	r25, Y
    5406:	c9 5a       	subi	r28, 0xA9	; 169
    5408:	d2 40       	sbci	r29, 0x02	; 2
    540a:	0e 94 84 1a 	call	0x3508	; 0x3508 <playQuestionHard>
				break;
    540e:	b2 c4       	rjmp	.+2404   	; 0x5d74 <__stack+0x1c75>
				case 20:
				playQuestionHard(h20);
    5410:	c6 55       	subi	r28, 0x56	; 86
    5412:	dd 4f       	sbci	r29, 0xFD	; 253
    5414:	e8 80       	ld	r14, Y
    5416:	ca 5a       	subi	r28, 0xAA	; 170
    5418:	d2 40       	sbci	r29, 0x02	; 2
    541a:	c5 55       	subi	r28, 0x55	; 85
    541c:	dd 4f       	sbci	r29, 0xFD	; 253
    541e:	f8 80       	ld	r15, Y
    5420:	cb 5a       	subi	r28, 0xAB	; 171
    5422:	d2 40       	sbci	r29, 0x02	; 2
    5424:	c4 55       	subi	r28, 0x54	; 84
    5426:	dd 4f       	sbci	r29, 0xFD	; 253
    5428:	08 81       	ld	r16, Y
    542a:	cc 5a       	subi	r28, 0xAC	; 172
    542c:	d2 40       	sbci	r29, 0x02	; 2
    542e:	c3 55       	subi	r28, 0x53	; 83
    5430:	dd 4f       	sbci	r29, 0xFD	; 253
    5432:	18 81       	ld	r17, Y
    5434:	cd 5a       	subi	r28, 0xAD	; 173
    5436:	d2 40       	sbci	r29, 0x02	; 2
    5438:	c2 55       	subi	r28, 0x52	; 82
    543a:	dd 4f       	sbci	r29, 0xFD	; 253
    543c:	28 81       	ld	r18, Y
    543e:	ce 5a       	subi	r28, 0xAE	; 174
    5440:	d2 40       	sbci	r29, 0x02	; 2
    5442:	c1 55       	subi	r28, 0x51	; 81
    5444:	dd 4f       	sbci	r29, 0xFD	; 253
    5446:	38 81       	ld	r19, Y
    5448:	cf 5a       	subi	r28, 0xAF	; 175
    544a:	d2 40       	sbci	r29, 0x02	; 2
    544c:	c0 55       	subi	r28, 0x50	; 80
    544e:	dd 4f       	sbci	r29, 0xFD	; 253
    5450:	48 81       	ld	r20, Y
    5452:	c0 5b       	subi	r28, 0xB0	; 176
    5454:	d2 40       	sbci	r29, 0x02	; 2
    5456:	cf 54       	subi	r28, 0x4F	; 79
    5458:	dd 4f       	sbci	r29, 0xFD	; 253
    545a:	58 81       	ld	r21, Y
    545c:	c1 5b       	subi	r28, 0xB1	; 177
    545e:	d2 40       	sbci	r29, 0x02	; 2
    5460:	ce 54       	subi	r28, 0x4E	; 78
    5462:	dd 4f       	sbci	r29, 0xFD	; 253
    5464:	68 81       	ld	r22, Y
    5466:	c2 5b       	subi	r28, 0xB2	; 178
    5468:	d2 40       	sbci	r29, 0x02	; 2
    546a:	cd 54       	subi	r28, 0x4D	; 77
    546c:	dd 4f       	sbci	r29, 0xFD	; 253
    546e:	78 81       	ld	r23, Y
    5470:	c3 5b       	subi	r28, 0xB3	; 179
    5472:	d2 40       	sbci	r29, 0x02	; 2
    5474:	cc 54       	subi	r28, 0x4C	; 76
    5476:	dd 4f       	sbci	r29, 0xFD	; 253
    5478:	88 81       	ld	r24, Y
    547a:	c4 5b       	subi	r28, 0xB4	; 180
    547c:	d2 40       	sbci	r29, 0x02	; 2
    547e:	cb 54       	subi	r28, 0x4B	; 75
    5480:	dd 4f       	sbci	r29, 0xFD	; 253
    5482:	98 81       	ld	r25, Y
    5484:	c5 5b       	subi	r28, 0xB5	; 181
    5486:	d2 40       	sbci	r29, 0x02	; 2
    5488:	0e 94 84 1a 	call	0x3508	; 0x3508 <playQuestionHard>
				break;
    548c:	73 c4       	rjmp	.+2278   	; 0x5d74 <__stack+0x1c75>
			}
		}
		else if(difficulty == 1){
    548e:	81 30       	cpi	r24, 0x01	; 1
    5490:	09 f0       	breq	.+2      	; 0x5494 <__stack+0x1395>
    5492:	69 c4       	rjmp	.+2258   	; 0x5d66 <__stack+0x1c67>
			int r = rand() % 21;
    5494:	59 d5       	rcall	.+2738   	; 0x5f48 <rand>
    5496:	8c 01       	movw	r16, r24
			LCD_ClearScreen();
    5498:	0e 94 e5 01 	call	0x3ca	; 0x3ca <LCD_ClearScreen>
			switch(r){
    549c:	c8 01       	movw	r24, r16
    549e:	65 e1       	ldi	r22, 0x15	; 21
    54a0:	70 e0       	ldi	r23, 0x00	; 0
    54a2:	db d4       	rcall	.+2486   	; 0x5e5a <__divmodhi4>
    54a4:	85 31       	cpi	r24, 0x15	; 21
    54a6:	91 05       	cpc	r25, r1
    54a8:	08 f0       	brcs	.+2      	; 0x54ac <__stack+0x13ad>
    54aa:	64 c4       	rjmp	.+2248   	; 0x5d74 <__stack+0x1c75>
    54ac:	fc 01       	movw	r30, r24
    54ae:	e0 59       	subi	r30, 0x90	; 144
    54b0:	ff 4f       	sbci	r31, 0xFF	; 255
    54b2:	e6 c4       	rjmp	.+2508   	; 0x5e80 <__tablejump2__>
				case 0:
				playQuestionMedium(m0);
    54b4:	c8 51       	subi	r28, 0x18	; 24
    54b6:	df 4f       	sbci	r29, 0xFF	; 255
    54b8:	08 81       	ld	r16, Y
    54ba:	c8 5e       	subi	r28, 0xE8	; 232
    54bc:	d0 40       	sbci	r29, 0x00	; 0
    54be:	c7 51       	subi	r28, 0x17	; 23
    54c0:	df 4f       	sbci	r29, 0xFF	; 255
    54c2:	18 81       	ld	r17, Y
    54c4:	c9 5e       	subi	r28, 0xE9	; 233
    54c6:	d0 40       	sbci	r29, 0x00	; 0
    54c8:	c6 51       	subi	r28, 0x16	; 22
    54ca:	df 4f       	sbci	r29, 0xFF	; 255
    54cc:	28 81       	ld	r18, Y
    54ce:	ca 5e       	subi	r28, 0xEA	; 234
    54d0:	d0 40       	sbci	r29, 0x00	; 0
    54d2:	c5 51       	subi	r28, 0x15	; 21
    54d4:	df 4f       	sbci	r29, 0xFF	; 255
    54d6:	38 81       	ld	r19, Y
    54d8:	cb 5e       	subi	r28, 0xEB	; 235
    54da:	d0 40       	sbci	r29, 0x00	; 0
    54dc:	c4 51       	subi	r28, 0x14	; 20
    54de:	df 4f       	sbci	r29, 0xFF	; 255
    54e0:	48 81       	ld	r20, Y
    54e2:	cc 5e       	subi	r28, 0xEC	; 236
    54e4:	d0 40       	sbci	r29, 0x00	; 0
    54e6:	c3 51       	subi	r28, 0x13	; 19
    54e8:	df 4f       	sbci	r29, 0xFF	; 255
    54ea:	58 81       	ld	r21, Y
    54ec:	cd 5e       	subi	r28, 0xED	; 237
    54ee:	d0 40       	sbci	r29, 0x00	; 0
    54f0:	c2 51       	subi	r28, 0x12	; 18
    54f2:	df 4f       	sbci	r29, 0xFF	; 255
    54f4:	68 81       	ld	r22, Y
    54f6:	ce 5e       	subi	r28, 0xEE	; 238
    54f8:	d0 40       	sbci	r29, 0x00	; 0
    54fa:	c1 51       	subi	r28, 0x11	; 17
    54fc:	df 4f       	sbci	r29, 0xFF	; 255
    54fe:	78 81       	ld	r23, Y
    5500:	cf 5e       	subi	r28, 0xEF	; 239
    5502:	d0 40       	sbci	r29, 0x00	; 0
    5504:	c0 51       	subi	r28, 0x10	; 16
    5506:	df 4f       	sbci	r29, 0xFF	; 255
    5508:	88 81       	ld	r24, Y
    550a:	c0 5f       	subi	r28, 0xF0	; 240
    550c:	d0 40       	sbci	r29, 0x00	; 0
    550e:	cf 50       	subi	r28, 0x0F	; 15
    5510:	df 4f       	sbci	r29, 0xFF	; 255
    5512:	98 81       	ld	r25, Y
    5514:	c1 5f       	subi	r28, 0xF1	; 241
    5516:	d0 40       	sbci	r29, 0x00	; 0
    5518:	0e 94 28 16 	call	0x2c50	; 0x2c50 <playQuestionMedium>
				break;
    551c:	2b c4       	rjmp	.+2134   	; 0x5d74 <__stack+0x1c75>
				case 1:
				playQuestionMedium(m1);
    551e:	ce 50       	subi	r28, 0x0E	; 14
    5520:	df 4f       	sbci	r29, 0xFF	; 255
    5522:	08 81       	ld	r16, Y
    5524:	c2 5f       	subi	r28, 0xF2	; 242
    5526:	d0 40       	sbci	r29, 0x00	; 0
    5528:	cd 50       	subi	r28, 0x0D	; 13
    552a:	df 4f       	sbci	r29, 0xFF	; 255
    552c:	18 81       	ld	r17, Y
    552e:	c3 5f       	subi	r28, 0xF3	; 243
    5530:	d0 40       	sbci	r29, 0x00	; 0
    5532:	cc 50       	subi	r28, 0x0C	; 12
    5534:	df 4f       	sbci	r29, 0xFF	; 255
    5536:	28 81       	ld	r18, Y
    5538:	c4 5f       	subi	r28, 0xF4	; 244
    553a:	d0 40       	sbci	r29, 0x00	; 0
    553c:	cb 50       	subi	r28, 0x0B	; 11
    553e:	df 4f       	sbci	r29, 0xFF	; 255
    5540:	38 81       	ld	r19, Y
    5542:	c5 5f       	subi	r28, 0xF5	; 245
    5544:	d0 40       	sbci	r29, 0x00	; 0
    5546:	ca 50       	subi	r28, 0x0A	; 10
    5548:	df 4f       	sbci	r29, 0xFF	; 255
    554a:	48 81       	ld	r20, Y
    554c:	c6 5f       	subi	r28, 0xF6	; 246
    554e:	d0 40       	sbci	r29, 0x00	; 0
    5550:	c9 50       	subi	r28, 0x09	; 9
    5552:	df 4f       	sbci	r29, 0xFF	; 255
    5554:	58 81       	ld	r21, Y
    5556:	c7 5f       	subi	r28, 0xF7	; 247
    5558:	d0 40       	sbci	r29, 0x00	; 0
    555a:	c8 50       	subi	r28, 0x08	; 8
    555c:	df 4f       	sbci	r29, 0xFF	; 255
    555e:	68 81       	ld	r22, Y
    5560:	c8 5f       	subi	r28, 0xF8	; 248
    5562:	d0 40       	sbci	r29, 0x00	; 0
    5564:	c7 50       	subi	r28, 0x07	; 7
    5566:	df 4f       	sbci	r29, 0xFF	; 255
    5568:	78 81       	ld	r23, Y
    556a:	c9 5f       	subi	r28, 0xF9	; 249
    556c:	d0 40       	sbci	r29, 0x00	; 0
    556e:	c6 50       	subi	r28, 0x06	; 6
    5570:	df 4f       	sbci	r29, 0xFF	; 255
    5572:	88 81       	ld	r24, Y
    5574:	ca 5f       	subi	r28, 0xFA	; 250
    5576:	d0 40       	sbci	r29, 0x00	; 0
    5578:	c5 50       	subi	r28, 0x05	; 5
    557a:	df 4f       	sbci	r29, 0xFF	; 255
    557c:	98 81       	ld	r25, Y
    557e:	cb 5f       	subi	r28, 0xFB	; 251
    5580:	d0 40       	sbci	r29, 0x00	; 0
    5582:	0e 94 28 16 	call	0x2c50	; 0x2c50 <playQuestionMedium>
				break;
    5586:	f6 c3       	rjmp	.+2028   	; 0x5d74 <__stack+0x1c75>
				case 2:
				playQuestionMedium(m2);
    5588:	c4 50       	subi	r28, 0x04	; 4
    558a:	df 4f       	sbci	r29, 0xFF	; 255
    558c:	08 81       	ld	r16, Y
    558e:	cc 5f       	subi	r28, 0xFC	; 252
    5590:	d0 40       	sbci	r29, 0x00	; 0
    5592:	c3 50       	subi	r28, 0x03	; 3
    5594:	df 4f       	sbci	r29, 0xFF	; 255
    5596:	18 81       	ld	r17, Y
    5598:	cd 5f       	subi	r28, 0xFD	; 253
    559a:	d0 40       	sbci	r29, 0x00	; 0
    559c:	c2 50       	subi	r28, 0x02	; 2
    559e:	df 4f       	sbci	r29, 0xFF	; 255
    55a0:	28 81       	ld	r18, Y
    55a2:	ce 5f       	subi	r28, 0xFE	; 254
    55a4:	d0 40       	sbci	r29, 0x00	; 0
    55a6:	c1 50       	subi	r28, 0x01	; 1
    55a8:	df 4f       	sbci	r29, 0xFF	; 255
    55aa:	38 81       	ld	r19, Y
    55ac:	cf 5f       	subi	r28, 0xFF	; 255
    55ae:	d0 40       	sbci	r29, 0x00	; 0
    55b0:	c0 50       	subi	r28, 0x00	; 0
    55b2:	df 4f       	sbci	r29, 0xFF	; 255
    55b4:	48 81       	ld	r20, Y
    55b6:	c0 50       	subi	r28, 0x00	; 0
    55b8:	d1 40       	sbci	r29, 0x01	; 1
    55ba:	cf 5f       	subi	r28, 0xFF	; 255
    55bc:	de 4f       	sbci	r29, 0xFE	; 254
    55be:	58 81       	ld	r21, Y
    55c0:	c1 50       	subi	r28, 0x01	; 1
    55c2:	d1 40       	sbci	r29, 0x01	; 1
    55c4:	ce 5f       	subi	r28, 0xFE	; 254
    55c6:	de 4f       	sbci	r29, 0xFE	; 254
    55c8:	68 81       	ld	r22, Y
    55ca:	c2 50       	subi	r28, 0x02	; 2
    55cc:	d1 40       	sbci	r29, 0x01	; 1
    55ce:	cd 5f       	subi	r28, 0xFD	; 253
    55d0:	de 4f       	sbci	r29, 0xFE	; 254
    55d2:	78 81       	ld	r23, Y
    55d4:	c3 50       	subi	r28, 0x03	; 3
    55d6:	d1 40       	sbci	r29, 0x01	; 1
    55d8:	cc 5f       	subi	r28, 0xFC	; 252
    55da:	de 4f       	sbci	r29, 0xFE	; 254
    55dc:	88 81       	ld	r24, Y
    55de:	c4 50       	subi	r28, 0x04	; 4
    55e0:	d1 40       	sbci	r29, 0x01	; 1
    55e2:	cb 5f       	subi	r28, 0xFB	; 251
    55e4:	de 4f       	sbci	r29, 0xFE	; 254
    55e6:	98 81       	ld	r25, Y
    55e8:	c5 50       	subi	r28, 0x05	; 5
    55ea:	d1 40       	sbci	r29, 0x01	; 1
    55ec:	0e 94 28 16 	call	0x2c50	; 0x2c50 <playQuestionMedium>
				break;
    55f0:	c1 c3       	rjmp	.+1922   	; 0x5d74 <__stack+0x1c75>
				case 3:
				playQuestionMedium(m3);
    55f2:	ca 5f       	subi	r28, 0xFA	; 250
    55f4:	de 4f       	sbci	r29, 0xFE	; 254
    55f6:	08 81       	ld	r16, Y
    55f8:	c6 50       	subi	r28, 0x06	; 6
    55fa:	d1 40       	sbci	r29, 0x01	; 1
    55fc:	c9 5f       	subi	r28, 0xF9	; 249
    55fe:	de 4f       	sbci	r29, 0xFE	; 254
    5600:	18 81       	ld	r17, Y
    5602:	c7 50       	subi	r28, 0x07	; 7
    5604:	d1 40       	sbci	r29, 0x01	; 1
    5606:	c8 5f       	subi	r28, 0xF8	; 248
    5608:	de 4f       	sbci	r29, 0xFE	; 254
    560a:	28 81       	ld	r18, Y
    560c:	c8 50       	subi	r28, 0x08	; 8
    560e:	d1 40       	sbci	r29, 0x01	; 1
    5610:	c7 5f       	subi	r28, 0xF7	; 247
    5612:	de 4f       	sbci	r29, 0xFE	; 254
    5614:	38 81       	ld	r19, Y
    5616:	c9 50       	subi	r28, 0x09	; 9
    5618:	d1 40       	sbci	r29, 0x01	; 1
    561a:	c6 5f       	subi	r28, 0xF6	; 246
    561c:	de 4f       	sbci	r29, 0xFE	; 254
    561e:	48 81       	ld	r20, Y
    5620:	ca 50       	subi	r28, 0x0A	; 10
    5622:	d1 40       	sbci	r29, 0x01	; 1
    5624:	c5 5f       	subi	r28, 0xF5	; 245
    5626:	de 4f       	sbci	r29, 0xFE	; 254
    5628:	58 81       	ld	r21, Y
    562a:	cb 50       	subi	r28, 0x0B	; 11
    562c:	d1 40       	sbci	r29, 0x01	; 1
    562e:	c4 5f       	subi	r28, 0xF4	; 244
    5630:	de 4f       	sbci	r29, 0xFE	; 254
    5632:	68 81       	ld	r22, Y
    5634:	cc 50       	subi	r28, 0x0C	; 12
    5636:	d1 40       	sbci	r29, 0x01	; 1
    5638:	c3 5f       	subi	r28, 0xF3	; 243
    563a:	de 4f       	sbci	r29, 0xFE	; 254
    563c:	78 81       	ld	r23, Y
    563e:	cd 50       	subi	r28, 0x0D	; 13
    5640:	d1 40       	sbci	r29, 0x01	; 1
    5642:	c2 5f       	subi	r28, 0xF2	; 242
    5644:	de 4f       	sbci	r29, 0xFE	; 254
    5646:	88 81       	ld	r24, Y
    5648:	ce 50       	subi	r28, 0x0E	; 14
    564a:	d1 40       	sbci	r29, 0x01	; 1
    564c:	c1 5f       	subi	r28, 0xF1	; 241
    564e:	de 4f       	sbci	r29, 0xFE	; 254
    5650:	98 81       	ld	r25, Y
    5652:	cf 50       	subi	r28, 0x0F	; 15
    5654:	d1 40       	sbci	r29, 0x01	; 1
    5656:	0e 94 28 16 	call	0x2c50	; 0x2c50 <playQuestionMedium>
				break;
    565a:	8c c3       	rjmp	.+1816   	; 0x5d74 <__stack+0x1c75>
				case 4:
				playQuestionMedium(m4);
    565c:	c0 5f       	subi	r28, 0xF0	; 240
    565e:	de 4f       	sbci	r29, 0xFE	; 254
    5660:	08 81       	ld	r16, Y
    5662:	c0 51       	subi	r28, 0x10	; 16
    5664:	d1 40       	sbci	r29, 0x01	; 1
    5666:	cf 5e       	subi	r28, 0xEF	; 239
    5668:	de 4f       	sbci	r29, 0xFE	; 254
    566a:	18 81       	ld	r17, Y
    566c:	c1 51       	subi	r28, 0x11	; 17
    566e:	d1 40       	sbci	r29, 0x01	; 1
    5670:	ce 5e       	subi	r28, 0xEE	; 238
    5672:	de 4f       	sbci	r29, 0xFE	; 254
    5674:	28 81       	ld	r18, Y
    5676:	c2 51       	subi	r28, 0x12	; 18
    5678:	d1 40       	sbci	r29, 0x01	; 1
    567a:	cd 5e       	subi	r28, 0xED	; 237
    567c:	de 4f       	sbci	r29, 0xFE	; 254
    567e:	38 81       	ld	r19, Y
    5680:	c3 51       	subi	r28, 0x13	; 19
    5682:	d1 40       	sbci	r29, 0x01	; 1
    5684:	cc 5e       	subi	r28, 0xEC	; 236
    5686:	de 4f       	sbci	r29, 0xFE	; 254
    5688:	48 81       	ld	r20, Y
    568a:	c4 51       	subi	r28, 0x14	; 20
    568c:	d1 40       	sbci	r29, 0x01	; 1
    568e:	cb 5e       	subi	r28, 0xEB	; 235
    5690:	de 4f       	sbci	r29, 0xFE	; 254
    5692:	58 81       	ld	r21, Y
    5694:	c5 51       	subi	r28, 0x15	; 21
    5696:	d1 40       	sbci	r29, 0x01	; 1
    5698:	ca 5e       	subi	r28, 0xEA	; 234
    569a:	de 4f       	sbci	r29, 0xFE	; 254
    569c:	68 81       	ld	r22, Y
    569e:	c6 51       	subi	r28, 0x16	; 22
    56a0:	d1 40       	sbci	r29, 0x01	; 1
    56a2:	c9 5e       	subi	r28, 0xE9	; 233
    56a4:	de 4f       	sbci	r29, 0xFE	; 254
    56a6:	78 81       	ld	r23, Y
    56a8:	c7 51       	subi	r28, 0x17	; 23
    56aa:	d1 40       	sbci	r29, 0x01	; 1
    56ac:	c8 5e       	subi	r28, 0xE8	; 232
    56ae:	de 4f       	sbci	r29, 0xFE	; 254
    56b0:	88 81       	ld	r24, Y
    56b2:	c8 51       	subi	r28, 0x18	; 24
    56b4:	d1 40       	sbci	r29, 0x01	; 1
    56b6:	c7 5e       	subi	r28, 0xE7	; 231
    56b8:	de 4f       	sbci	r29, 0xFE	; 254
    56ba:	98 81       	ld	r25, Y
    56bc:	c9 51       	subi	r28, 0x19	; 25
    56be:	d1 40       	sbci	r29, 0x01	; 1
    56c0:	0e 94 28 16 	call	0x2c50	; 0x2c50 <playQuestionMedium>
				break;
    56c4:	57 c3       	rjmp	.+1710   	; 0x5d74 <__stack+0x1c75>
				case 5:
				playQuestionMedium(m5);
    56c6:	c6 5e       	subi	r28, 0xE6	; 230
    56c8:	de 4f       	sbci	r29, 0xFE	; 254
    56ca:	08 81       	ld	r16, Y
    56cc:	ca 51       	subi	r28, 0x1A	; 26
    56ce:	d1 40       	sbci	r29, 0x01	; 1
    56d0:	c5 5e       	subi	r28, 0xE5	; 229
    56d2:	de 4f       	sbci	r29, 0xFE	; 254
    56d4:	18 81       	ld	r17, Y
    56d6:	cb 51       	subi	r28, 0x1B	; 27
    56d8:	d1 40       	sbci	r29, 0x01	; 1
    56da:	c4 5e       	subi	r28, 0xE4	; 228
    56dc:	de 4f       	sbci	r29, 0xFE	; 254
    56de:	28 81       	ld	r18, Y
    56e0:	cc 51       	subi	r28, 0x1C	; 28
    56e2:	d1 40       	sbci	r29, 0x01	; 1
    56e4:	c3 5e       	subi	r28, 0xE3	; 227
    56e6:	de 4f       	sbci	r29, 0xFE	; 254
    56e8:	38 81       	ld	r19, Y
    56ea:	cd 51       	subi	r28, 0x1D	; 29
    56ec:	d1 40       	sbci	r29, 0x01	; 1
    56ee:	c2 5e       	subi	r28, 0xE2	; 226
    56f0:	de 4f       	sbci	r29, 0xFE	; 254
    56f2:	48 81       	ld	r20, Y
    56f4:	ce 51       	subi	r28, 0x1E	; 30
    56f6:	d1 40       	sbci	r29, 0x01	; 1
    56f8:	c1 5e       	subi	r28, 0xE1	; 225
    56fa:	de 4f       	sbci	r29, 0xFE	; 254
    56fc:	58 81       	ld	r21, Y
    56fe:	cf 51       	subi	r28, 0x1F	; 31
    5700:	d1 40       	sbci	r29, 0x01	; 1
    5702:	c0 5e       	subi	r28, 0xE0	; 224
    5704:	de 4f       	sbci	r29, 0xFE	; 254
    5706:	68 81       	ld	r22, Y
    5708:	c0 52       	subi	r28, 0x20	; 32
    570a:	d1 40       	sbci	r29, 0x01	; 1
    570c:	cf 5d       	subi	r28, 0xDF	; 223
    570e:	de 4f       	sbci	r29, 0xFE	; 254
    5710:	78 81       	ld	r23, Y
    5712:	c1 52       	subi	r28, 0x21	; 33
    5714:	d1 40       	sbci	r29, 0x01	; 1
    5716:	ce 5d       	subi	r28, 0xDE	; 222
    5718:	de 4f       	sbci	r29, 0xFE	; 254
    571a:	88 81       	ld	r24, Y
    571c:	c2 52       	subi	r28, 0x22	; 34
    571e:	d1 40       	sbci	r29, 0x01	; 1
    5720:	cd 5d       	subi	r28, 0xDD	; 221
    5722:	de 4f       	sbci	r29, 0xFE	; 254
    5724:	98 81       	ld	r25, Y
    5726:	c3 52       	subi	r28, 0x23	; 35
    5728:	d1 40       	sbci	r29, 0x01	; 1
    572a:	0e 94 28 16 	call	0x2c50	; 0x2c50 <playQuestionMedium>
				break;
    572e:	22 c3       	rjmp	.+1604   	; 0x5d74 <__stack+0x1c75>
				case 6:
				playQuestionMedium(m6);
    5730:	cc 5d       	subi	r28, 0xDC	; 220
    5732:	de 4f       	sbci	r29, 0xFE	; 254
    5734:	08 81       	ld	r16, Y
    5736:	c4 52       	subi	r28, 0x24	; 36
    5738:	d1 40       	sbci	r29, 0x01	; 1
    573a:	cb 5d       	subi	r28, 0xDB	; 219
    573c:	de 4f       	sbci	r29, 0xFE	; 254
    573e:	18 81       	ld	r17, Y
    5740:	c5 52       	subi	r28, 0x25	; 37
    5742:	d1 40       	sbci	r29, 0x01	; 1
    5744:	ca 5d       	subi	r28, 0xDA	; 218
    5746:	de 4f       	sbci	r29, 0xFE	; 254
    5748:	28 81       	ld	r18, Y
    574a:	c6 52       	subi	r28, 0x26	; 38
    574c:	d1 40       	sbci	r29, 0x01	; 1
    574e:	c9 5d       	subi	r28, 0xD9	; 217
    5750:	de 4f       	sbci	r29, 0xFE	; 254
    5752:	38 81       	ld	r19, Y
    5754:	c7 52       	subi	r28, 0x27	; 39
    5756:	d1 40       	sbci	r29, 0x01	; 1
    5758:	c8 5d       	subi	r28, 0xD8	; 216
    575a:	de 4f       	sbci	r29, 0xFE	; 254
    575c:	48 81       	ld	r20, Y
    575e:	c8 52       	subi	r28, 0x28	; 40
    5760:	d1 40       	sbci	r29, 0x01	; 1
    5762:	c7 5d       	subi	r28, 0xD7	; 215
    5764:	de 4f       	sbci	r29, 0xFE	; 254
    5766:	58 81       	ld	r21, Y
    5768:	c9 52       	subi	r28, 0x29	; 41
    576a:	d1 40       	sbci	r29, 0x01	; 1
    576c:	c6 5d       	subi	r28, 0xD6	; 214
    576e:	de 4f       	sbci	r29, 0xFE	; 254
    5770:	68 81       	ld	r22, Y
    5772:	ca 52       	subi	r28, 0x2A	; 42
    5774:	d1 40       	sbci	r29, 0x01	; 1
    5776:	c5 5d       	subi	r28, 0xD5	; 213
    5778:	de 4f       	sbci	r29, 0xFE	; 254
    577a:	78 81       	ld	r23, Y
    577c:	cb 52       	subi	r28, 0x2B	; 43
    577e:	d1 40       	sbci	r29, 0x01	; 1
    5780:	c4 5d       	subi	r28, 0xD4	; 212
    5782:	de 4f       	sbci	r29, 0xFE	; 254
    5784:	88 81       	ld	r24, Y
    5786:	cc 52       	subi	r28, 0x2C	; 44
    5788:	d1 40       	sbci	r29, 0x01	; 1
    578a:	c3 5d       	subi	r28, 0xD3	; 211
    578c:	de 4f       	sbci	r29, 0xFE	; 254
    578e:	98 81       	ld	r25, Y
    5790:	cd 52       	subi	r28, 0x2D	; 45
    5792:	d1 40       	sbci	r29, 0x01	; 1
    5794:	0e 94 28 16 	call	0x2c50	; 0x2c50 <playQuestionMedium>
				break;
    5798:	ed c2       	rjmp	.+1498   	; 0x5d74 <__stack+0x1c75>
				case 7:
				playQuestionMedium(m7);
    579a:	c2 5d       	subi	r28, 0xD2	; 210
    579c:	de 4f       	sbci	r29, 0xFE	; 254
    579e:	08 81       	ld	r16, Y
    57a0:	ce 52       	subi	r28, 0x2E	; 46
    57a2:	d1 40       	sbci	r29, 0x01	; 1
    57a4:	c1 5d       	subi	r28, 0xD1	; 209
    57a6:	de 4f       	sbci	r29, 0xFE	; 254
    57a8:	18 81       	ld	r17, Y
    57aa:	cf 52       	subi	r28, 0x2F	; 47
    57ac:	d1 40       	sbci	r29, 0x01	; 1
    57ae:	c0 5d       	subi	r28, 0xD0	; 208
    57b0:	de 4f       	sbci	r29, 0xFE	; 254
    57b2:	28 81       	ld	r18, Y
    57b4:	c0 53       	subi	r28, 0x30	; 48
    57b6:	d1 40       	sbci	r29, 0x01	; 1
    57b8:	cf 5c       	subi	r28, 0xCF	; 207
    57ba:	de 4f       	sbci	r29, 0xFE	; 254
    57bc:	38 81       	ld	r19, Y
    57be:	c1 53       	subi	r28, 0x31	; 49
    57c0:	d1 40       	sbci	r29, 0x01	; 1
    57c2:	ce 5c       	subi	r28, 0xCE	; 206
    57c4:	de 4f       	sbci	r29, 0xFE	; 254
    57c6:	48 81       	ld	r20, Y
    57c8:	c2 53       	subi	r28, 0x32	; 50
    57ca:	d1 40       	sbci	r29, 0x01	; 1
    57cc:	cd 5c       	subi	r28, 0xCD	; 205
    57ce:	de 4f       	sbci	r29, 0xFE	; 254
    57d0:	58 81       	ld	r21, Y
    57d2:	c3 53       	subi	r28, 0x33	; 51
    57d4:	d1 40       	sbci	r29, 0x01	; 1
    57d6:	cc 5c       	subi	r28, 0xCC	; 204
    57d8:	de 4f       	sbci	r29, 0xFE	; 254
    57da:	68 81       	ld	r22, Y
    57dc:	c4 53       	subi	r28, 0x34	; 52
    57de:	d1 40       	sbci	r29, 0x01	; 1
    57e0:	cb 5c       	subi	r28, 0xCB	; 203
    57e2:	de 4f       	sbci	r29, 0xFE	; 254
    57e4:	78 81       	ld	r23, Y
    57e6:	c5 53       	subi	r28, 0x35	; 53
    57e8:	d1 40       	sbci	r29, 0x01	; 1
    57ea:	ca 5c       	subi	r28, 0xCA	; 202
    57ec:	de 4f       	sbci	r29, 0xFE	; 254
    57ee:	88 81       	ld	r24, Y
    57f0:	c6 53       	subi	r28, 0x36	; 54
    57f2:	d1 40       	sbci	r29, 0x01	; 1
    57f4:	c9 5c       	subi	r28, 0xC9	; 201
    57f6:	de 4f       	sbci	r29, 0xFE	; 254
    57f8:	98 81       	ld	r25, Y
    57fa:	c7 53       	subi	r28, 0x37	; 55
    57fc:	d1 40       	sbci	r29, 0x01	; 1
    57fe:	0e 94 28 16 	call	0x2c50	; 0x2c50 <playQuestionMedium>
				break;
    5802:	b8 c2       	rjmp	.+1392   	; 0x5d74 <__stack+0x1c75>
				case 8:
				playQuestionMedium(m8);
    5804:	c8 5c       	subi	r28, 0xC8	; 200
    5806:	de 4f       	sbci	r29, 0xFE	; 254
    5808:	08 81       	ld	r16, Y
    580a:	c8 53       	subi	r28, 0x38	; 56
    580c:	d1 40       	sbci	r29, 0x01	; 1
    580e:	c7 5c       	subi	r28, 0xC7	; 199
    5810:	de 4f       	sbci	r29, 0xFE	; 254
    5812:	18 81       	ld	r17, Y
    5814:	c9 53       	subi	r28, 0x39	; 57
    5816:	d1 40       	sbci	r29, 0x01	; 1
    5818:	c6 5c       	subi	r28, 0xC6	; 198
    581a:	de 4f       	sbci	r29, 0xFE	; 254
    581c:	28 81       	ld	r18, Y
    581e:	ca 53       	subi	r28, 0x3A	; 58
    5820:	d1 40       	sbci	r29, 0x01	; 1
    5822:	c5 5c       	subi	r28, 0xC5	; 197
    5824:	de 4f       	sbci	r29, 0xFE	; 254
    5826:	38 81       	ld	r19, Y
    5828:	cb 53       	subi	r28, 0x3B	; 59
    582a:	d1 40       	sbci	r29, 0x01	; 1
    582c:	c4 5c       	subi	r28, 0xC4	; 196
    582e:	de 4f       	sbci	r29, 0xFE	; 254
    5830:	48 81       	ld	r20, Y
    5832:	cc 53       	subi	r28, 0x3C	; 60
    5834:	d1 40       	sbci	r29, 0x01	; 1
    5836:	c3 5c       	subi	r28, 0xC3	; 195
    5838:	de 4f       	sbci	r29, 0xFE	; 254
    583a:	58 81       	ld	r21, Y
    583c:	cd 53       	subi	r28, 0x3D	; 61
    583e:	d1 40       	sbci	r29, 0x01	; 1
    5840:	c2 5c       	subi	r28, 0xC2	; 194
    5842:	de 4f       	sbci	r29, 0xFE	; 254
    5844:	68 81       	ld	r22, Y
    5846:	ce 53       	subi	r28, 0x3E	; 62
    5848:	d1 40       	sbci	r29, 0x01	; 1
    584a:	c1 5c       	subi	r28, 0xC1	; 193
    584c:	de 4f       	sbci	r29, 0xFE	; 254
    584e:	78 81       	ld	r23, Y
    5850:	cf 53       	subi	r28, 0x3F	; 63
    5852:	d1 40       	sbci	r29, 0x01	; 1
    5854:	c0 5c       	subi	r28, 0xC0	; 192
    5856:	de 4f       	sbci	r29, 0xFE	; 254
    5858:	88 81       	ld	r24, Y
    585a:	c0 54       	subi	r28, 0x40	; 64
    585c:	d1 40       	sbci	r29, 0x01	; 1
    585e:	cf 5b       	subi	r28, 0xBF	; 191
    5860:	de 4f       	sbci	r29, 0xFE	; 254
    5862:	98 81       	ld	r25, Y
    5864:	c1 54       	subi	r28, 0x41	; 65
    5866:	d1 40       	sbci	r29, 0x01	; 1
    5868:	0e 94 28 16 	call	0x2c50	; 0x2c50 <playQuestionMedium>
				break;
    586c:	83 c2       	rjmp	.+1286   	; 0x5d74 <__stack+0x1c75>
				case 9:
				playQuestionMedium(m9);
    586e:	ce 5b       	subi	r28, 0xBE	; 190
    5870:	de 4f       	sbci	r29, 0xFE	; 254
    5872:	08 81       	ld	r16, Y
    5874:	c2 54       	subi	r28, 0x42	; 66
    5876:	d1 40       	sbci	r29, 0x01	; 1
    5878:	cd 5b       	subi	r28, 0xBD	; 189
    587a:	de 4f       	sbci	r29, 0xFE	; 254
    587c:	18 81       	ld	r17, Y
    587e:	c3 54       	subi	r28, 0x43	; 67
    5880:	d1 40       	sbci	r29, 0x01	; 1
    5882:	cc 5b       	subi	r28, 0xBC	; 188
    5884:	de 4f       	sbci	r29, 0xFE	; 254
    5886:	28 81       	ld	r18, Y
    5888:	c4 54       	subi	r28, 0x44	; 68
    588a:	d1 40       	sbci	r29, 0x01	; 1
    588c:	cb 5b       	subi	r28, 0xBB	; 187
    588e:	de 4f       	sbci	r29, 0xFE	; 254
    5890:	38 81       	ld	r19, Y
    5892:	c5 54       	subi	r28, 0x45	; 69
    5894:	d1 40       	sbci	r29, 0x01	; 1
    5896:	ca 5b       	subi	r28, 0xBA	; 186
    5898:	de 4f       	sbci	r29, 0xFE	; 254
    589a:	48 81       	ld	r20, Y
    589c:	c6 54       	subi	r28, 0x46	; 70
    589e:	d1 40       	sbci	r29, 0x01	; 1
    58a0:	c9 5b       	subi	r28, 0xB9	; 185
    58a2:	de 4f       	sbci	r29, 0xFE	; 254
    58a4:	58 81       	ld	r21, Y
    58a6:	c7 54       	subi	r28, 0x47	; 71
    58a8:	d1 40       	sbci	r29, 0x01	; 1
    58aa:	c8 5b       	subi	r28, 0xB8	; 184
    58ac:	de 4f       	sbci	r29, 0xFE	; 254
    58ae:	68 81       	ld	r22, Y
    58b0:	c8 54       	subi	r28, 0x48	; 72
    58b2:	d1 40       	sbci	r29, 0x01	; 1
    58b4:	c7 5b       	subi	r28, 0xB7	; 183
    58b6:	de 4f       	sbci	r29, 0xFE	; 254
    58b8:	78 81       	ld	r23, Y
    58ba:	c9 54       	subi	r28, 0x49	; 73
    58bc:	d1 40       	sbci	r29, 0x01	; 1
    58be:	c6 5b       	subi	r28, 0xB6	; 182
    58c0:	de 4f       	sbci	r29, 0xFE	; 254
    58c2:	88 81       	ld	r24, Y
    58c4:	ca 54       	subi	r28, 0x4A	; 74
    58c6:	d1 40       	sbci	r29, 0x01	; 1
    58c8:	c5 5b       	subi	r28, 0xB5	; 181
    58ca:	de 4f       	sbci	r29, 0xFE	; 254
    58cc:	98 81       	ld	r25, Y
    58ce:	cb 54       	subi	r28, 0x4B	; 75
    58d0:	d1 40       	sbci	r29, 0x01	; 1
    58d2:	0e 94 28 16 	call	0x2c50	; 0x2c50 <playQuestionMedium>
				break;
    58d6:	4e c2       	rjmp	.+1180   	; 0x5d74 <__stack+0x1c75>
				case 10:
				playQuestionMedium(m10);
    58d8:	c4 5b       	subi	r28, 0xB4	; 180
    58da:	de 4f       	sbci	r29, 0xFE	; 254
    58dc:	08 81       	ld	r16, Y
    58de:	cc 54       	subi	r28, 0x4C	; 76
    58e0:	d1 40       	sbci	r29, 0x01	; 1
    58e2:	c3 5b       	subi	r28, 0xB3	; 179
    58e4:	de 4f       	sbci	r29, 0xFE	; 254
    58e6:	18 81       	ld	r17, Y
    58e8:	cd 54       	subi	r28, 0x4D	; 77
    58ea:	d1 40       	sbci	r29, 0x01	; 1
    58ec:	c2 5b       	subi	r28, 0xB2	; 178
    58ee:	de 4f       	sbci	r29, 0xFE	; 254
    58f0:	28 81       	ld	r18, Y
    58f2:	ce 54       	subi	r28, 0x4E	; 78
    58f4:	d1 40       	sbci	r29, 0x01	; 1
    58f6:	c1 5b       	subi	r28, 0xB1	; 177
    58f8:	de 4f       	sbci	r29, 0xFE	; 254
    58fa:	38 81       	ld	r19, Y
    58fc:	cf 54       	subi	r28, 0x4F	; 79
    58fe:	d1 40       	sbci	r29, 0x01	; 1
    5900:	c0 5b       	subi	r28, 0xB0	; 176
    5902:	de 4f       	sbci	r29, 0xFE	; 254
    5904:	48 81       	ld	r20, Y
    5906:	c0 55       	subi	r28, 0x50	; 80
    5908:	d1 40       	sbci	r29, 0x01	; 1
    590a:	cf 5a       	subi	r28, 0xAF	; 175
    590c:	de 4f       	sbci	r29, 0xFE	; 254
    590e:	58 81       	ld	r21, Y
    5910:	c1 55       	subi	r28, 0x51	; 81
    5912:	d1 40       	sbci	r29, 0x01	; 1
    5914:	ce 5a       	subi	r28, 0xAE	; 174
    5916:	de 4f       	sbci	r29, 0xFE	; 254
    5918:	68 81       	ld	r22, Y
    591a:	c2 55       	subi	r28, 0x52	; 82
    591c:	d1 40       	sbci	r29, 0x01	; 1
    591e:	cd 5a       	subi	r28, 0xAD	; 173
    5920:	de 4f       	sbci	r29, 0xFE	; 254
    5922:	78 81       	ld	r23, Y
    5924:	c3 55       	subi	r28, 0x53	; 83
    5926:	d1 40       	sbci	r29, 0x01	; 1
    5928:	cc 5a       	subi	r28, 0xAC	; 172
    592a:	de 4f       	sbci	r29, 0xFE	; 254
    592c:	88 81       	ld	r24, Y
    592e:	c4 55       	subi	r28, 0x54	; 84
    5930:	d1 40       	sbci	r29, 0x01	; 1
    5932:	cb 5a       	subi	r28, 0xAB	; 171
    5934:	de 4f       	sbci	r29, 0xFE	; 254
    5936:	98 81       	ld	r25, Y
    5938:	c5 55       	subi	r28, 0x55	; 85
    593a:	d1 40       	sbci	r29, 0x01	; 1
    593c:	0e 94 28 16 	call	0x2c50	; 0x2c50 <playQuestionMedium>
				break;
    5940:	19 c2       	rjmp	.+1074   	; 0x5d74 <__stack+0x1c75>
				case 11:
				playQuestionMedium(m11);
    5942:	ca 5a       	subi	r28, 0xAA	; 170
    5944:	de 4f       	sbci	r29, 0xFE	; 254
    5946:	08 81       	ld	r16, Y
    5948:	c6 55       	subi	r28, 0x56	; 86
    594a:	d1 40       	sbci	r29, 0x01	; 1
    594c:	c9 5a       	subi	r28, 0xA9	; 169
    594e:	de 4f       	sbci	r29, 0xFE	; 254
    5950:	18 81       	ld	r17, Y
    5952:	c7 55       	subi	r28, 0x57	; 87
    5954:	d1 40       	sbci	r29, 0x01	; 1
    5956:	c8 5a       	subi	r28, 0xA8	; 168
    5958:	de 4f       	sbci	r29, 0xFE	; 254
    595a:	28 81       	ld	r18, Y
    595c:	c8 55       	subi	r28, 0x58	; 88
    595e:	d1 40       	sbci	r29, 0x01	; 1
    5960:	c7 5a       	subi	r28, 0xA7	; 167
    5962:	de 4f       	sbci	r29, 0xFE	; 254
    5964:	38 81       	ld	r19, Y
    5966:	c9 55       	subi	r28, 0x59	; 89
    5968:	d1 40       	sbci	r29, 0x01	; 1
    596a:	c6 5a       	subi	r28, 0xA6	; 166
    596c:	de 4f       	sbci	r29, 0xFE	; 254
    596e:	48 81       	ld	r20, Y
    5970:	ca 55       	subi	r28, 0x5A	; 90
    5972:	d1 40       	sbci	r29, 0x01	; 1
    5974:	c5 5a       	subi	r28, 0xA5	; 165
    5976:	de 4f       	sbci	r29, 0xFE	; 254
    5978:	58 81       	ld	r21, Y
    597a:	cb 55       	subi	r28, 0x5B	; 91
    597c:	d1 40       	sbci	r29, 0x01	; 1
    597e:	c4 5a       	subi	r28, 0xA4	; 164
    5980:	de 4f       	sbci	r29, 0xFE	; 254
    5982:	68 81       	ld	r22, Y
    5984:	cc 55       	subi	r28, 0x5C	; 92
    5986:	d1 40       	sbci	r29, 0x01	; 1
    5988:	c3 5a       	subi	r28, 0xA3	; 163
    598a:	de 4f       	sbci	r29, 0xFE	; 254
    598c:	78 81       	ld	r23, Y
    598e:	cd 55       	subi	r28, 0x5D	; 93
    5990:	d1 40       	sbci	r29, 0x01	; 1
    5992:	c2 5a       	subi	r28, 0xA2	; 162
    5994:	de 4f       	sbci	r29, 0xFE	; 254
    5996:	88 81       	ld	r24, Y
    5998:	ce 55       	subi	r28, 0x5E	; 94
    599a:	d1 40       	sbci	r29, 0x01	; 1
    599c:	c1 5a       	subi	r28, 0xA1	; 161
    599e:	de 4f       	sbci	r29, 0xFE	; 254
    59a0:	98 81       	ld	r25, Y
    59a2:	cf 55       	subi	r28, 0x5F	; 95
    59a4:	d1 40       	sbci	r29, 0x01	; 1
    59a6:	0e 94 28 16 	call	0x2c50	; 0x2c50 <playQuestionMedium>
				break;
    59aa:	e4 c1       	rjmp	.+968    	; 0x5d74 <__stack+0x1c75>
				case 12:
				playQuestionMedium(m12);
    59ac:	c0 5a       	subi	r28, 0xA0	; 160
    59ae:	de 4f       	sbci	r29, 0xFE	; 254
    59b0:	08 81       	ld	r16, Y
    59b2:	c0 56       	subi	r28, 0x60	; 96
    59b4:	d1 40       	sbci	r29, 0x01	; 1
    59b6:	cf 59       	subi	r28, 0x9F	; 159
    59b8:	de 4f       	sbci	r29, 0xFE	; 254
    59ba:	18 81       	ld	r17, Y
    59bc:	c1 56       	subi	r28, 0x61	; 97
    59be:	d1 40       	sbci	r29, 0x01	; 1
    59c0:	ce 59       	subi	r28, 0x9E	; 158
    59c2:	de 4f       	sbci	r29, 0xFE	; 254
    59c4:	28 81       	ld	r18, Y
    59c6:	c2 56       	subi	r28, 0x62	; 98
    59c8:	d1 40       	sbci	r29, 0x01	; 1
    59ca:	cd 59       	subi	r28, 0x9D	; 157
    59cc:	de 4f       	sbci	r29, 0xFE	; 254
    59ce:	38 81       	ld	r19, Y
    59d0:	c3 56       	subi	r28, 0x63	; 99
    59d2:	d1 40       	sbci	r29, 0x01	; 1
    59d4:	cc 59       	subi	r28, 0x9C	; 156
    59d6:	de 4f       	sbci	r29, 0xFE	; 254
    59d8:	48 81       	ld	r20, Y
    59da:	c4 56       	subi	r28, 0x64	; 100
    59dc:	d1 40       	sbci	r29, 0x01	; 1
    59de:	cb 59       	subi	r28, 0x9B	; 155
    59e0:	de 4f       	sbci	r29, 0xFE	; 254
    59e2:	58 81       	ld	r21, Y
    59e4:	c5 56       	subi	r28, 0x65	; 101
    59e6:	d1 40       	sbci	r29, 0x01	; 1
    59e8:	ca 59       	subi	r28, 0x9A	; 154
    59ea:	de 4f       	sbci	r29, 0xFE	; 254
    59ec:	68 81       	ld	r22, Y
    59ee:	c6 56       	subi	r28, 0x66	; 102
    59f0:	d1 40       	sbci	r29, 0x01	; 1
    59f2:	c9 59       	subi	r28, 0x99	; 153
    59f4:	de 4f       	sbci	r29, 0xFE	; 254
    59f6:	78 81       	ld	r23, Y
    59f8:	c7 56       	subi	r28, 0x67	; 103
    59fa:	d1 40       	sbci	r29, 0x01	; 1
    59fc:	c8 59       	subi	r28, 0x98	; 152
    59fe:	de 4f       	sbci	r29, 0xFE	; 254
    5a00:	88 81       	ld	r24, Y
    5a02:	c8 56       	subi	r28, 0x68	; 104
    5a04:	d1 40       	sbci	r29, 0x01	; 1
    5a06:	c7 59       	subi	r28, 0x97	; 151
    5a08:	de 4f       	sbci	r29, 0xFE	; 254
    5a0a:	98 81       	ld	r25, Y
    5a0c:	c9 56       	subi	r28, 0x69	; 105
    5a0e:	d1 40       	sbci	r29, 0x01	; 1
    5a10:	0e 94 28 16 	call	0x2c50	; 0x2c50 <playQuestionMedium>
				break;
    5a14:	af c1       	rjmp	.+862    	; 0x5d74 <__stack+0x1c75>
				case 13:
				playQuestionMedium(m13);
    5a16:	c6 59       	subi	r28, 0x96	; 150
    5a18:	de 4f       	sbci	r29, 0xFE	; 254
    5a1a:	08 81       	ld	r16, Y
    5a1c:	ca 56       	subi	r28, 0x6A	; 106
    5a1e:	d1 40       	sbci	r29, 0x01	; 1
    5a20:	c5 59       	subi	r28, 0x95	; 149
    5a22:	de 4f       	sbci	r29, 0xFE	; 254
    5a24:	18 81       	ld	r17, Y
    5a26:	cb 56       	subi	r28, 0x6B	; 107
    5a28:	d1 40       	sbci	r29, 0x01	; 1
    5a2a:	c4 59       	subi	r28, 0x94	; 148
    5a2c:	de 4f       	sbci	r29, 0xFE	; 254
    5a2e:	28 81       	ld	r18, Y
    5a30:	cc 56       	subi	r28, 0x6C	; 108
    5a32:	d1 40       	sbci	r29, 0x01	; 1
    5a34:	c3 59       	subi	r28, 0x93	; 147
    5a36:	de 4f       	sbci	r29, 0xFE	; 254
    5a38:	38 81       	ld	r19, Y
    5a3a:	cd 56       	subi	r28, 0x6D	; 109
    5a3c:	d1 40       	sbci	r29, 0x01	; 1
    5a3e:	c2 59       	subi	r28, 0x92	; 146
    5a40:	de 4f       	sbci	r29, 0xFE	; 254
    5a42:	48 81       	ld	r20, Y
    5a44:	ce 56       	subi	r28, 0x6E	; 110
    5a46:	d1 40       	sbci	r29, 0x01	; 1
    5a48:	c1 59       	subi	r28, 0x91	; 145
    5a4a:	de 4f       	sbci	r29, 0xFE	; 254
    5a4c:	58 81       	ld	r21, Y
    5a4e:	cf 56       	subi	r28, 0x6F	; 111
    5a50:	d1 40       	sbci	r29, 0x01	; 1
    5a52:	c0 59       	subi	r28, 0x90	; 144
    5a54:	de 4f       	sbci	r29, 0xFE	; 254
    5a56:	68 81       	ld	r22, Y
    5a58:	c0 57       	subi	r28, 0x70	; 112
    5a5a:	d1 40       	sbci	r29, 0x01	; 1
    5a5c:	cf 58       	subi	r28, 0x8F	; 143
    5a5e:	de 4f       	sbci	r29, 0xFE	; 254
    5a60:	78 81       	ld	r23, Y
    5a62:	c1 57       	subi	r28, 0x71	; 113
    5a64:	d1 40       	sbci	r29, 0x01	; 1
    5a66:	ce 58       	subi	r28, 0x8E	; 142
    5a68:	de 4f       	sbci	r29, 0xFE	; 254
    5a6a:	88 81       	ld	r24, Y
    5a6c:	c2 57       	subi	r28, 0x72	; 114
    5a6e:	d1 40       	sbci	r29, 0x01	; 1
    5a70:	cd 58       	subi	r28, 0x8D	; 141
    5a72:	de 4f       	sbci	r29, 0xFE	; 254
    5a74:	98 81       	ld	r25, Y
    5a76:	c3 57       	subi	r28, 0x73	; 115
    5a78:	d1 40       	sbci	r29, 0x01	; 1
    5a7a:	0e 94 28 16 	call	0x2c50	; 0x2c50 <playQuestionMedium>
				break;
    5a7e:	7a c1       	rjmp	.+756    	; 0x5d74 <__stack+0x1c75>
				case 14:
				playQuestionMedium(m14);
    5a80:	cc 58       	subi	r28, 0x8C	; 140
    5a82:	de 4f       	sbci	r29, 0xFE	; 254
    5a84:	08 81       	ld	r16, Y
    5a86:	c4 57       	subi	r28, 0x74	; 116
    5a88:	d1 40       	sbci	r29, 0x01	; 1
    5a8a:	cb 58       	subi	r28, 0x8B	; 139
    5a8c:	de 4f       	sbci	r29, 0xFE	; 254
    5a8e:	18 81       	ld	r17, Y
    5a90:	c5 57       	subi	r28, 0x75	; 117
    5a92:	d1 40       	sbci	r29, 0x01	; 1
    5a94:	ca 58       	subi	r28, 0x8A	; 138
    5a96:	de 4f       	sbci	r29, 0xFE	; 254
    5a98:	28 81       	ld	r18, Y
    5a9a:	c6 57       	subi	r28, 0x76	; 118
    5a9c:	d1 40       	sbci	r29, 0x01	; 1
    5a9e:	c9 58       	subi	r28, 0x89	; 137
    5aa0:	de 4f       	sbci	r29, 0xFE	; 254
    5aa2:	38 81       	ld	r19, Y
    5aa4:	c7 57       	subi	r28, 0x77	; 119
    5aa6:	d1 40       	sbci	r29, 0x01	; 1
    5aa8:	c8 58       	subi	r28, 0x88	; 136
    5aaa:	de 4f       	sbci	r29, 0xFE	; 254
    5aac:	48 81       	ld	r20, Y
    5aae:	c8 57       	subi	r28, 0x78	; 120
    5ab0:	d1 40       	sbci	r29, 0x01	; 1
    5ab2:	c7 58       	subi	r28, 0x87	; 135
    5ab4:	de 4f       	sbci	r29, 0xFE	; 254
    5ab6:	58 81       	ld	r21, Y
    5ab8:	c9 57       	subi	r28, 0x79	; 121
    5aba:	d1 40       	sbci	r29, 0x01	; 1
    5abc:	c6 58       	subi	r28, 0x86	; 134
    5abe:	de 4f       	sbci	r29, 0xFE	; 254
    5ac0:	68 81       	ld	r22, Y
    5ac2:	ca 57       	subi	r28, 0x7A	; 122
    5ac4:	d1 40       	sbci	r29, 0x01	; 1
    5ac6:	c5 58       	subi	r28, 0x85	; 133
    5ac8:	de 4f       	sbci	r29, 0xFE	; 254
    5aca:	78 81       	ld	r23, Y
    5acc:	cb 57       	subi	r28, 0x7B	; 123
    5ace:	d1 40       	sbci	r29, 0x01	; 1
    5ad0:	c4 58       	subi	r28, 0x84	; 132
    5ad2:	de 4f       	sbci	r29, 0xFE	; 254
    5ad4:	88 81       	ld	r24, Y
    5ad6:	cc 57       	subi	r28, 0x7C	; 124
    5ad8:	d1 40       	sbci	r29, 0x01	; 1
    5ada:	c3 58       	subi	r28, 0x83	; 131
    5adc:	de 4f       	sbci	r29, 0xFE	; 254
    5ade:	98 81       	ld	r25, Y
    5ae0:	cd 57       	subi	r28, 0x7D	; 125
    5ae2:	d1 40       	sbci	r29, 0x01	; 1
    5ae4:	0e 94 28 16 	call	0x2c50	; 0x2c50 <playQuestionMedium>
				break;
    5ae8:	45 c1       	rjmp	.+650    	; 0x5d74 <__stack+0x1c75>
				case 15:
				playQuestionMedium(m15);
    5aea:	c2 58       	subi	r28, 0x82	; 130
    5aec:	de 4f       	sbci	r29, 0xFE	; 254
    5aee:	08 81       	ld	r16, Y
    5af0:	ce 57       	subi	r28, 0x7E	; 126
    5af2:	d1 40       	sbci	r29, 0x01	; 1
    5af4:	c1 58       	subi	r28, 0x81	; 129
    5af6:	de 4f       	sbci	r29, 0xFE	; 254
    5af8:	18 81       	ld	r17, Y
    5afa:	cf 57       	subi	r28, 0x7F	; 127
    5afc:	d1 40       	sbci	r29, 0x01	; 1
    5afe:	c0 58       	subi	r28, 0x80	; 128
    5b00:	de 4f       	sbci	r29, 0xFE	; 254
    5b02:	28 81       	ld	r18, Y
    5b04:	c0 58       	subi	r28, 0x80	; 128
    5b06:	d1 40       	sbci	r29, 0x01	; 1
    5b08:	cf 57       	subi	r28, 0x7F	; 127
    5b0a:	de 4f       	sbci	r29, 0xFE	; 254
    5b0c:	38 81       	ld	r19, Y
    5b0e:	c1 58       	subi	r28, 0x81	; 129
    5b10:	d1 40       	sbci	r29, 0x01	; 1
    5b12:	ce 57       	subi	r28, 0x7E	; 126
    5b14:	de 4f       	sbci	r29, 0xFE	; 254
    5b16:	48 81       	ld	r20, Y
    5b18:	c2 58       	subi	r28, 0x82	; 130
    5b1a:	d1 40       	sbci	r29, 0x01	; 1
    5b1c:	cd 57       	subi	r28, 0x7D	; 125
    5b1e:	de 4f       	sbci	r29, 0xFE	; 254
    5b20:	58 81       	ld	r21, Y
    5b22:	c3 58       	subi	r28, 0x83	; 131
    5b24:	d1 40       	sbci	r29, 0x01	; 1
    5b26:	cc 57       	subi	r28, 0x7C	; 124
    5b28:	de 4f       	sbci	r29, 0xFE	; 254
    5b2a:	68 81       	ld	r22, Y
    5b2c:	c4 58       	subi	r28, 0x84	; 132
    5b2e:	d1 40       	sbci	r29, 0x01	; 1
    5b30:	cb 57       	subi	r28, 0x7B	; 123
    5b32:	de 4f       	sbci	r29, 0xFE	; 254
    5b34:	78 81       	ld	r23, Y
    5b36:	c5 58       	subi	r28, 0x85	; 133
    5b38:	d1 40       	sbci	r29, 0x01	; 1
    5b3a:	ca 57       	subi	r28, 0x7A	; 122
    5b3c:	de 4f       	sbci	r29, 0xFE	; 254
    5b3e:	88 81       	ld	r24, Y
    5b40:	c6 58       	subi	r28, 0x86	; 134
    5b42:	d1 40       	sbci	r29, 0x01	; 1
    5b44:	c9 57       	subi	r28, 0x79	; 121
    5b46:	de 4f       	sbci	r29, 0xFE	; 254
    5b48:	98 81       	ld	r25, Y
    5b4a:	c7 58       	subi	r28, 0x87	; 135
    5b4c:	d1 40       	sbci	r29, 0x01	; 1
    5b4e:	0e 94 28 16 	call	0x2c50	; 0x2c50 <playQuestionMedium>
				break;
    5b52:	10 c1       	rjmp	.+544    	; 0x5d74 <__stack+0x1c75>
				case 16:
				playQuestionMedium(m16);
    5b54:	c8 57       	subi	r28, 0x78	; 120
    5b56:	de 4f       	sbci	r29, 0xFE	; 254
    5b58:	08 81       	ld	r16, Y
    5b5a:	c8 58       	subi	r28, 0x88	; 136
    5b5c:	d1 40       	sbci	r29, 0x01	; 1
    5b5e:	c7 57       	subi	r28, 0x77	; 119
    5b60:	de 4f       	sbci	r29, 0xFE	; 254
    5b62:	18 81       	ld	r17, Y
    5b64:	c9 58       	subi	r28, 0x89	; 137
    5b66:	d1 40       	sbci	r29, 0x01	; 1
    5b68:	c6 57       	subi	r28, 0x76	; 118
    5b6a:	de 4f       	sbci	r29, 0xFE	; 254
    5b6c:	28 81       	ld	r18, Y
    5b6e:	ca 58       	subi	r28, 0x8A	; 138
    5b70:	d1 40       	sbci	r29, 0x01	; 1
    5b72:	c5 57       	subi	r28, 0x75	; 117
    5b74:	de 4f       	sbci	r29, 0xFE	; 254
    5b76:	38 81       	ld	r19, Y
    5b78:	cb 58       	subi	r28, 0x8B	; 139
    5b7a:	d1 40       	sbci	r29, 0x01	; 1
    5b7c:	c4 57       	subi	r28, 0x74	; 116
    5b7e:	de 4f       	sbci	r29, 0xFE	; 254
    5b80:	48 81       	ld	r20, Y
    5b82:	cc 58       	subi	r28, 0x8C	; 140
    5b84:	d1 40       	sbci	r29, 0x01	; 1
    5b86:	c3 57       	subi	r28, 0x73	; 115
    5b88:	de 4f       	sbci	r29, 0xFE	; 254
    5b8a:	58 81       	ld	r21, Y
    5b8c:	cd 58       	subi	r28, 0x8D	; 141
    5b8e:	d1 40       	sbci	r29, 0x01	; 1
    5b90:	c2 57       	subi	r28, 0x72	; 114
    5b92:	de 4f       	sbci	r29, 0xFE	; 254
    5b94:	68 81       	ld	r22, Y
    5b96:	ce 58       	subi	r28, 0x8E	; 142
    5b98:	d1 40       	sbci	r29, 0x01	; 1
    5b9a:	c1 57       	subi	r28, 0x71	; 113
    5b9c:	de 4f       	sbci	r29, 0xFE	; 254
    5b9e:	78 81       	ld	r23, Y
    5ba0:	cf 58       	subi	r28, 0x8F	; 143
    5ba2:	d1 40       	sbci	r29, 0x01	; 1
    5ba4:	c0 57       	subi	r28, 0x70	; 112
    5ba6:	de 4f       	sbci	r29, 0xFE	; 254
    5ba8:	88 81       	ld	r24, Y
    5baa:	c0 59       	subi	r28, 0x90	; 144
    5bac:	d1 40       	sbci	r29, 0x01	; 1
    5bae:	cf 56       	subi	r28, 0x6F	; 111
    5bb0:	de 4f       	sbci	r29, 0xFE	; 254
    5bb2:	98 81       	ld	r25, Y
    5bb4:	c1 59       	subi	r28, 0x91	; 145
    5bb6:	d1 40       	sbci	r29, 0x01	; 1
    5bb8:	0e 94 28 16 	call	0x2c50	; 0x2c50 <playQuestionMedium>
				break;
    5bbc:	db c0       	rjmp	.+438    	; 0x5d74 <__stack+0x1c75>
				case 17:
				playQuestionMedium(m17);
    5bbe:	ce 56       	subi	r28, 0x6E	; 110
    5bc0:	de 4f       	sbci	r29, 0xFE	; 254
    5bc2:	08 81       	ld	r16, Y
    5bc4:	c2 59       	subi	r28, 0x92	; 146
    5bc6:	d1 40       	sbci	r29, 0x01	; 1
    5bc8:	cd 56       	subi	r28, 0x6D	; 109
    5bca:	de 4f       	sbci	r29, 0xFE	; 254
    5bcc:	18 81       	ld	r17, Y
    5bce:	c3 59       	subi	r28, 0x93	; 147
    5bd0:	d1 40       	sbci	r29, 0x01	; 1
    5bd2:	cc 56       	subi	r28, 0x6C	; 108
    5bd4:	de 4f       	sbci	r29, 0xFE	; 254
    5bd6:	28 81       	ld	r18, Y
    5bd8:	c4 59       	subi	r28, 0x94	; 148
    5bda:	d1 40       	sbci	r29, 0x01	; 1
    5bdc:	cb 56       	subi	r28, 0x6B	; 107
    5bde:	de 4f       	sbci	r29, 0xFE	; 254
    5be0:	38 81       	ld	r19, Y
    5be2:	c5 59       	subi	r28, 0x95	; 149
    5be4:	d1 40       	sbci	r29, 0x01	; 1
    5be6:	ca 56       	subi	r28, 0x6A	; 106
    5be8:	de 4f       	sbci	r29, 0xFE	; 254
    5bea:	48 81       	ld	r20, Y
    5bec:	c6 59       	subi	r28, 0x96	; 150
    5bee:	d1 40       	sbci	r29, 0x01	; 1
    5bf0:	c9 56       	subi	r28, 0x69	; 105
    5bf2:	de 4f       	sbci	r29, 0xFE	; 254
    5bf4:	58 81       	ld	r21, Y
    5bf6:	c7 59       	subi	r28, 0x97	; 151
    5bf8:	d1 40       	sbci	r29, 0x01	; 1
    5bfa:	c8 56       	subi	r28, 0x68	; 104
    5bfc:	de 4f       	sbci	r29, 0xFE	; 254
    5bfe:	68 81       	ld	r22, Y
    5c00:	c8 59       	subi	r28, 0x98	; 152
    5c02:	d1 40       	sbci	r29, 0x01	; 1
    5c04:	c7 56       	subi	r28, 0x67	; 103
    5c06:	de 4f       	sbci	r29, 0xFE	; 254
    5c08:	78 81       	ld	r23, Y
    5c0a:	c9 59       	subi	r28, 0x99	; 153
    5c0c:	d1 40       	sbci	r29, 0x01	; 1
    5c0e:	c6 56       	subi	r28, 0x66	; 102
    5c10:	de 4f       	sbci	r29, 0xFE	; 254
    5c12:	88 81       	ld	r24, Y
    5c14:	ca 59       	subi	r28, 0x9A	; 154
    5c16:	d1 40       	sbci	r29, 0x01	; 1
    5c18:	c5 56       	subi	r28, 0x65	; 101
    5c1a:	de 4f       	sbci	r29, 0xFE	; 254
    5c1c:	98 81       	ld	r25, Y
    5c1e:	cb 59       	subi	r28, 0x9B	; 155
    5c20:	d1 40       	sbci	r29, 0x01	; 1
    5c22:	0e 94 28 16 	call	0x2c50	; 0x2c50 <playQuestionMedium>
				break;
    5c26:	a6 c0       	rjmp	.+332    	; 0x5d74 <__stack+0x1c75>
				case 18:
				playQuestionMedium(m18);
    5c28:	c4 56       	subi	r28, 0x64	; 100
    5c2a:	de 4f       	sbci	r29, 0xFE	; 254
    5c2c:	08 81       	ld	r16, Y
    5c2e:	cc 59       	subi	r28, 0x9C	; 156
    5c30:	d1 40       	sbci	r29, 0x01	; 1
    5c32:	c3 56       	subi	r28, 0x63	; 99
    5c34:	de 4f       	sbci	r29, 0xFE	; 254
    5c36:	18 81       	ld	r17, Y
    5c38:	cd 59       	subi	r28, 0x9D	; 157
    5c3a:	d1 40       	sbci	r29, 0x01	; 1
    5c3c:	c2 56       	subi	r28, 0x62	; 98
    5c3e:	de 4f       	sbci	r29, 0xFE	; 254
    5c40:	28 81       	ld	r18, Y
    5c42:	ce 59       	subi	r28, 0x9E	; 158
    5c44:	d1 40       	sbci	r29, 0x01	; 1
    5c46:	c1 56       	subi	r28, 0x61	; 97
    5c48:	de 4f       	sbci	r29, 0xFE	; 254
    5c4a:	38 81       	ld	r19, Y
    5c4c:	cf 59       	subi	r28, 0x9F	; 159
    5c4e:	d1 40       	sbci	r29, 0x01	; 1
    5c50:	c0 56       	subi	r28, 0x60	; 96
    5c52:	de 4f       	sbci	r29, 0xFE	; 254
    5c54:	48 81       	ld	r20, Y
    5c56:	c0 5a       	subi	r28, 0xA0	; 160
    5c58:	d1 40       	sbci	r29, 0x01	; 1
    5c5a:	cf 55       	subi	r28, 0x5F	; 95
    5c5c:	de 4f       	sbci	r29, 0xFE	; 254
    5c5e:	58 81       	ld	r21, Y
    5c60:	c1 5a       	subi	r28, 0xA1	; 161
    5c62:	d1 40       	sbci	r29, 0x01	; 1
    5c64:	ce 55       	subi	r28, 0x5E	; 94
    5c66:	de 4f       	sbci	r29, 0xFE	; 254
    5c68:	68 81       	ld	r22, Y
    5c6a:	c2 5a       	subi	r28, 0xA2	; 162
    5c6c:	d1 40       	sbci	r29, 0x01	; 1
    5c6e:	cd 55       	subi	r28, 0x5D	; 93
    5c70:	de 4f       	sbci	r29, 0xFE	; 254
    5c72:	78 81       	ld	r23, Y
    5c74:	c3 5a       	subi	r28, 0xA3	; 163
    5c76:	d1 40       	sbci	r29, 0x01	; 1
    5c78:	cc 55       	subi	r28, 0x5C	; 92
    5c7a:	de 4f       	sbci	r29, 0xFE	; 254
    5c7c:	88 81       	ld	r24, Y
    5c7e:	c4 5a       	subi	r28, 0xA4	; 164
    5c80:	d1 40       	sbci	r29, 0x01	; 1
    5c82:	cb 55       	subi	r28, 0x5B	; 91
    5c84:	de 4f       	sbci	r29, 0xFE	; 254
    5c86:	98 81       	ld	r25, Y
    5c88:	c5 5a       	subi	r28, 0xA5	; 165
    5c8a:	d1 40       	sbci	r29, 0x01	; 1
    5c8c:	0e 94 28 16 	call	0x2c50	; 0x2c50 <playQuestionMedium>
				break;
    5c90:	71 c0       	rjmp	.+226    	; 0x5d74 <__stack+0x1c75>
				case 19:
				playQuestionMedium(m19);
    5c92:	ca 55       	subi	r28, 0x5A	; 90
    5c94:	de 4f       	sbci	r29, 0xFE	; 254
    5c96:	08 81       	ld	r16, Y
    5c98:	c6 5a       	subi	r28, 0xA6	; 166
    5c9a:	d1 40       	sbci	r29, 0x01	; 1
    5c9c:	c9 55       	subi	r28, 0x59	; 89
    5c9e:	de 4f       	sbci	r29, 0xFE	; 254
    5ca0:	18 81       	ld	r17, Y
    5ca2:	c7 5a       	subi	r28, 0xA7	; 167
    5ca4:	d1 40       	sbci	r29, 0x01	; 1
    5ca6:	c8 55       	subi	r28, 0x58	; 88
    5ca8:	de 4f       	sbci	r29, 0xFE	; 254
    5caa:	28 81       	ld	r18, Y
    5cac:	c8 5a       	subi	r28, 0xA8	; 168
    5cae:	d1 40       	sbci	r29, 0x01	; 1
    5cb0:	c7 55       	subi	r28, 0x57	; 87
    5cb2:	de 4f       	sbci	r29, 0xFE	; 254
    5cb4:	38 81       	ld	r19, Y
    5cb6:	c9 5a       	subi	r28, 0xA9	; 169
    5cb8:	d1 40       	sbci	r29, 0x01	; 1
    5cba:	c6 55       	subi	r28, 0x56	; 86
    5cbc:	de 4f       	sbci	r29, 0xFE	; 254
    5cbe:	48 81       	ld	r20, Y
    5cc0:	ca 5a       	subi	r28, 0xAA	; 170
    5cc2:	d1 40       	sbci	r29, 0x01	; 1
    5cc4:	c5 55       	subi	r28, 0x55	; 85
    5cc6:	de 4f       	sbci	r29, 0xFE	; 254
    5cc8:	58 81       	ld	r21, Y
    5cca:	cb 5a       	subi	r28, 0xAB	; 171
    5ccc:	d1 40       	sbci	r29, 0x01	; 1
    5cce:	c4 55       	subi	r28, 0x54	; 84
    5cd0:	de 4f       	sbci	r29, 0xFE	; 254
    5cd2:	68 81       	ld	r22, Y
    5cd4:	cc 5a       	subi	r28, 0xAC	; 172
    5cd6:	d1 40       	sbci	r29, 0x01	; 1
    5cd8:	c3 55       	subi	r28, 0x53	; 83
    5cda:	de 4f       	sbci	r29, 0xFE	; 254
    5cdc:	78 81       	ld	r23, Y
    5cde:	cd 5a       	subi	r28, 0xAD	; 173
    5ce0:	d1 40       	sbci	r29, 0x01	; 1
    5ce2:	c2 55       	subi	r28, 0x52	; 82
    5ce4:	de 4f       	sbci	r29, 0xFE	; 254
    5ce6:	88 81       	ld	r24, Y
    5ce8:	ce 5a       	subi	r28, 0xAE	; 174
    5cea:	d1 40       	sbci	r29, 0x01	; 1
    5cec:	c1 55       	subi	r28, 0x51	; 81
    5cee:	de 4f       	sbci	r29, 0xFE	; 254
    5cf0:	98 81       	ld	r25, Y
    5cf2:	cf 5a       	subi	r28, 0xAF	; 175
    5cf4:	d1 40       	sbci	r29, 0x01	; 1
    5cf6:	0e 94 28 16 	call	0x2c50	; 0x2c50 <playQuestionMedium>
				break;
    5cfa:	3c c0       	rjmp	.+120    	; 0x5d74 <__stack+0x1c75>
				case 20:
				playQuestionMedium(m20);
    5cfc:	c0 55       	subi	r28, 0x50	; 80
    5cfe:	de 4f       	sbci	r29, 0xFE	; 254
    5d00:	08 81       	ld	r16, Y
    5d02:	c0 5b       	subi	r28, 0xB0	; 176
    5d04:	d1 40       	sbci	r29, 0x01	; 1
    5d06:	cf 54       	subi	r28, 0x4F	; 79
    5d08:	de 4f       	sbci	r29, 0xFE	; 254
    5d0a:	18 81       	ld	r17, Y
    5d0c:	c1 5b       	subi	r28, 0xB1	; 177
    5d0e:	d1 40       	sbci	r29, 0x01	; 1
    5d10:	ce 54       	subi	r28, 0x4E	; 78
    5d12:	de 4f       	sbci	r29, 0xFE	; 254
    5d14:	28 81       	ld	r18, Y
    5d16:	c2 5b       	subi	r28, 0xB2	; 178
    5d18:	d1 40       	sbci	r29, 0x01	; 1
    5d1a:	cd 54       	subi	r28, 0x4D	; 77
    5d1c:	de 4f       	sbci	r29, 0xFE	; 254
    5d1e:	38 81       	ld	r19, Y
    5d20:	c3 5b       	subi	r28, 0xB3	; 179
    5d22:	d1 40       	sbci	r29, 0x01	; 1
    5d24:	cc 54       	subi	r28, 0x4C	; 76
    5d26:	de 4f       	sbci	r29, 0xFE	; 254
    5d28:	48 81       	ld	r20, Y
    5d2a:	c4 5b       	subi	r28, 0xB4	; 180
    5d2c:	d1 40       	sbci	r29, 0x01	; 1
    5d2e:	cb 54       	subi	r28, 0x4B	; 75
    5d30:	de 4f       	sbci	r29, 0xFE	; 254
    5d32:	58 81       	ld	r21, Y
    5d34:	c5 5b       	subi	r28, 0xB5	; 181
    5d36:	d1 40       	sbci	r29, 0x01	; 1
    5d38:	ca 54       	subi	r28, 0x4A	; 74
    5d3a:	de 4f       	sbci	r29, 0xFE	; 254
    5d3c:	68 81       	ld	r22, Y
    5d3e:	c6 5b       	subi	r28, 0xB6	; 182
    5d40:	d1 40       	sbci	r29, 0x01	; 1
    5d42:	c9 54       	subi	r28, 0x49	; 73
    5d44:	de 4f       	sbci	r29, 0xFE	; 254
    5d46:	78 81       	ld	r23, Y
    5d48:	c7 5b       	subi	r28, 0xB7	; 183
    5d4a:	d1 40       	sbci	r29, 0x01	; 1
    5d4c:	c8 54       	subi	r28, 0x48	; 72
    5d4e:	de 4f       	sbci	r29, 0xFE	; 254
    5d50:	88 81       	ld	r24, Y
    5d52:	c8 5b       	subi	r28, 0xB8	; 184
    5d54:	d1 40       	sbci	r29, 0x01	; 1
    5d56:	c7 54       	subi	r28, 0x47	; 71
    5d58:	de 4f       	sbci	r29, 0xFE	; 254
    5d5a:	98 81       	ld	r25, Y
    5d5c:	c9 5b       	subi	r28, 0xB9	; 185
    5d5e:	d1 40       	sbci	r29, 0x01	; 1
    5d60:	0e 94 28 16 	call	0x2c50	; 0x2c50 <playQuestionMedium>
				break;
    5d64:	07 c0       	rjmp	.+14     	; 0x5d74 <__stack+0x1c75>
			}
		}
		else{
			error();
    5d66:	0e 94 95 13 	call	0x272a	; 0x272a <error>
			inGame = 0;
    5d6a:	10 92 28 06 	sts	0x0628, r1	; 0x800628 <__data_end>
			inMenu = 1;
    5d6e:	81 e0       	ldi	r24, 0x01	; 1
    5d70:	80 93 04 01 	sts	0x0104, r24	; 0x800104 <inMenu>
	struct questionHard h18 = {"7","7","5","5","2",18};		//7/7+5/5=2																		
	struct questionHard h19 = {"3","2","6","1","13",19};	//3*2+6+1=13		
	struct questionHard h20 = {"4","5","2","2","8",20};		//4*5/2-2=8
			
	if(gameTime == 30 || gameTime == 60 || gameTime == 90)
	while(inGame){
    5d74:	80 91 28 06 	lds	r24, 0x0628	; 0x800628 <__data_end>
    5d78:	81 11       	cpse	r24, r1
    5d7a:	0c 94 8a 21 	jmp	0x4314	; 0x4314 <__stack+0x215>
    5d7e:	07 c0       	rjmp	.+14     	; 0x5d8e <__stack+0x1c8f>
			inGame = 0;
			inMenu = 1;
		}
	}
	else{
		error();
    5d80:	0e 94 95 13 	call	0x272a	; 0x272a <error>
		inGame = 0;
    5d84:	10 92 28 06 	sts	0x0628, r1	; 0x800628 <__data_end>
		inMenu = 1;
    5d88:	81 e0       	ldi	r24, 0x01	; 1
    5d8a:	80 93 04 01 	sts	0x0104, r24	; 0x800104 <inMenu>
	}
}
    5d8e:	cb 54       	subi	r28, 0x4B	; 75
    5d90:	dd 4f       	sbci	r29, 0xFD	; 253
    5d92:	0f b6       	in	r0, 0x3f	; 63
    5d94:	f8 94       	cli
    5d96:	de bf       	out	0x3e, r29	; 62
    5d98:	0f be       	out	0x3f, r0	; 63
    5d9a:	cd bf       	out	0x3d, r28	; 61
    5d9c:	df 91       	pop	r29
    5d9e:	cf 91       	pop	r28
    5da0:	1f 91       	pop	r17
    5da2:	0f 91       	pop	r16
    5da4:	ff 90       	pop	r15
    5da6:	ef 90       	pop	r14
    5da8:	08 95       	ret

00005daa <main>:

int main() {
	DDRA = 0x00; PORTA = 0xFF; // A input
    5daa:	11 b8       	out	0x01, r1	; 1
    5dac:	8f ef       	ldi	r24, 0xFF	; 255
    5dae:	82 b9       	out	0x02, r24	; 2
	DDRB = 0xFF; PORTB = 0x00; // B output
    5db0:	84 b9       	out	0x04, r24	; 4
    5db2:	15 b8       	out	0x05, r1	; 5
	DDRD = 0xFF; PORTD = 0x00; // LCD control lines (output)
    5db4:	8a b9       	out	0x0a, r24	; 10
    5db6:	1b b8       	out	0x0b, r1	; 11

	LCD_init();
    5db8:	0e 94 f0 01 	call	0x3e0	; 0x3e0 <LCD_init>
	nokia_lcd_init();
    5dbc:	0e 94 44 02 	call	0x488	; 0x488 <nokia_lcd_init>
	SNES_init();
    5dc0:	0e 94 79 13 	call	0x26f2	; 0x26f2 <SNES_init>
	srand((unsigned) time(&t));
    5dc4:	8f e2       	ldi	r24, 0x2F	; 47
    5dc6:	98 e0       	ldi	r25, 0x08	; 8
    5dc8:	0e 94 95 01 	call	0x32a	; 0x32a <time>
    5dcc:	cb 01       	movw	r24, r22
    5dce:	bf d0       	rcall	.+382    	; 0x5f4e <srand>
	
	LCD_WriteCommand(0x38); /* function set */
    5dd0:	88 e3       	ldi	r24, 0x38	; 56
    5dd2:	0e 94 dc 01 	call	0x3b8	; 0x3b8 <LCD_WriteCommand>
	LCD_WriteCommand(0x0c); /* display on,cursor off,blink off */
    5dd6:	8c e0       	ldi	r24, 0x0C	; 12
    5dd8:	0e 94 dc 01 	call	0x3b8	; 0x3b8 <LCD_WriteCommand>
	//TimerOn(); 
	
	//eeprom_write_word(&eeprom_array[0], difficulty);	// default to difficulty medium
	//eeprom_write_word(&eeprom_array[1], gameTime);	// default to 60 seconds
	
	difficulty = eeprom_read_word(&eeprom_array[0]);
    5ddc:	80 e0       	ldi	r24, 0x00	; 0
    5dde:	90 e0       	ldi	r25, 0x00	; 0
    5de0:	d3 d0       	rcall	.+422    	; 0x5f88 <eeprom_read_word>
    5de2:	80 93 08 01 	sts	0x0108, r24	; 0x800108 <difficulty>
	gameTime = eeprom_read_word(&eeprom_array[1]);
    5de6:	81 e0       	ldi	r24, 0x01	; 1
    5de8:	90 e0       	ldi	r25, 0x00	; 0
    5dea:	ce d0       	rcall	.+412    	; 0x5f88 <eeprom_read_word>
    5dec:	80 93 07 01 	sts	0x0107, r24	; 0x800107 <gameTime>
	
	mm = init;
    5df0:	10 92 33 08 	sts	0x0833, r1	; 0x800833 <mm>
	diff = initDif;
    5df4:	10 92 35 08 	sts	0x0835, r1	; 0x800835 <diff>
	time_s = initTime;
    5df8:	10 92 34 08 	sts	0x0834, r1	; 0x800834 <time_s>
	
	//unsigned short period1second = 12.8;	// speed up - go down. Slow down - go up
	int i = 0;
	unsigned char secPassed = 0;
	
	LCD_ClearScreen();
    5dfc:	0e 94 e5 01 	call	0x3ca	; 0x3ca <LCD_ClearScreen>
	
	while(1){	
		nokia_lcd_menu(gameTime, difficulty);		// sets the Nokia LCD to display time and difficulty
    5e00:	60 91 08 01 	lds	r22, 0x0108	; 0x800108 <difficulty>
    5e04:	80 91 07 01 	lds	r24, 0x0107	; 0x800107 <gameTime>
    5e08:	0e 94 8f 03 	call	0x71e	; 0x71e <nokia_lcd_menu>
		if(inMenu){
    5e0c:	80 91 04 01 	lds	r24, 0x0104	; 0x800104 <inMenu>
    5e10:	81 11       	cpse	r24, r1
			displayMenu();
    5e12:	0e 94 09 13 	call	0x2612	; 0x2612 <displayMenu>
		}
		if(inDifficulty){
    5e16:	80 91 2a 06 	lds	r24, 0x062A	; 0x80062a <inDifficulty>
    5e1a:	81 11       	cpse	r24, r1
			setDifficulty();
    5e1c:	0e 94 c0 0d 	call	0x1b80	; 0x1b80 <setDifficulty>
		}
		if(inTime){
    5e20:	80 91 29 06 	lds	r24, 0x0629	; 0x800629 <inTime>
    5e24:	81 11       	cpse	r24, r1
			setTime();
    5e26:	0e 94 e4 09 	call	0x13c8	; 0x13c8 <setTime>
		}
		if(inGame){
    5e2a:	80 91 28 06 	lds	r24, 0x0628	; 0x800628 <__data_end>
    5e2e:	81 11       	cpse	r24, r1
			playGame();
    5e30:	0e 94 fb 1e 	call	0x3df6	; 0x3df6 <playGame>
		}
		unsigned char controller = ~readSNES();		// B press = reset EEPROM
    5e34:	0e 94 7c 13 	call	0x26f8	; 0x26f8 <readSNES>
		if(controller & 0x01 == 0x01){
    5e38:	80 fd       	sbrc	r24, 0
    5e3a:	e2 cf       	rjmp	.-60     	; 0x5e00 <main+0x56>
			eraseEEPROM();
    5e3c:	0e 94 83 13 	call	0x2706	; 0x2706 <eraseEEPROM>
    5e40:	df cf       	rjmp	.-66     	; 0x5e00 <main+0x56>

00005e42 <__udivmodqi4>:
    5e42:	99 1b       	sub	r25, r25
    5e44:	79 e0       	ldi	r23, 0x09	; 9
    5e46:	04 c0       	rjmp	.+8      	; 0x5e50 <__udivmodqi4_ep>

00005e48 <__udivmodqi4_loop>:
    5e48:	99 1f       	adc	r25, r25
    5e4a:	96 17       	cp	r25, r22
    5e4c:	08 f0       	brcs	.+2      	; 0x5e50 <__udivmodqi4_ep>
    5e4e:	96 1b       	sub	r25, r22

00005e50 <__udivmodqi4_ep>:
    5e50:	88 1f       	adc	r24, r24
    5e52:	7a 95       	dec	r23
    5e54:	c9 f7       	brne	.-14     	; 0x5e48 <__udivmodqi4_loop>
    5e56:	80 95       	com	r24
    5e58:	08 95       	ret

00005e5a <__divmodhi4>:
    5e5a:	97 fb       	bst	r25, 7
    5e5c:	07 2e       	mov	r0, r23
    5e5e:	16 f4       	brtc	.+4      	; 0x5e64 <__divmodhi4+0xa>
    5e60:	00 94       	com	r0
    5e62:	06 d0       	rcall	.+12     	; 0x5e70 <__divmodhi4_neg1>
    5e64:	77 fd       	sbrc	r23, 7
    5e66:	08 d0       	rcall	.+16     	; 0x5e78 <__divmodhi4_neg2>
    5e68:	14 d0       	rcall	.+40     	; 0x5e92 <__udivmodhi4>
    5e6a:	07 fc       	sbrc	r0, 7
    5e6c:	05 d0       	rcall	.+10     	; 0x5e78 <__divmodhi4_neg2>
    5e6e:	3e f4       	brtc	.+14     	; 0x5e7e <__divmodhi4_exit>

00005e70 <__divmodhi4_neg1>:
    5e70:	90 95       	com	r25
    5e72:	81 95       	neg	r24
    5e74:	9f 4f       	sbci	r25, 0xFF	; 255
    5e76:	08 95       	ret

00005e78 <__divmodhi4_neg2>:
    5e78:	70 95       	com	r23
    5e7a:	61 95       	neg	r22
    5e7c:	7f 4f       	sbci	r23, 0xFF	; 255

00005e7e <__divmodhi4_exit>:
    5e7e:	08 95       	ret

00005e80 <__tablejump2__>:
    5e80:	ee 0f       	add	r30, r30
    5e82:	ff 1f       	adc	r31, r31
    5e84:	00 24       	eor	r0, r0
    5e86:	00 1c       	adc	r0, r0
    5e88:	0b be       	out	0x3b, r0	; 59
    5e8a:	07 90       	elpm	r0, Z+
    5e8c:	f6 91       	elpm	r31, Z
    5e8e:	e0 2d       	mov	r30, r0
    5e90:	09 94       	ijmp

00005e92 <__udivmodhi4>:
    5e92:	aa 1b       	sub	r26, r26
    5e94:	bb 1b       	sub	r27, r27
    5e96:	51 e1       	ldi	r21, 0x11	; 17
    5e98:	07 c0       	rjmp	.+14     	; 0x5ea8 <__udivmodhi4_ep>

00005e9a <__udivmodhi4_loop>:
    5e9a:	aa 1f       	adc	r26, r26
    5e9c:	bb 1f       	adc	r27, r27
    5e9e:	a6 17       	cp	r26, r22
    5ea0:	b7 07       	cpc	r27, r23
    5ea2:	10 f0       	brcs	.+4      	; 0x5ea8 <__udivmodhi4_ep>
    5ea4:	a6 1b       	sub	r26, r22
    5ea6:	b7 0b       	sbc	r27, r23

00005ea8 <__udivmodhi4_ep>:
    5ea8:	88 1f       	adc	r24, r24
    5eaa:	99 1f       	adc	r25, r25
    5eac:	5a 95       	dec	r21
    5eae:	a9 f7       	brne	.-22     	; 0x5e9a <__udivmodhi4_loop>
    5eb0:	80 95       	com	r24
    5eb2:	90 95       	com	r25
    5eb4:	bc 01       	movw	r22, r24
    5eb6:	cd 01       	movw	r24, r26
    5eb8:	08 95       	ret

00005eba <do_rand>:
    5eba:	8f 92       	push	r8
    5ebc:	9f 92       	push	r9
    5ebe:	af 92       	push	r10
    5ec0:	bf 92       	push	r11
    5ec2:	cf 92       	push	r12
    5ec4:	df 92       	push	r13
    5ec6:	ef 92       	push	r14
    5ec8:	ff 92       	push	r15
    5eca:	cf 93       	push	r28
    5ecc:	df 93       	push	r29
    5ece:	ec 01       	movw	r28, r24
    5ed0:	68 81       	ld	r22, Y
    5ed2:	79 81       	ldd	r23, Y+1	; 0x01
    5ed4:	8a 81       	ldd	r24, Y+2	; 0x02
    5ed6:	9b 81       	ldd	r25, Y+3	; 0x03
    5ed8:	61 15       	cp	r22, r1
    5eda:	71 05       	cpc	r23, r1
    5edc:	81 05       	cpc	r24, r1
    5ede:	91 05       	cpc	r25, r1
    5ee0:	21 f4       	brne	.+8      	; 0x5eea <do_rand+0x30>
    5ee2:	64 e2       	ldi	r22, 0x24	; 36
    5ee4:	79 ed       	ldi	r23, 0xD9	; 217
    5ee6:	8b e5       	ldi	r24, 0x5B	; 91
    5ee8:	97 e0       	ldi	r25, 0x07	; 7
    5eea:	2d e1       	ldi	r18, 0x1D	; 29
    5eec:	33 ef       	ldi	r19, 0xF3	; 243
    5eee:	41 e0       	ldi	r20, 0x01	; 1
    5ef0:	50 e0       	ldi	r21, 0x00	; 0
    5ef2:	70 d0       	rcall	.+224    	; 0x5fd4 <__divmodsi4>
    5ef4:	49 01       	movw	r8, r18
    5ef6:	5a 01       	movw	r10, r20
    5ef8:	9b 01       	movw	r18, r22
    5efa:	ac 01       	movw	r20, r24
    5efc:	a7 ea       	ldi	r26, 0xA7	; 167
    5efe:	b1 e4       	ldi	r27, 0x41	; 65
    5f00:	85 d0       	rcall	.+266    	; 0x600c <__muluhisi3>
    5f02:	6b 01       	movw	r12, r22
    5f04:	7c 01       	movw	r14, r24
    5f06:	ac ee       	ldi	r26, 0xEC	; 236
    5f08:	b4 ef       	ldi	r27, 0xF4	; 244
    5f0a:	a5 01       	movw	r20, r10
    5f0c:	94 01       	movw	r18, r8
    5f0e:	8a d0       	rcall	.+276    	; 0x6024 <__mulohisi3>
    5f10:	dc 01       	movw	r26, r24
    5f12:	cb 01       	movw	r24, r22
    5f14:	8c 0d       	add	r24, r12
    5f16:	9d 1d       	adc	r25, r13
    5f18:	ae 1d       	adc	r26, r14
    5f1a:	bf 1d       	adc	r27, r15
    5f1c:	b7 ff       	sbrs	r27, 7
    5f1e:	03 c0       	rjmp	.+6      	; 0x5f26 <do_rand+0x6c>
    5f20:	01 97       	sbiw	r24, 0x01	; 1
    5f22:	a1 09       	sbc	r26, r1
    5f24:	b0 48       	sbci	r27, 0x80	; 128
    5f26:	88 83       	st	Y, r24
    5f28:	99 83       	std	Y+1, r25	; 0x01
    5f2a:	aa 83       	std	Y+2, r26	; 0x02
    5f2c:	bb 83       	std	Y+3, r27	; 0x03
    5f2e:	9f 77       	andi	r25, 0x7F	; 127
    5f30:	df 91       	pop	r29
    5f32:	cf 91       	pop	r28
    5f34:	ff 90       	pop	r15
    5f36:	ef 90       	pop	r14
    5f38:	df 90       	pop	r13
    5f3a:	cf 90       	pop	r12
    5f3c:	bf 90       	pop	r11
    5f3e:	af 90       	pop	r10
    5f40:	9f 90       	pop	r9
    5f42:	8f 90       	pop	r8
    5f44:	08 95       	ret

00005f46 <rand_r>:
    5f46:	b9 cf       	rjmp	.-142    	; 0x5eba <do_rand>

00005f48 <rand>:
    5f48:	80 e0       	ldi	r24, 0x00	; 0
    5f4a:	91 e0       	ldi	r25, 0x01	; 1
    5f4c:	b6 cf       	rjmp	.-148    	; 0x5eba <do_rand>

00005f4e <srand>:
    5f4e:	a0 e0       	ldi	r26, 0x00	; 0
    5f50:	b0 e0       	ldi	r27, 0x00	; 0
    5f52:	80 93 00 01 	sts	0x0100, r24	; 0x800100 <__data_start>
    5f56:	90 93 01 01 	sts	0x0101, r25	; 0x800101 <__data_start+0x1>
    5f5a:	a0 93 02 01 	sts	0x0102, r26	; 0x800102 <__data_start+0x2>
    5f5e:	b0 93 03 01 	sts	0x0103, r27	; 0x800103 <__data_start+0x3>
    5f62:	08 95       	ret

00005f64 <strcat>:
    5f64:	fb 01       	movw	r30, r22
    5f66:	dc 01       	movw	r26, r24
    5f68:	0d 90       	ld	r0, X+
    5f6a:	00 20       	and	r0, r0
    5f6c:	e9 f7       	brne	.-6      	; 0x5f68 <strcat+0x4>
    5f6e:	11 97       	sbiw	r26, 0x01	; 1
    5f70:	01 90       	ld	r0, Z+
    5f72:	0d 92       	st	X+, r0
    5f74:	00 20       	and	r0, r0
    5f76:	e1 f7       	brne	.-8      	; 0x5f70 <strcat+0xc>
    5f78:	08 95       	ret

00005f7a <strcpy>:
    5f7a:	fb 01       	movw	r30, r22
    5f7c:	dc 01       	movw	r26, r24
    5f7e:	01 90       	ld	r0, Z+
    5f80:	0d 92       	st	X+, r0
    5f82:	00 20       	and	r0, r0
    5f84:	e1 f7       	brne	.-8      	; 0x5f7e <strcpy+0x4>
    5f86:	08 95       	ret

00005f88 <eeprom_read_word>:
    5f88:	a8 e1       	ldi	r26, 0x18	; 24
    5f8a:	b0 e0       	ldi	r27, 0x00	; 0
    5f8c:	42 e0       	ldi	r20, 0x02	; 2
    5f8e:	50 e0       	ldi	r21, 0x00	; 0
    5f90:	05 c0       	rjmp	.+10     	; 0x5f9c <eeprom_read_blraw>

00005f92 <eeprom_write_word>:
    5f92:	12 d0       	rcall	.+36     	; 0x5fb8 <eeprom_write_byte>
    5f94:	27 2f       	mov	r18, r23
    5f96:	11 c0       	rjmp	.+34     	; 0x5fba <eeprom_write_r18>

00005f98 <eeprom_read_block>:
    5f98:	dc 01       	movw	r26, r24
    5f9a:	cb 01       	movw	r24, r22

00005f9c <eeprom_read_blraw>:
    5f9c:	fc 01       	movw	r30, r24
    5f9e:	f9 99       	sbic	0x1f, 1	; 31
    5fa0:	fe cf       	rjmp	.-4      	; 0x5f9e <eeprom_read_blraw+0x2>
    5fa2:	06 c0       	rjmp	.+12     	; 0x5fb0 <eeprom_read_blraw+0x14>
    5fa4:	f2 bd       	out	0x22, r31	; 34
    5fa6:	e1 bd       	out	0x21, r30	; 33
    5fa8:	f8 9a       	sbi	0x1f, 0	; 31
    5faa:	31 96       	adiw	r30, 0x01	; 1
    5fac:	00 b4       	in	r0, 0x20	; 32
    5fae:	0d 92       	st	X+, r0
    5fb0:	41 50       	subi	r20, 0x01	; 1
    5fb2:	50 40       	sbci	r21, 0x00	; 0
    5fb4:	b8 f7       	brcc	.-18     	; 0x5fa4 <eeprom_read_blraw+0x8>
    5fb6:	08 95       	ret

00005fb8 <eeprom_write_byte>:
    5fb8:	26 2f       	mov	r18, r22

00005fba <eeprom_write_r18>:
    5fba:	f9 99       	sbic	0x1f, 1	; 31
    5fbc:	fe cf       	rjmp	.-4      	; 0x5fba <eeprom_write_r18>
    5fbe:	1f ba       	out	0x1f, r1	; 31
    5fc0:	92 bd       	out	0x22, r25	; 34
    5fc2:	81 bd       	out	0x21, r24	; 33
    5fc4:	20 bd       	out	0x20, r18	; 32
    5fc6:	0f b6       	in	r0, 0x3f	; 63
    5fc8:	f8 94       	cli
    5fca:	fa 9a       	sbi	0x1f, 2	; 31
    5fcc:	f9 9a       	sbi	0x1f, 1	; 31
    5fce:	0f be       	out	0x3f, r0	; 63
    5fd0:	01 96       	adiw	r24, 0x01	; 1
    5fd2:	08 95       	ret

00005fd4 <__divmodsi4>:
    5fd4:	05 2e       	mov	r0, r21
    5fd6:	97 fb       	bst	r25, 7
    5fd8:	16 f4       	brtc	.+4      	; 0x5fde <__divmodsi4+0xa>
    5fda:	00 94       	com	r0
    5fdc:	0f d0       	rcall	.+30     	; 0x5ffc <__negsi2>
    5fde:	57 fd       	sbrc	r21, 7
    5fe0:	05 d0       	rcall	.+10     	; 0x5fec <__divmodsi4_neg2>
    5fe2:	24 d0       	rcall	.+72     	; 0x602c <__udivmodsi4>
    5fe4:	07 fc       	sbrc	r0, 7
    5fe6:	02 d0       	rcall	.+4      	; 0x5fec <__divmodsi4_neg2>
    5fe8:	46 f4       	brtc	.+16     	; 0x5ffa <__divmodsi4_exit>
    5fea:	08 c0       	rjmp	.+16     	; 0x5ffc <__negsi2>

00005fec <__divmodsi4_neg2>:
    5fec:	50 95       	com	r21
    5fee:	40 95       	com	r20
    5ff0:	30 95       	com	r19
    5ff2:	21 95       	neg	r18
    5ff4:	3f 4f       	sbci	r19, 0xFF	; 255
    5ff6:	4f 4f       	sbci	r20, 0xFF	; 255
    5ff8:	5f 4f       	sbci	r21, 0xFF	; 255

00005ffa <__divmodsi4_exit>:
    5ffa:	08 95       	ret

00005ffc <__negsi2>:
    5ffc:	90 95       	com	r25
    5ffe:	80 95       	com	r24
    6000:	70 95       	com	r23
    6002:	61 95       	neg	r22
    6004:	7f 4f       	sbci	r23, 0xFF	; 255
    6006:	8f 4f       	sbci	r24, 0xFF	; 255
    6008:	9f 4f       	sbci	r25, 0xFF	; 255
    600a:	08 95       	ret

0000600c <__muluhisi3>:
    600c:	31 d0       	rcall	.+98     	; 0x6070 <__umulhisi3>
    600e:	a5 9f       	mul	r26, r21
    6010:	90 0d       	add	r25, r0
    6012:	b4 9f       	mul	r27, r20
    6014:	90 0d       	add	r25, r0
    6016:	a4 9f       	mul	r26, r20
    6018:	80 0d       	add	r24, r0
    601a:	91 1d       	adc	r25, r1
    601c:	11 24       	eor	r1, r1
    601e:	08 95       	ret

00006020 <__mulshisi3>:
    6020:	b7 ff       	sbrs	r27, 7
    6022:	f4 cf       	rjmp	.-24     	; 0x600c <__muluhisi3>

00006024 <__mulohisi3>:
    6024:	f3 df       	rcall	.-26     	; 0x600c <__muluhisi3>
    6026:	82 1b       	sub	r24, r18
    6028:	93 0b       	sbc	r25, r19
    602a:	08 95       	ret

0000602c <__udivmodsi4>:
    602c:	a1 e2       	ldi	r26, 0x21	; 33
    602e:	1a 2e       	mov	r1, r26
    6030:	aa 1b       	sub	r26, r26
    6032:	bb 1b       	sub	r27, r27
    6034:	fd 01       	movw	r30, r26
    6036:	0d c0       	rjmp	.+26     	; 0x6052 <__udivmodsi4_ep>

00006038 <__udivmodsi4_loop>:
    6038:	aa 1f       	adc	r26, r26
    603a:	bb 1f       	adc	r27, r27
    603c:	ee 1f       	adc	r30, r30
    603e:	ff 1f       	adc	r31, r31
    6040:	a2 17       	cp	r26, r18
    6042:	b3 07       	cpc	r27, r19
    6044:	e4 07       	cpc	r30, r20
    6046:	f5 07       	cpc	r31, r21
    6048:	20 f0       	brcs	.+8      	; 0x6052 <__udivmodsi4_ep>
    604a:	a2 1b       	sub	r26, r18
    604c:	b3 0b       	sbc	r27, r19
    604e:	e4 0b       	sbc	r30, r20
    6050:	f5 0b       	sbc	r31, r21

00006052 <__udivmodsi4_ep>:
    6052:	66 1f       	adc	r22, r22
    6054:	77 1f       	adc	r23, r23
    6056:	88 1f       	adc	r24, r24
    6058:	99 1f       	adc	r25, r25
    605a:	1a 94       	dec	r1
    605c:	69 f7       	brne	.-38     	; 0x6038 <__udivmodsi4_loop>
    605e:	60 95       	com	r22
    6060:	70 95       	com	r23
    6062:	80 95       	com	r24
    6064:	90 95       	com	r25
    6066:	9b 01       	movw	r18, r22
    6068:	ac 01       	movw	r20, r24
    606a:	bd 01       	movw	r22, r26
    606c:	cf 01       	movw	r24, r30
    606e:	08 95       	ret

00006070 <__umulhisi3>:
    6070:	a2 9f       	mul	r26, r18
    6072:	b0 01       	movw	r22, r0
    6074:	b3 9f       	mul	r27, r19
    6076:	c0 01       	movw	r24, r0
    6078:	a3 9f       	mul	r26, r19
    607a:	70 0d       	add	r23, r0
    607c:	81 1d       	adc	r24, r1
    607e:	11 24       	eor	r1, r1
    6080:	91 1d       	adc	r25, r1
    6082:	b2 9f       	mul	r27, r18
    6084:	70 0d       	add	r23, r0
    6086:	81 1d       	adc	r24, r1
    6088:	11 24       	eor	r1, r1
    608a:	91 1d       	adc	r25, r1
    608c:	08 95       	ret

0000608e <_exit>:
    608e:	f8 94       	cli

00006090 <__stop_program>:
    6090:	ff cf       	rjmp	.-2      	; 0x6090 <__stop_program>
