
GccApplication10.elf:     file format elf32-avr

Sections:
Idx Name          Size      VMA       LMA       File off  Algn
  0 .data         000000d4  00800100  00001e26  00001eba  2**0
                  CONTENTS, ALLOC, LOAD, DATA
  1 .text         00001e26  00000000  00000000  00000094  2**1
                  CONTENTS, ALLOC, LOAD, READONLY, CODE
  2 .bss          00000204  008001d4  008001d4  00001f8e  2**0
                  ALLOC
  3 .comment      00000030  00000000  00000000  00001f8e  2**0
                  CONTENTS, READONLY
  4 .note.gnu.avr.deviceinfo 00000040  00000000  00000000  00001fc0  2**2
                  CONTENTS, READONLY
  5 .debug_aranges 00000168  00000000  00000000  00002000  2**0
                  CONTENTS, READONLY, DEBUGGING
  6 .debug_info   000051aa  00000000  00000000  00002168  2**0
                  CONTENTS, READONLY, DEBUGGING
  7 .debug_abbrev 00000ae9  00000000  00000000  00007312  2**0
                  CONTENTS, READONLY, DEBUGGING
  8 .debug_line   00001f4f  00000000  00000000  00007dfb  2**0
                  CONTENTS, READONLY, DEBUGGING
  9 .debug_frame  00000424  00000000  00000000  00009d4c  2**2
                  CONTENTS, READONLY, DEBUGGING
 10 .debug_str    00000854  00000000  00000000  0000a170  2**0
                  CONTENTS, READONLY, DEBUGGING
 11 .debug_loc    00001c02  00000000  00000000  0000a9c4  2**0
                  CONTENTS, READONLY, DEBUGGING
 12 .debug_ranges 00000178  00000000  00000000  0000c5c6  2**0
                  CONTENTS, READONLY, DEBUGGING

Disassembly of section .text:

00000000 <__vectors>:
       0:	35 c1       	rjmp	.+618    	; 0x26c <__ctors_end>
       2:	00 00       	nop
       4:	52 c1       	rjmp	.+676    	; 0x2aa <__bad_interrupt>
       6:	00 00       	nop
       8:	50 c1       	rjmp	.+672    	; 0x2aa <__bad_interrupt>
       a:	00 00       	nop
       c:	4e c1       	rjmp	.+668    	; 0x2aa <__bad_interrupt>
       e:	00 00       	nop
      10:	4c c1       	rjmp	.+664    	; 0x2aa <__bad_interrupt>
      12:	00 00       	nop
      14:	4a c1       	rjmp	.+660    	; 0x2aa <__bad_interrupt>
      16:	00 00       	nop
      18:	48 c1       	rjmp	.+656    	; 0x2aa <__bad_interrupt>
      1a:	00 00       	nop
      1c:	46 c1       	rjmp	.+652    	; 0x2aa <__bad_interrupt>
      1e:	00 00       	nop
      20:	44 c1       	rjmp	.+648    	; 0x2aa <__bad_interrupt>
      22:	00 00       	nop
      24:	42 c1       	rjmp	.+644    	; 0x2aa <__bad_interrupt>
      26:	00 00       	nop
      28:	40 c1       	rjmp	.+640    	; 0x2aa <__bad_interrupt>
      2a:	00 00       	nop
      2c:	3e c1       	rjmp	.+636    	; 0x2aa <__bad_interrupt>
      2e:	00 00       	nop
      30:	3c c1       	rjmp	.+632    	; 0x2aa <__bad_interrupt>
      32:	00 00       	nop
      34:	d0 c1       	rjmp	.+928    	; 0x3d6 <__vector_13>
      36:	00 00       	nop
      38:	38 c1       	rjmp	.+624    	; 0x2aa <__bad_interrupt>
      3a:	00 00       	nop
      3c:	36 c1       	rjmp	.+620    	; 0x2aa <__bad_interrupt>
      3e:	00 00       	nop
      40:	34 c1       	rjmp	.+616    	; 0x2aa <__bad_interrupt>
      42:	00 00       	nop
      44:	32 c1       	rjmp	.+612    	; 0x2aa <__bad_interrupt>
      46:	00 00       	nop
      48:	30 c1       	rjmp	.+608    	; 0x2aa <__bad_interrupt>
      4a:	00 00       	nop
      4c:	2e c1       	rjmp	.+604    	; 0x2aa <__bad_interrupt>
      4e:	00 00       	nop
      50:	2c c1       	rjmp	.+600    	; 0x2aa <__bad_interrupt>
      52:	00 00       	nop
      54:	2a c1       	rjmp	.+596    	; 0x2aa <__bad_interrupt>
      56:	00 00       	nop
      58:	28 c1       	rjmp	.+592    	; 0x2aa <__bad_interrupt>
      5a:	00 00       	nop
      5c:	26 c1       	rjmp	.+588    	; 0x2aa <__bad_interrupt>
      5e:	00 00       	nop
      60:	24 c1       	rjmp	.+584    	; 0x2aa <__bad_interrupt>
      62:	00 00       	nop
      64:	22 c1       	rjmp	.+580    	; 0x2aa <__bad_interrupt>
      66:	00 00       	nop
      68:	20 c1       	rjmp	.+576    	; 0x2aa <__bad_interrupt>
      6a:	00 00       	nop
      6c:	1e c1       	rjmp	.+572    	; 0x2aa <__bad_interrupt>
      6e:	00 00       	nop
      70:	1c c1       	rjmp	.+568    	; 0x2aa <__bad_interrupt>
      72:	00 00       	nop
      74:	1a c1       	rjmp	.+564    	; 0x2aa <__bad_interrupt>
      76:	00 00       	nop
      78:	18 c1       	rjmp	.+560    	; 0x2aa <__bad_interrupt>
      7a:	00 00       	nop
      7c:	16 c1       	rjmp	.+556    	; 0x2aa <__bad_interrupt>
      7e:	00 00       	nop
      80:	14 c1       	rjmp	.+552    	; 0x2aa <__bad_interrupt>
      82:	00 00       	nop
      84:	12 c1       	rjmp	.+548    	; 0x2aa <__bad_interrupt>
      86:	00 00       	nop
      88:	10 c1       	rjmp	.+544    	; 0x2aa <__bad_interrupt>
	...

0000008c <CHARSET>:
      8c:	00 00 00 00 00 00 00 5f 00 00 00 07 00 07 00 14     ......._........
      9c:	7f 14 7f 14 24 2a 7f 2a 12 23 13 08 64 62 36 49     ....$*.*.#..db6I
      ac:	55 22 50 00 05 03 00 00 00 1c 22 41 00 00 41 22     U"P......."A..A"
      bc:	1c 00 14 08 3e 08 14 08 08 3e 08 08 00 50 30 00     ....>....>...P0.
      cc:	00 08 08 08 08 08 00 60 60 00 00 20 10 08 04 02     .......``.. ....
      dc:	3e 51 49 45 3e 00 42 7f 40 00 42 61 51 49 46 21     >QIE>.B.@.BaQIF!
      ec:	41 45 4b 31 18 14 12 7f 10 27 45 45 45 39 3c 4a     AEK1.....'EEE9<J
      fc:	49 49 30 01 71 09 05 03 36 49 49 49 36 06 49 49     II0.q...6III6.II
     10c:	29 1e 00 36 36 00 00 00 56 36 00 00 08 14 22 41     )..66...V6...."A
     11c:	00 14 14 14 14 14 00 41 22 14 08 02 01 51 09 06     .......A"....Q..
     12c:	32 49 79 41 3e 7e 11 11 11 7e 7f 49 49 49 36 3e     2IyA>~...~.III6>
     13c:	41 41 41 22 7f 41 41 22 1c 7f 49 49 49 41 7f 09     AAA".AA"..IIIA..
     14c:	09 09 01 3e 41 49 49 7a 7f 08 08 08 7f 00 41 7f     ...>AIIz......A.
     15c:	41 00 20 40 41 3f 01 7f 08 14 22 41 7f 40 40 40     A. @A?...."A.@@@
     16c:	40 7f 02 0c 02 7f 7f 04 08 10 7f 3e 41 41 41 3e     @..........>AAA>
     17c:	7f 09 09 09 06 3e 41 51 21 5e 7f 09 19 29 46 46     .....>AQ!^...)FF
     18c:	49 49 49 31 01 01 7f 01 01 3f 40 40 40 3f 1f 20     III1.....?@@@?. 
     19c:	40 20 1f 3f 40 38 40 3f 63 14 08 14 63 07 08 70     @ .?@8@?c...c..p
     1ac:	08 07 61 51 49 45 43 00 7f 41 41 00 02 04 08 10     ..aQIEC..AA.....
     1bc:	20 00 41 41 7f 00 04 02 01 02 04 40 40 40 40 40      .AA.......@@@@@
     1cc:	00 01 02 04 00 20 54 54 54 78 7f 48 44 44 38 38     ..... TTTx.HDD88
     1dc:	44 44 44 20 38 44 44 48 7f 38 54 54 54 18 08 7e     DDD 8DDH.8TTT..~
     1ec:	09 01 02 0c 52 52 52 3e 7f 08 04 04 78 00 44 7d     ....RRR>....x.D}
     1fc:	40 00 20 40 44 3d 00 7f 10 28 44 00 00 41 7f 40     @. @D=...(D..A.@
     20c:	00 7c 04 18 04 78 7c 08 04 04 78 38 44 44 44 38     .|...x|...x8DDD8
     21c:	7c 14 14 14 08 08 14 14 18 7c 7c 08 04 04 08 48     |........||....H
     22c:	54 54 54 20 04 3f 44 40 20 3c 40 40 20 7c 1c 20     TTT .?D@ <@@ |. 
     23c:	40 20 1c 3c 40 30 40 3c 44 28 10 28 44 0c 50 50     @ .<@0@<D(.(D.PP
     24c:	50 3c 44 64 54 4c 44 00 08 36 41 00 00 00 7f 00     P<DdTLD..6A.....
     25c:	00 00 41 36 08 00 10 08 08 10 08 20 42 48 42 20     ..A6....... BHB 

0000026c <__ctors_end>:
     26c:	11 24       	eor	r1, r1
     26e:	1f be       	out	0x3f, r1	; 63
     270:	cf ef       	ldi	r28, 0xFF	; 255
     272:	d0 e4       	ldi	r29, 0x40	; 64
     274:	de bf       	out	0x3e, r29	; 62
     276:	cd bf       	out	0x3d, r28	; 61

00000278 <__do_copy_data>:
     278:	11 e0       	ldi	r17, 0x01	; 1
     27a:	a0 e0       	ldi	r26, 0x00	; 0
     27c:	b1 e0       	ldi	r27, 0x01	; 1
     27e:	e6 e2       	ldi	r30, 0x26	; 38
     280:	fe e1       	ldi	r31, 0x1E	; 30
     282:	00 e0       	ldi	r16, 0x00	; 0
     284:	0b bf       	out	0x3b, r16	; 59
     286:	02 c0       	rjmp	.+4      	; 0x28c <__do_copy_data+0x14>
     288:	07 90       	elpm	r0, Z+
     28a:	0d 92       	st	X+, r0
     28c:	a4 3d       	cpi	r26, 0xD4	; 212
     28e:	b1 07       	cpc	r27, r17
     290:	d9 f7       	brne	.-10     	; 0x288 <__do_copy_data+0x10>

00000292 <__do_clear_bss>:
     292:	23 e0       	ldi	r18, 0x03	; 3
     294:	a4 ed       	ldi	r26, 0xD4	; 212
     296:	b1 e0       	ldi	r27, 0x01	; 1
     298:	01 c0       	rjmp	.+2      	; 0x29c <.do_clear_bss_start>

0000029a <.do_clear_bss_loop>:
     29a:	1d 92       	st	X+, r1

0000029c <.do_clear_bss_start>:
     29c:	a8 3d       	cpi	r26, 0xD8	; 216
     29e:	b2 07       	cpc	r27, r18
     2a0:	e1 f7       	brne	.-8      	; 0x29a <.do_clear_bss_loop>
     2a2:	0e 94 ca 0e 	call	0x1d94	; 0x1d94 <main>
     2a6:	0c 94 11 0f 	jmp	0x1e22	; 0x1e22 <_exit>

000002aa <__bad_interrupt>:
     2aa:	aa ce       	rjmp	.-684    	; 0x0 <__vectors>

000002ac <write>:
			dispTopLeft();
		break;
	}
}

void playGame(){
     2ac:	2a 98       	cbi	0x05, 2	; 5
     2ae:	66 23       	and	r22, r22
     2b0:	11 f0       	breq	.+4      	; 0x2b6 <write+0xa>
     2b2:	2c 9a       	sbi	0x05, 4	; 5
     2b4:	15 c0       	rjmp	.+42     	; 0x2e0 <write+0x34>
     2b6:	2c 98       	cbi	0x05, 4	; 5
     2b8:	13 c0       	rjmp	.+38     	; 0x2e0 <write+0x34>
     2ba:	ac 01       	movw	r20, r24
     2bc:	02 2e       	mov	r0, r18
     2be:	02 c0       	rjmp	.+4      	; 0x2c4 <write+0x18>
     2c0:	55 95       	asr	r21
     2c2:	47 95       	ror	r20
     2c4:	0a 94       	dec	r0
     2c6:	e2 f7       	brpl	.-8      	; 0x2c0 <write+0x14>
     2c8:	40 ff       	sbrs	r20, 0
     2ca:	02 c0       	rjmp	.+4      	; 0x2d0 <write+0x24>
     2cc:	2d 9a       	sbi	0x05, 5	; 5
     2ce:	01 c0       	rjmp	.+2      	; 0x2d2 <write+0x26>
     2d0:	2d 98       	cbi	0x05, 5	; 5
     2d2:	2e 9a       	sbi	0x05, 6	; 5
     2d4:	2e 98       	cbi	0x05, 6	; 5
     2d6:	21 50       	subi	r18, 0x01	; 1
     2d8:	31 09       	sbc	r19, r1
     2da:	78 f7       	brcc	.-34     	; 0x2ba <write+0xe>
     2dc:	2a 9a       	sbi	0x05, 2	; 5
     2de:	08 95       	ret
     2e0:	27 e0       	ldi	r18, 0x07	; 7
     2e2:	30 e0       	ldi	r19, 0x00	; 0
     2e4:	90 e0       	ldi	r25, 0x00	; 0
     2e6:	e9 cf       	rjmp	.-46     	; 0x2ba <write+0xe>

000002e8 <write_cmd>:
     2e8:	60 e0       	ldi	r22, 0x00	; 0
     2ea:	e0 cf       	rjmp	.-64     	; 0x2ac <write>
     2ec:	08 95       	ret

000002ee <delay_ms>:
     2ee:	18 16       	cp	r1, r24
     2f0:	19 06       	cpc	r1, r25
     2f2:	5c f0       	brlt	.+22     	; 0x30a <delay_ms+0x1c>
     2f4:	08 95       	ret
     2f6:	00 00       	nop
     2f8:	21 50       	subi	r18, 0x01	; 1
     2fa:	31 09       	sbc	r19, r1
     2fc:	e1 f7       	brne	.-8      	; 0x2f6 <delay_ms+0x8>
     2fe:	4f 5f       	subi	r20, 0xFF	; 255
     300:	5f 4f       	sbci	r21, 0xFF	; 255
     302:	84 17       	cp	r24, r20
     304:	95 07       	cpc	r25, r21
     306:	19 f4       	brne	.+6      	; 0x30e <delay_ms+0x20>
     308:	08 95       	ret
     30a:	40 e0       	ldi	r20, 0x00	; 0
     30c:	50 e0       	ldi	r21, 0x00	; 0
     30e:	27 e0       	ldi	r18, 0x07	; 7
     310:	33 e0       	ldi	r19, 0x03	; 3
     312:	f1 cf       	rjmp	.-30     	; 0x2f6 <delay_ms+0x8>

00000314 <LCD_WriteCommand>:
     314:	28 98       	cbi	0x05, 0	; 5
     316:	8b b9       	out	0x0b, r24	; 11
     318:	29 9a       	sbi	0x05, 1	; 5
     31a:	00 00       	nop
     31c:	29 98       	cbi	0x05, 1	; 5
     31e:	82 e0       	ldi	r24, 0x02	; 2
     320:	90 e0       	ldi	r25, 0x00	; 0
     322:	e5 cf       	rjmp	.-54     	; 0x2ee <delay_ms>
     324:	08 95       	ret

00000326 <LCD_ClearScreen>:
     326:	81 e0       	ldi	r24, 0x01	; 1
     328:	f5 cf       	rjmp	.-22     	; 0x314 <LCD_WriteCommand>
     32a:	08 95       	ret

0000032c <LCD_Cursor>:
     32c:	81 31       	cpi	r24, 0x11	; 17
     32e:	18 f4       	brcc	.+6      	; 0x336 <LCD_Cursor+0xa>
     330:	81 58       	subi	r24, 0x81	; 129
     332:	f0 cf       	rjmp	.-32     	; 0x314 <LCD_WriteCommand>
     334:	08 95       	ret
     336:	81 55       	subi	r24, 0x51	; 81
     338:	ed cf       	rjmp	.-38     	; 0x314 <LCD_WriteCommand>
     33a:	08 95       	ret

0000033c <LCD_init>:
     33c:	84 e6       	ldi	r24, 0x64	; 100
     33e:	90 e0       	ldi	r25, 0x00	; 0
     340:	d6 df       	rcall	.-84     	; 0x2ee <delay_ms>
     342:	88 e3       	ldi	r24, 0x38	; 56
     344:	e7 df       	rcall	.-50     	; 0x314 <LCD_WriteCommand>
     346:	86 e0       	ldi	r24, 0x06	; 6
     348:	e5 df       	rcall	.-54     	; 0x314 <LCD_WriteCommand>
     34a:	8f e0       	ldi	r24, 0x0F	; 15
     34c:	e3 df       	rcall	.-58     	; 0x314 <LCD_WriteCommand>
     34e:	81 e0       	ldi	r24, 0x01	; 1
     350:	e1 df       	rcall	.-62     	; 0x314 <LCD_WriteCommand>
     352:	8a e0       	ldi	r24, 0x0A	; 10
     354:	90 e0       	ldi	r25, 0x00	; 0
     356:	cb cf       	rjmp	.-106    	; 0x2ee <delay_ms>
     358:	08 95       	ret

0000035a <LCD_WriteData>:
     35a:	28 9a       	sbi	0x05, 0	; 5
     35c:	8b b9       	out	0x0b, r24	; 11
     35e:	29 9a       	sbi	0x05, 1	; 5
     360:	00 00       	nop
     362:	29 98       	cbi	0x05, 1	; 5
     364:	81 e0       	ldi	r24, 0x01	; 1
     366:	90 e0       	ldi	r25, 0x00	; 0
     368:	c2 cf       	rjmp	.-124    	; 0x2ee <delay_ms>
     36a:	08 95       	ret

0000036c <TimerSet>:
     36c:	60 93 03 01 	sts	0x0103, r22	; 0x800103 <_avr_timer_M>
     370:	70 93 04 01 	sts	0x0104, r23	; 0x800104 <_avr_timer_M+0x1>
     374:	80 93 05 01 	sts	0x0105, r24	; 0x800105 <_avr_timer_M+0x2>
     378:	90 93 06 01 	sts	0x0106, r25	; 0x800106 <_avr_timer_M+0x3>
     37c:	60 93 d0 03 	sts	0x03D0, r22	; 0x8003d0 <_avr_timer_cntcurr>
     380:	70 93 d1 03 	sts	0x03D1, r23	; 0x8003d1 <_avr_timer_cntcurr+0x1>
     384:	80 93 d2 03 	sts	0x03D2, r24	; 0x8003d2 <_avr_timer_cntcurr+0x2>
     388:	90 93 d3 03 	sts	0x03D3, r25	; 0x8003d3 <_avr_timer_cntcurr+0x3>
     38c:	08 95       	ret

0000038e <TimerOn>:
     38e:	8b e0       	ldi	r24, 0x0B	; 11
     390:	80 93 81 00 	sts	0x0081, r24	; 0x800081 <__TEXT_REGION_LENGTH__+0x7e0081>
     394:	8d e7       	ldi	r24, 0x7D	; 125
     396:	90 e0       	ldi	r25, 0x00	; 0
     398:	90 93 89 00 	sts	0x0089, r25	; 0x800089 <__TEXT_REGION_LENGTH__+0x7e0089>
     39c:	80 93 88 00 	sts	0x0088, r24	; 0x800088 <__TEXT_REGION_LENGTH__+0x7e0088>
     3a0:	82 e0       	ldi	r24, 0x02	; 2
     3a2:	80 93 6f 00 	sts	0x006F, r24	; 0x80006f <__TEXT_REGION_LENGTH__+0x7e006f>
     3a6:	10 92 85 00 	sts	0x0085, r1	; 0x800085 <__TEXT_REGION_LENGTH__+0x7e0085>
     3aa:	10 92 84 00 	sts	0x0084, r1	; 0x800084 <__TEXT_REGION_LENGTH__+0x7e0084>
     3ae:	80 91 03 01 	lds	r24, 0x0103	; 0x800103 <_avr_timer_M>
     3b2:	90 91 04 01 	lds	r25, 0x0104	; 0x800104 <_avr_timer_M+0x1>
     3b6:	a0 91 05 01 	lds	r26, 0x0105	; 0x800105 <_avr_timer_M+0x2>
     3ba:	b0 91 06 01 	lds	r27, 0x0106	; 0x800106 <_avr_timer_M+0x3>
     3be:	80 93 d0 03 	sts	0x03D0, r24	; 0x8003d0 <_avr_timer_cntcurr>
     3c2:	90 93 d1 03 	sts	0x03D1, r25	; 0x8003d1 <_avr_timer_cntcurr+0x1>
     3c6:	a0 93 d2 03 	sts	0x03D2, r26	; 0x8003d2 <_avr_timer_cntcurr+0x2>
     3ca:	b0 93 d3 03 	sts	0x03D3, r27	; 0x8003d3 <_avr_timer_cntcurr+0x3>
     3ce:	8f b7       	in	r24, 0x3f	; 63
     3d0:	80 68       	ori	r24, 0x80	; 128
     3d2:	8f bf       	out	0x3f, r24	; 63
     3d4:	08 95       	ret

000003d6 <__vector_13>:
     3d6:	1f 92       	push	r1
     3d8:	0f 92       	push	r0
     3da:	0f b6       	in	r0, 0x3f	; 63
     3dc:	0f 92       	push	r0
     3de:	11 24       	eor	r1, r1
     3e0:	8f 93       	push	r24
     3e2:	9f 93       	push	r25
     3e4:	af 93       	push	r26
     3e6:	bf 93       	push	r27
     3e8:	80 91 d0 03 	lds	r24, 0x03D0	; 0x8003d0 <_avr_timer_cntcurr>
     3ec:	90 91 d1 03 	lds	r25, 0x03D1	; 0x8003d1 <_avr_timer_cntcurr+0x1>
     3f0:	a0 91 d2 03 	lds	r26, 0x03D2	; 0x8003d2 <_avr_timer_cntcurr+0x2>
     3f4:	b0 91 d3 03 	lds	r27, 0x03D3	; 0x8003d3 <_avr_timer_cntcurr+0x3>
     3f8:	01 97       	sbiw	r24, 0x01	; 1
     3fa:	a1 09       	sbc	r26, r1
     3fc:	b1 09       	sbc	r27, r1
     3fe:	80 93 d0 03 	sts	0x03D0, r24	; 0x8003d0 <_avr_timer_cntcurr>
     402:	90 93 d1 03 	sts	0x03D1, r25	; 0x8003d1 <_avr_timer_cntcurr+0x1>
     406:	a0 93 d2 03 	sts	0x03D2, r26	; 0x8003d2 <_avr_timer_cntcurr+0x2>
     40a:	b0 93 d3 03 	sts	0x03D3, r27	; 0x8003d3 <_avr_timer_cntcurr+0x3>
     40e:	89 2b       	or	r24, r25
     410:	8a 2b       	or	r24, r26
     412:	8b 2b       	or	r24, r27
     414:	99 f4       	brne	.+38     	; 0x43c <__LOCK_REGION_LENGTH__+0x3c>
     416:	81 e0       	ldi	r24, 0x01	; 1
     418:	80 93 d4 03 	sts	0x03D4, r24	; 0x8003d4 <TimerFlag>
     41c:	80 91 03 01 	lds	r24, 0x0103	; 0x800103 <_avr_timer_M>
     420:	90 91 04 01 	lds	r25, 0x0104	; 0x800104 <_avr_timer_M+0x1>
     424:	a0 91 05 01 	lds	r26, 0x0105	; 0x800105 <_avr_timer_M+0x2>
     428:	b0 91 06 01 	lds	r27, 0x0106	; 0x800106 <_avr_timer_M+0x3>
     42c:	80 93 d0 03 	sts	0x03D0, r24	; 0x8003d0 <_avr_timer_cntcurr>
     430:	90 93 d1 03 	sts	0x03D1, r25	; 0x8003d1 <_avr_timer_cntcurr+0x1>
     434:	a0 93 d2 03 	sts	0x03D2, r26	; 0x8003d2 <_avr_timer_cntcurr+0x2>
     438:	b0 93 d3 03 	sts	0x03D3, r27	; 0x8003d3 <_avr_timer_cntcurr+0x3>
     43c:	bf 91       	pop	r27
     43e:	af 91       	pop	r26
     440:	9f 91       	pop	r25
     442:	8f 91       	pop	r24
     444:	0f 90       	pop	r0
     446:	0f be       	out	0x3f, r0	; 63
     448:	0f 90       	pop	r0
     44a:	1f 90       	pop	r1
     44c:	18 95       	reti

0000044e <nokia_lcd_init>:
     44e:	cf 93       	push	r28
     450:	df 93       	push	r29
     452:	22 9a       	sbi	0x04, 2	; 4
     454:	23 9a       	sbi	0x04, 3	; 4
     456:	24 9a       	sbi	0x04, 4	; 4
     458:	25 9a       	sbi	0x04, 5	; 4
     45a:	26 9a       	sbi	0x04, 6	; 4
     45c:	2b 9a       	sbi	0x05, 3	; 5
     45e:	2a 9a       	sbi	0x05, 2	; 5
     460:	83 ec       	ldi	r24, 0xC3	; 195
     462:	99 e0       	ldi	r25, 0x09	; 9
     464:	01 97       	sbiw	r24, 0x01	; 1
     466:	f1 f7       	brne	.-4      	; 0x464 <nokia_lcd_init+0x16>
     468:	00 c0       	rjmp	.+0      	; 0x46a <nokia_lcd_init+0x1c>
     46a:	00 00       	nop
     46c:	2b 98       	cbi	0x05, 3	; 5
     46e:	8b e5       	ldi	r24, 0x5B	; 91
     470:	94 e4       	ldi	r25, 0x44	; 68
     472:	01 97       	sbiw	r24, 0x01	; 1
     474:	f1 f7       	brne	.-4      	; 0x472 <nokia_lcd_init+0x24>
     476:	00 c0       	rjmp	.+0      	; 0x478 <nokia_lcd_init+0x2a>
     478:	00 00       	nop
     47a:	2b 9a       	sbi	0x05, 3	; 5
     47c:	2a 98       	cbi	0x05, 2	; 5
     47e:	81 e2       	ldi	r24, 0x21	; 33
     480:	33 df       	rcall	.-410    	; 0x2e8 <write_cmd>
     482:	83 e1       	ldi	r24, 0x13	; 19
     484:	31 df       	rcall	.-414    	; 0x2e8 <write_cmd>
     486:	86 e0       	ldi	r24, 0x06	; 6
     488:	2f df       	rcall	.-418    	; 0x2e8 <write_cmd>
     48a:	82 ec       	ldi	r24, 0xC2	; 194
     48c:	2d df       	rcall	.-422    	; 0x2e8 <write_cmd>
     48e:	80 e2       	ldi	r24, 0x20	; 32
     490:	2b df       	rcall	.-426    	; 0x2e8 <write_cmd>
     492:	89 e0       	ldi	r24, 0x09	; 9
     494:	29 df       	rcall	.-430    	; 0x2e8 <write_cmd>
     496:	80 e8       	ldi	r24, 0x80	; 128
     498:	27 df       	rcall	.-434    	; 0x2e8 <write_cmd>
     49a:	80 e4       	ldi	r24, 0x40	; 64
     49c:	25 df       	rcall	.-438    	; 0x2e8 <write_cmd>
     49e:	c8 ef       	ldi	r28, 0xF8	; 248
     4a0:	d1 e0       	ldi	r29, 0x01	; 1
     4a2:	61 e0       	ldi	r22, 0x01	; 1
     4a4:	80 e0       	ldi	r24, 0x00	; 0
     4a6:	02 df       	rcall	.-508    	; 0x2ac <write>
     4a8:	21 97       	sbiw	r28, 0x01	; 1
     4aa:	d9 f7       	brne	.-10     	; 0x4a2 <nokia_lcd_init+0x54>
     4ac:	88 e0       	ldi	r24, 0x08	; 8
     4ae:	1c df       	rcall	.-456    	; 0x2e8 <write_cmd>
     4b0:	8c e0       	ldi	r24, 0x0C	; 12
     4b2:	1a df       	rcall	.-460    	; 0x2e8 <write_cmd>
     4b4:	df 91       	pop	r29
     4b6:	cf 91       	pop	r28
     4b8:	08 95       	ret

000004ba <nokia_lcd_clear>:
     4ba:	80 e8       	ldi	r24, 0x80	; 128
     4bc:	15 df       	rcall	.-470    	; 0x2e8 <write_cmd>
     4be:	80 e4       	ldi	r24, 0x40	; 64
     4c0:	13 df       	rcall	.-474    	; 0x2e8 <write_cmd>
     4c2:	10 92 ce 03 	sts	0x03CE, r1	; 0x8003ce <nokia_lcd+0x1f8>
     4c6:	10 92 cf 03 	sts	0x03CF, r1	; 0x8003cf <nokia_lcd+0x1f9>
     4ca:	e6 ed       	ldi	r30, 0xD6	; 214
     4cc:	f1 e0       	ldi	r31, 0x01	; 1
     4ce:	8e ec       	ldi	r24, 0xCE	; 206
     4d0:	93 e0       	ldi	r25, 0x03	; 3
     4d2:	11 92       	st	Z+, r1
     4d4:	e8 17       	cp	r30, r24
     4d6:	f9 07       	cpc	r31, r25
     4d8:	e1 f7       	brne	.-8      	; 0x4d2 <nokia_lcd_clear+0x18>
     4da:	08 95       	ret

000004dc <nokia_lcd_set_pixel>:
     4dc:	26 2f       	mov	r18, r22
     4de:	26 95       	lsr	r18
     4e0:	26 95       	lsr	r18
     4e2:	26 95       	lsr	r18
     4e4:	90 e0       	ldi	r25, 0x00	; 0
     4e6:	34 e5       	ldi	r19, 0x54	; 84
     4e8:	23 9f       	mul	r18, r19
     4ea:	80 0d       	add	r24, r0
     4ec:	91 1d       	adc	r25, r1
     4ee:	11 24       	eor	r1, r1
     4f0:	44 23       	and	r20, r20
     4f2:	79 f0       	breq	.+30     	; 0x512 <nokia_lcd_set_pixel+0x36>
     4f4:	fc 01       	movw	r30, r24
     4f6:	ea 52       	subi	r30, 0x2A	; 42
     4f8:	fe 4f       	sbci	r31, 0xFE	; 254
     4fa:	67 70       	andi	r22, 0x07	; 7
     4fc:	81 e0       	ldi	r24, 0x01	; 1
     4fe:	90 e0       	ldi	r25, 0x00	; 0
     500:	02 c0       	rjmp	.+4      	; 0x506 <nokia_lcd_set_pixel+0x2a>
     502:	88 0f       	add	r24, r24
     504:	99 1f       	adc	r25, r25
     506:	6a 95       	dec	r22
     508:	e2 f7       	brpl	.-8      	; 0x502 <nokia_lcd_set_pixel+0x26>
     50a:	90 81       	ld	r25, Z
     50c:	89 2b       	or	r24, r25
     50e:	80 83       	st	Z, r24
     510:	08 95       	ret
     512:	fc 01       	movw	r30, r24
     514:	ea 52       	subi	r30, 0x2A	; 42
     516:	fe 4f       	sbci	r31, 0xFE	; 254
     518:	67 70       	andi	r22, 0x07	; 7
     51a:	81 e0       	ldi	r24, 0x01	; 1
     51c:	90 e0       	ldi	r25, 0x00	; 0
     51e:	02 c0       	rjmp	.+4      	; 0x524 <nokia_lcd_set_pixel+0x48>
     520:	88 0f       	add	r24, r24
     522:	99 1f       	adc	r25, r25
     524:	6a 95       	dec	r22
     526:	e2 f7       	brpl	.-8      	; 0x520 <nokia_lcd_set_pixel+0x44>
     528:	80 95       	com	r24
     52a:	90 81       	ld	r25, Z
     52c:	89 23       	and	r24, r25
     52e:	80 83       	st	Z, r24
     530:	08 95       	ret

00000532 <nokia_lcd_write_char>:
     532:	5f 92       	push	r5
     534:	6f 92       	push	r6
     536:	7f 92       	push	r7
     538:	8f 92       	push	r8
     53a:	9f 92       	push	r9
     53c:	af 92       	push	r10
     53e:	bf 92       	push	r11
     540:	cf 92       	push	r12
     542:	df 92       	push	r13
     544:	ef 92       	push	r14
     546:	ff 92       	push	r15
     548:	0f 93       	push	r16
     54a:	1f 93       	push	r17
     54c:	cf 93       	push	r28
     54e:	df 93       	push	r29
     550:	56 2e       	mov	r5, r22
     552:	26 2f       	mov	r18, r22
     554:	30 e0       	ldi	r19, 0x00	; 0
     556:	49 01       	movw	r8, r18
     558:	88 0c       	add	r8, r8
     55a:	99 1c       	adc	r9, r9
     55c:	88 0c       	add	r8, r8
     55e:	99 1c       	adc	r9, r9
     560:	82 0e       	add	r8, r18
     562:	93 1e       	adc	r9, r19
     564:	18 14       	cp	r1, r8
     566:	19 04       	cpc	r1, r9
     568:	0c f0       	brlt	.+2      	; 0x56c <nokia_lcd_write_char+0x3a>
     56a:	5b c0       	rjmp	.+182    	; 0x622 <nokia_lcd_write_char+0xf0>
     56c:	89 01       	movw	r16, r18
     56e:	00 0f       	add	r16, r16
     570:	11 1f       	adc	r17, r17
     572:	00 0f       	add	r16, r16
     574:	11 1f       	adc	r17, r17
     576:	00 0f       	add	r16, r16
     578:	11 1f       	adc	r17, r17
     57a:	02 1b       	sub	r16, r18
     57c:	13 0b       	sbc	r17, r19
     57e:	61 2c       	mov	r6, r1
     580:	a8 2e       	mov	r10, r24
     582:	b1 2c       	mov	r11, r1
     584:	c5 01       	movw	r24, r10
     586:	80 97       	sbiw	r24, 0x20	; 32
     588:	5c 01       	movw	r10, r24
     58a:	aa 0c       	add	r10, r10
     58c:	bb 1c       	adc	r11, r11
     58e:	aa 0c       	add	r10, r10
     590:	bb 1c       	adc	r11, r11
     592:	a8 0e       	add	r10, r24
     594:	b9 1e       	adc	r11, r25
     596:	0f 2e       	mov	r0, r31
     598:	ff ec       	ldi	r31, 0xCF	; 207
     59a:	cf 2e       	mov	r12, r31
     59c:	f3 e0       	ldi	r31, 0x03	; 3
     59e:	df 2e       	mov	r13, r31
     5a0:	f0 2d       	mov	r31, r0
     5a2:	0f 2e       	mov	r0, r31
     5a4:	fe ec       	ldi	r31, 0xCE	; 206
     5a6:	ef 2e       	mov	r14, r31
     5a8:	f3 e0       	ldi	r31, 0x03	; 3
     5aa:	ff 2e       	mov	r15, r31
     5ac:	f0 2d       	mov	r31, r0
     5ae:	2b c0       	rjmp	.+86     	; 0x606 <nokia_lcd_write_char+0xd4>
     5b0:	fe 01       	movw	r30, r28
     5b2:	24 91       	lpm	r18, Z
     5b4:	30 e0       	ldi	r19, 0x00	; 0
     5b6:	87 2d       	mov	r24, r7
     5b8:	65 2d       	mov	r22, r5
     5ba:	0e 94 05 0f 	call	0x1e0a	; 0x1e0a <__udivmodqi4>
     5be:	02 c0       	rjmp	.+4      	; 0x5c4 <nokia_lcd_write_char+0x92>
     5c0:	35 95       	asr	r19
     5c2:	27 95       	ror	r18
     5c4:	8a 95       	dec	r24
     5c6:	e2 f7       	brpl	.-8      	; 0x5c0 <nokia_lcd_write_char+0x8e>
     5c8:	20 ff       	sbrs	r18, 0
     5ca:	09 c0       	rjmp	.+18     	; 0x5de <nokia_lcd_write_char+0xac>
     5cc:	f6 01       	movw	r30, r12
     5ce:	60 81       	ld	r22, Z
     5d0:	67 0d       	add	r22, r7
     5d2:	f7 01       	movw	r30, r14
     5d4:	80 81       	ld	r24, Z
     5d6:	41 e0       	ldi	r20, 0x01	; 1
     5d8:	86 0d       	add	r24, r6
     5da:	80 df       	rcall	.-256    	; 0x4dc <nokia_lcd_set_pixel>
     5dc:	08 c0       	rjmp	.+16     	; 0x5ee <nokia_lcd_write_char+0xbc>
     5de:	f6 01       	movw	r30, r12
     5e0:	60 81       	ld	r22, Z
     5e2:	67 0d       	add	r22, r7
     5e4:	f7 01       	movw	r30, r14
     5e6:	80 81       	ld	r24, Z
     5e8:	40 e0       	ldi	r20, 0x00	; 0
     5ea:	86 0d       	add	r24, r6
     5ec:	77 df       	rcall	.-274    	; 0x4dc <nokia_lcd_set_pixel>
     5ee:	73 94       	inc	r7
     5f0:	87 2d       	mov	r24, r7
     5f2:	90 e0       	ldi	r25, 0x00	; 0
     5f4:	80 17       	cp	r24, r16
     5f6:	91 07       	cpc	r25, r17
     5f8:	dc f2       	brlt	.-74     	; 0x5b0 <nokia_lcd_write_char+0x7e>
     5fa:	63 94       	inc	r6
     5fc:	86 2d       	mov	r24, r6
     5fe:	90 e0       	ldi	r25, 0x00	; 0
     600:	88 15       	cp	r24, r8
     602:	99 05       	cpc	r25, r9
     604:	74 f4       	brge	.+28     	; 0x622 <nokia_lcd_write_char+0xf0>
     606:	10 16       	cp	r1, r16
     608:	11 06       	cpc	r1, r17
     60a:	bc f7       	brge	.-18     	; 0x5fa <nokia_lcd_write_char+0xc8>
     60c:	86 2d       	mov	r24, r6
     60e:	65 2d       	mov	r22, r5
     610:	0e 94 05 0f 	call	0x1e0a	; 0x1e0a <__udivmodqi4>
     614:	e5 01       	movw	r28, r10
     616:	c8 0f       	add	r28, r24
     618:	d1 1d       	adc	r29, r1
     61a:	c4 57       	subi	r28, 0x74	; 116
     61c:	df 4f       	sbci	r29, 0xFF	; 255
     61e:	71 2c       	mov	r7, r1
     620:	c7 cf       	rjmp	.-114    	; 0x5b0 <nokia_lcd_write_char+0x7e>
     622:	80 91 ce 03 	lds	r24, 0x03CE	; 0x8003ce <nokia_lcd+0x1f8>
     626:	91 e0       	ldi	r25, 0x01	; 1
     628:	98 0f       	add	r25, r24
     62a:	85 2d       	mov	r24, r5
     62c:	88 0f       	add	r24, r24
     62e:	88 0f       	add	r24, r24
     630:	85 0d       	add	r24, r5
     632:	89 0f       	add	r24, r25
     634:	84 35       	cpi	r24, 0x54	; 84
     636:	18 f4       	brcc	.+6      	; 0x63e <nokia_lcd_write_char+0x10c>
     638:	80 93 ce 03 	sts	0x03CE, r24	; 0x8003ce <nokia_lcd+0x1f8>
     63c:	0e c0       	rjmp	.+28     	; 0x65a <nokia_lcd_write_char+0x128>
     63e:	10 92 ce 03 	sts	0x03CE, r1	; 0x8003ce <nokia_lcd+0x1f8>
     642:	ef ec       	ldi	r30, 0xCF	; 207
     644:	f3 e0       	ldi	r31, 0x03	; 3
     646:	80 81       	ld	r24, Z
     648:	91 e0       	ldi	r25, 0x01	; 1
     64a:	98 0f       	add	r25, r24
     64c:	85 2d       	mov	r24, r5
     64e:	88 0f       	add	r24, r24
     650:	88 0f       	add	r24, r24
     652:	88 0f       	add	r24, r24
     654:	85 19       	sub	r24, r5
     656:	89 0f       	add	r24, r25
     658:	80 83       	st	Z, r24
     65a:	80 91 cf 03 	lds	r24, 0x03CF	; 0x8003cf <nokia_lcd+0x1f9>
     65e:	80 33       	cpi	r24, 0x30	; 48
     660:	20 f0       	brcs	.+8      	; 0x66a <nokia_lcd_write_char+0x138>
     662:	10 92 ce 03 	sts	0x03CE, r1	; 0x8003ce <nokia_lcd+0x1f8>
     666:	10 92 cf 03 	sts	0x03CF, r1	; 0x8003cf <nokia_lcd+0x1f9>
     66a:	df 91       	pop	r29
     66c:	cf 91       	pop	r28
     66e:	1f 91       	pop	r17
     670:	0f 91       	pop	r16
     672:	ff 90       	pop	r15
     674:	ef 90       	pop	r14
     676:	df 90       	pop	r13
     678:	cf 90       	pop	r12
     67a:	bf 90       	pop	r11
     67c:	af 90       	pop	r10
     67e:	9f 90       	pop	r9
     680:	8f 90       	pop	r8
     682:	7f 90       	pop	r7
     684:	6f 90       	pop	r6
     686:	5f 90       	pop	r5
     688:	08 95       	ret

0000068a <nokia_lcd_write_string>:
     68a:	1f 93       	push	r17
     68c:	cf 93       	push	r28
     68e:	df 93       	push	r29
     690:	ec 01       	movw	r28, r24
     692:	88 81       	ld	r24, Y
     694:	88 23       	and	r24, r24
     696:	39 f0       	breq	.+14     	; 0x6a6 <nokia_lcd_write_string+0x1c>
     698:	16 2f       	mov	r17, r22
     69a:	21 96       	adiw	r28, 0x01	; 1
     69c:	61 2f       	mov	r22, r17
     69e:	49 df       	rcall	.-366    	; 0x532 <nokia_lcd_write_char>
     6a0:	89 91       	ld	r24, Y+
     6a2:	81 11       	cpse	r24, r1
     6a4:	fb cf       	rjmp	.-10     	; 0x69c <nokia_lcd_write_string+0x12>
     6a6:	df 91       	pop	r29
     6a8:	cf 91       	pop	r28
     6aa:	1f 91       	pop	r17
     6ac:	08 95       	ret

000006ae <nokia_lcd_render>:
     6ae:	0f 93       	push	r16
     6b0:	1f 93       	push	r17
     6b2:	cf 93       	push	r28
     6b4:	df 93       	push	r29
     6b6:	80 e8       	ldi	r24, 0x80	; 128
     6b8:	17 de       	rcall	.-978    	; 0x2e8 <write_cmd>
     6ba:	80 e4       	ldi	r24, 0x40	; 64
     6bc:	15 de       	rcall	.-982    	; 0x2e8 <write_cmd>
     6be:	c6 ed       	ldi	r28, 0xD6	; 214
     6c0:	d1 e0       	ldi	r29, 0x01	; 1
     6c2:	0e ec       	ldi	r16, 0xCE	; 206
     6c4:	13 e0       	ldi	r17, 0x03	; 3
     6c6:	61 e0       	ldi	r22, 0x01	; 1
     6c8:	89 91       	ld	r24, Y+
     6ca:	f0 dd       	rcall	.-1056   	; 0x2ac <write>
     6cc:	c0 17       	cp	r28, r16
     6ce:	d1 07       	cpc	r29, r17
     6d0:	d1 f7       	brne	.-12     	; 0x6c6 <nokia_lcd_render+0x18>
     6d2:	df 91       	pop	r29
     6d4:	cf 91       	pop	r28
     6d6:	1f 91       	pop	r17
     6d8:	0f 91       	pop	r16
     6da:	08 95       	ret

000006dc <nokia_lcd_menu>:
     6dc:	cf 93       	push	r28
     6de:	df 93       	push	r29
     6e0:	c8 2f       	mov	r28, r24
     6e2:	d6 2f       	mov	r29, r22
     6e4:	ea de       	rcall	.-556    	; 0x4ba <nokia_lcd_clear>
     6e6:	ce 31       	cpi	r28, 0x1E	; 30
     6e8:	39 f4       	brne	.+14     	; 0x6f8 <nokia_lcd_menu+0x1c>
     6ea:	61 e0       	ldi	r22, 0x01	; 1
     6ec:	83 e3       	ldi	r24, 0x33	; 51
     6ee:	21 df       	rcall	.-446    	; 0x532 <nokia_lcd_write_char>
     6f0:	61 e0       	ldi	r22, 0x01	; 1
     6f2:	80 e3       	ldi	r24, 0x30	; 48
     6f4:	1e df       	rcall	.-452    	; 0x532 <nokia_lcd_write_char>
     6f6:	11 c0       	rjmp	.+34     	; 0x71a <nokia_lcd_menu+0x3e>
     6f8:	cc 33       	cpi	r28, 0x3C	; 60
     6fa:	39 f4       	brne	.+14     	; 0x70a <nokia_lcd_menu+0x2e>
     6fc:	61 e0       	ldi	r22, 0x01	; 1
     6fe:	86 e3       	ldi	r24, 0x36	; 54
     700:	18 df       	rcall	.-464    	; 0x532 <nokia_lcd_write_char>
     702:	61 e0       	ldi	r22, 0x01	; 1
     704:	80 e3       	ldi	r24, 0x30	; 48
     706:	15 df       	rcall	.-470    	; 0x532 <nokia_lcd_write_char>
     708:	08 c0       	rjmp	.+16     	; 0x71a <nokia_lcd_menu+0x3e>
     70a:	ca 35       	cpi	r28, 0x5A	; 90
     70c:	31 f4       	brne	.+12     	; 0x71a <nokia_lcd_menu+0x3e>
     70e:	61 e0       	ldi	r22, 0x01	; 1
     710:	89 e3       	ldi	r24, 0x39	; 57
     712:	0f df       	rcall	.-482    	; 0x532 <nokia_lcd_write_char>
     714:	61 e0       	ldi	r22, 0x01	; 1
     716:	80 e3       	ldi	r24, 0x30	; 48
     718:	0c df       	rcall	.-488    	; 0x532 <nokia_lcd_write_char>
     71a:	61 e0       	ldi	r22, 0x01	; 1
     71c:	87 ea       	ldi	r24, 0xA7	; 167
     71e:	91 e0       	ldi	r25, 0x01	; 1
     720:	b4 df       	rcall	.-152    	; 0x68a <nokia_lcd_write_string>
     722:	10 92 ce 03 	sts	0x03CE, r1	; 0x8003ce <nokia_lcd+0x1f8>
     726:	8a e0       	ldi	r24, 0x0A	; 10
     728:	80 93 cf 03 	sts	0x03CF, r24	; 0x8003cf <nokia_lcd+0x1f9>
     72c:	d1 11       	cpse	r29, r1
     72e:	05 c0       	rjmp	.+10     	; 0x73a <nokia_lcd_menu+0x5e>
     730:	61 e0       	ldi	r22, 0x01	; 1
     732:	80 eb       	ldi	r24, 0xB0	; 176
     734:	91 e0       	ldi	r25, 0x01	; 1
     736:	a9 df       	rcall	.-174    	; 0x68a <nokia_lcd_write_string>
     738:	0b c0       	rjmp	.+22     	; 0x750 <nokia_lcd_menu+0x74>
     73a:	d1 30       	cpi	r29, 0x01	; 1
     73c:	29 f4       	brne	.+10     	; 0x748 <nokia_lcd_menu+0x6c>
     73e:	61 e0       	ldi	r22, 0x01	; 1
     740:	8b eb       	ldi	r24, 0xBB	; 187
     742:	91 e0       	ldi	r25, 0x01	; 1
     744:	a2 df       	rcall	.-188    	; 0x68a <nokia_lcd_write_string>
     746:	04 c0       	rjmp	.+8      	; 0x750 <nokia_lcd_menu+0x74>
     748:	61 e0       	ldi	r22, 0x01	; 1
     74a:	88 ec       	ldi	r24, 0xC8	; 200
     74c:	91 e0       	ldi	r25, 0x01	; 1
     74e:	9d df       	rcall	.-198    	; 0x68a <nokia_lcd_write_string>
     750:	ae df       	rcall	.-164    	; 0x6ae <nokia_lcd_render>
     752:	df 91       	pop	r29
     754:	cf 91       	pop	r28
     756:	08 95       	ret

00000758 <LCD_Custom_Char>:
     758:	0f 93       	push	r16
     75a:	1f 93       	push	r17
     75c:	cf 93       	push	r28
     75e:	df 93       	push	r29
     760:	8b 01       	movw	r16, r22
     762:	88 0f       	add	r24, r24
     764:	88 0f       	add	r24, r24
     766:	88 0f       	add	r24, r24
     768:	80 5c       	subi	r24, 0xC0	; 192
     76a:	d4 dd       	rcall	.-1112   	; 0x314 <LCD_WriteCommand>
     76c:	e8 01       	movw	r28, r16
     76e:	08 5f       	subi	r16, 0xF8	; 248
     770:	1f 4f       	sbci	r17, 0xFF	; 255
     772:	89 91       	ld	r24, Y+
     774:	f2 dd       	rcall	.-1052   	; 0x35a <LCD_WriteData>
     776:	c0 17       	cp	r28, r16
     778:	d1 07       	cpc	r29, r17
     77a:	d9 f7       	brne	.-10     	; 0x772 <LCD_Custom_Char+0x1a>
     77c:	80 e8       	ldi	r24, 0x80	; 128
     77e:	ca dd       	rcall	.-1132   	; 0x314 <LCD_WriteCommand>
     780:	df 91       	pop	r29
     782:	cf 91       	pop	r28
     784:	1f 91       	pop	r17
     786:	0f 91       	pop	r16
     788:	08 95       	ret

0000078a <dispTime30>:
     78a:	cf 93       	push	r28
     78c:	df 93       	push	r29
     78e:	cd b7       	in	r28, 0x3d	; 61
     790:	de b7       	in	r29, 0x3e	; 62
     792:	a8 97       	sbiw	r28, 0x28	; 40
     794:	0f b6       	in	r0, 0x3f	; 63
     796:	f8 94       	cli
     798:	de bf       	out	0x3e, r29	; 62
     79a:	0f be       	out	0x3f, r0	; 63
     79c:	cd bf       	out	0x3d, r28	; 61
     79e:	88 e0       	ldi	r24, 0x08	; 8
     7a0:	e7 e0       	ldi	r30, 0x07	; 7
     7a2:	f1 e0       	ldi	r31, 0x01	; 1
     7a4:	de 01       	movw	r26, r28
     7a6:	11 96       	adiw	r26, 0x01	; 1
     7a8:	01 90       	ld	r0, Z+
     7aa:	0d 92       	st	X+, r0
     7ac:	8a 95       	dec	r24
     7ae:	e1 f7       	brne	.-8      	; 0x7a8 <dispTime30+0x1e>
     7b0:	88 e0       	ldi	r24, 0x08	; 8
     7b2:	ef e0       	ldi	r30, 0x0F	; 15
     7b4:	f1 e0       	ldi	r31, 0x01	; 1
     7b6:	de 01       	movw	r26, r28
     7b8:	19 96       	adiw	r26, 0x09	; 9
     7ba:	01 90       	ld	r0, Z+
     7bc:	0d 92       	st	X+, r0
     7be:	8a 95       	dec	r24
     7c0:	e1 f7       	brne	.-8      	; 0x7ba <dispTime30+0x30>
     7c2:	88 e0       	ldi	r24, 0x08	; 8
     7c4:	e7 e1       	ldi	r30, 0x17	; 23
     7c6:	f1 e0       	ldi	r31, 0x01	; 1
     7c8:	de 01       	movw	r26, r28
     7ca:	51 96       	adiw	r26, 0x11	; 17
     7cc:	01 90       	ld	r0, Z+
     7ce:	0d 92       	st	X+, r0
     7d0:	8a 95       	dec	r24
     7d2:	e1 f7       	brne	.-8      	; 0x7cc <dispTime30+0x42>
     7d4:	88 e0       	ldi	r24, 0x08	; 8
     7d6:	ef e1       	ldi	r30, 0x1F	; 31
     7d8:	f1 e0       	ldi	r31, 0x01	; 1
     7da:	de 01       	movw	r26, r28
     7dc:	59 96       	adiw	r26, 0x19	; 25
     7de:	01 90       	ld	r0, Z+
     7e0:	0d 92       	st	X+, r0
     7e2:	8a 95       	dec	r24
     7e4:	e1 f7       	brne	.-8      	; 0x7de <dispTime30+0x54>
     7e6:	88 e0       	ldi	r24, 0x08	; 8
     7e8:	e7 e2       	ldi	r30, 0x27	; 39
     7ea:	f1 e0       	ldi	r31, 0x01	; 1
     7ec:	de 01       	movw	r26, r28
     7ee:	91 96       	adiw	r26, 0x21	; 33
     7f0:	01 90       	ld	r0, Z+
     7f2:	0d 92       	st	X+, r0
     7f4:	8a 95       	dec	r24
     7f6:	e1 f7       	brne	.-8      	; 0x7f0 <dispTime30+0x66>
     7f8:	be 01       	movw	r22, r28
     7fa:	6f 5f       	subi	r22, 0xFF	; 255
     7fc:	7f 4f       	sbci	r23, 0xFF	; 255
     7fe:	80 e0       	ldi	r24, 0x00	; 0
     800:	ab df       	rcall	.-170    	; 0x758 <LCD_Custom_Char>
     802:	be 01       	movw	r22, r28
     804:	67 5f       	subi	r22, 0xF7	; 247
     806:	7f 4f       	sbci	r23, 0xFF	; 255
     808:	81 e0       	ldi	r24, 0x01	; 1
     80a:	a6 df       	rcall	.-180    	; 0x758 <LCD_Custom_Char>
     80c:	be 01       	movw	r22, r28
     80e:	6f 5e       	subi	r22, 0xEF	; 239
     810:	7f 4f       	sbci	r23, 0xFF	; 255
     812:	82 e0       	ldi	r24, 0x02	; 2
     814:	a1 df       	rcall	.-190    	; 0x758 <LCD_Custom_Char>
     816:	be 01       	movw	r22, r28
     818:	67 5e       	subi	r22, 0xE7	; 231
     81a:	7f 4f       	sbci	r23, 0xFF	; 255
     81c:	83 e0       	ldi	r24, 0x03	; 3
     81e:	9c df       	rcall	.-200    	; 0x758 <LCD_Custom_Char>
     820:	be 01       	movw	r22, r28
     822:	6f 5d       	subi	r22, 0xDF	; 223
     824:	7f 4f       	sbci	r23, 0xFF	; 255
     826:	84 e0       	ldi	r24, 0x04	; 4
     828:	97 df       	rcall	.-210    	; 0x758 <LCD_Custom_Char>
     82a:	81 e0       	ldi	r24, 0x01	; 1
     82c:	7f dd       	rcall	.-1282   	; 0x32c <LCD_Cursor>
     82e:	80 e0       	ldi	r24, 0x00	; 0
     830:	94 dd       	rcall	.-1240   	; 0x35a <LCD_WriteData>
     832:	82 e0       	ldi	r24, 0x02	; 2
     834:	7b dd       	rcall	.-1290   	; 0x32c <LCD_Cursor>
     836:	81 e0       	ldi	r24, 0x01	; 1
     838:	90 dd       	rcall	.-1248   	; 0x35a <LCD_WriteData>
     83a:	83 e0       	ldi	r24, 0x03	; 3
     83c:	77 dd       	rcall	.-1298   	; 0x32c <LCD_Cursor>
     83e:	80 e2       	ldi	r24, 0x20	; 32
     840:	8c dd       	rcall	.-1256   	; 0x35a <LCD_WriteData>
     842:	84 e0       	ldi	r24, 0x04	; 4
     844:	73 dd       	rcall	.-1306   	; 0x32c <LCD_Cursor>
     846:	82 e0       	ldi	r24, 0x02	; 2
     848:	88 dd       	rcall	.-1264   	; 0x35a <LCD_WriteData>
     84a:	85 e0       	ldi	r24, 0x05	; 5
     84c:	6f dd       	rcall	.-1314   	; 0x32c <LCD_Cursor>
     84e:	83 e0       	ldi	r24, 0x03	; 3
     850:	84 dd       	rcall	.-1272   	; 0x35a <LCD_WriteData>
     852:	86 e0       	ldi	r24, 0x06	; 6
     854:	6b dd       	rcall	.-1322   	; 0x32c <LCD_Cursor>
     856:	84 e0       	ldi	r24, 0x04	; 4
     858:	80 dd       	rcall	.-1280   	; 0x35a <LCD_WriteData>
     85a:	87 e0       	ldi	r24, 0x07	; 7
     85c:	67 dd       	rcall	.-1330   	; 0x32c <LCD_Cursor>
     85e:	80 e2       	ldi	r24, 0x20	; 32
     860:	7c dd       	rcall	.-1288   	; 0x35a <LCD_WriteData>
     862:	88 e0       	ldi	r24, 0x08	; 8
     864:	63 dd       	rcall	.-1338   	; 0x32c <LCD_Cursor>
     866:	80 e2       	ldi	r24, 0x20	; 32
     868:	78 dd       	rcall	.-1296   	; 0x35a <LCD_WriteData>
     86a:	89 e0       	ldi	r24, 0x09	; 9
     86c:	5f dd       	rcall	.-1346   	; 0x32c <LCD_Cursor>
     86e:	80 e2       	ldi	r24, 0x20	; 32
     870:	74 dd       	rcall	.-1304   	; 0x35a <LCD_WriteData>
     872:	8a e0       	ldi	r24, 0x0A	; 10
     874:	5b dd       	rcall	.-1354   	; 0x32c <LCD_Cursor>
     876:	80 e2       	ldi	r24, 0x20	; 32
     878:	70 dd       	rcall	.-1312   	; 0x35a <LCD_WriteData>
     87a:	8b e0       	ldi	r24, 0x0B	; 11
     87c:	57 dd       	rcall	.-1362   	; 0x32c <LCD_Cursor>
     87e:	86 e3       	ldi	r24, 0x36	; 54
     880:	6c dd       	rcall	.-1320   	; 0x35a <LCD_WriteData>
     882:	8c e0       	ldi	r24, 0x0C	; 12
     884:	53 dd       	rcall	.-1370   	; 0x32c <LCD_Cursor>
     886:	80 e3       	ldi	r24, 0x30	; 48
     888:	68 dd       	rcall	.-1328   	; 0x35a <LCD_WriteData>
     88a:	8d e0       	ldi	r24, 0x0D	; 13
     88c:	4f dd       	rcall	.-1378   	; 0x32c <LCD_Cursor>
     88e:	80 e2       	ldi	r24, 0x20	; 32
     890:	64 dd       	rcall	.-1336   	; 0x35a <LCD_WriteData>
     892:	8e e0       	ldi	r24, 0x0E	; 14
     894:	4b dd       	rcall	.-1386   	; 0x32c <LCD_Cursor>
     896:	83 e5       	ldi	r24, 0x53	; 83
     898:	60 dd       	rcall	.-1344   	; 0x35a <LCD_WriteData>
     89a:	8f e0       	ldi	r24, 0x0F	; 15
     89c:	47 dd       	rcall	.-1394   	; 0x32c <LCD_Cursor>
     89e:	85 e4       	ldi	r24, 0x45	; 69
     8a0:	5c dd       	rcall	.-1352   	; 0x35a <LCD_WriteData>
     8a2:	80 e1       	ldi	r24, 0x10	; 16
     8a4:	43 dd       	rcall	.-1402   	; 0x32c <LCD_Cursor>
     8a6:	83 e4       	ldi	r24, 0x43	; 67
     8a8:	58 dd       	rcall	.-1360   	; 0x35a <LCD_WriteData>
     8aa:	81 e1       	ldi	r24, 0x11	; 17
     8ac:	3f dd       	rcall	.-1410   	; 0x32c <LCD_Cursor>
     8ae:	89 e3       	ldi	r24, 0x39	; 57
     8b0:	54 dd       	rcall	.-1368   	; 0x35a <LCD_WriteData>
     8b2:	82 e1       	ldi	r24, 0x12	; 18
     8b4:	3b dd       	rcall	.-1418   	; 0x32c <LCD_Cursor>
     8b6:	80 e3       	ldi	r24, 0x30	; 48
     8b8:	50 dd       	rcall	.-1376   	; 0x35a <LCD_WriteData>
     8ba:	83 e1       	ldi	r24, 0x13	; 19
     8bc:	37 dd       	rcall	.-1426   	; 0x32c <LCD_Cursor>
     8be:	80 e2       	ldi	r24, 0x20	; 32
     8c0:	4c dd       	rcall	.-1384   	; 0x35a <LCD_WriteData>
     8c2:	84 e1       	ldi	r24, 0x14	; 20
     8c4:	33 dd       	rcall	.-1434   	; 0x32c <LCD_Cursor>
     8c6:	83 e5       	ldi	r24, 0x53	; 83
     8c8:	48 dd       	rcall	.-1392   	; 0x35a <LCD_WriteData>
     8ca:	85 e1       	ldi	r24, 0x15	; 21
     8cc:	2f dd       	rcall	.-1442   	; 0x32c <LCD_Cursor>
     8ce:	85 e4       	ldi	r24, 0x45	; 69
     8d0:	44 dd       	rcall	.-1400   	; 0x35a <LCD_WriteData>
     8d2:	86 e1       	ldi	r24, 0x16	; 22
     8d4:	2b dd       	rcall	.-1450   	; 0x32c <LCD_Cursor>
     8d6:	83 e4       	ldi	r24, 0x43	; 67
     8d8:	40 dd       	rcall	.-1408   	; 0x35a <LCD_WriteData>
     8da:	87 e1       	ldi	r24, 0x17	; 23
     8dc:	27 dd       	rcall	.-1458   	; 0x32c <LCD_Cursor>
     8de:	80 e2       	ldi	r24, 0x20	; 32
     8e0:	3c dd       	rcall	.-1416   	; 0x35a <LCD_WriteData>
     8e2:	88 e1       	ldi	r24, 0x18	; 24
     8e4:	23 dd       	rcall	.-1466   	; 0x32c <LCD_Cursor>
     8e6:	80 e2       	ldi	r24, 0x20	; 32
     8e8:	38 dd       	rcall	.-1424   	; 0x35a <LCD_WriteData>
     8ea:	89 e1       	ldi	r24, 0x19	; 25
     8ec:	1f dd       	rcall	.-1474   	; 0x32c <LCD_Cursor>
     8ee:	80 e2       	ldi	r24, 0x20	; 32
     8f0:	34 dd       	rcall	.-1432   	; 0x35a <LCD_WriteData>
     8f2:	8a e1       	ldi	r24, 0x1A	; 26
     8f4:	1b dd       	rcall	.-1482   	; 0x32c <LCD_Cursor>
     8f6:	80 e2       	ldi	r24, 0x20	; 32
     8f8:	30 dd       	rcall	.-1440   	; 0x35a <LCD_WriteData>
     8fa:	8b e1       	ldi	r24, 0x1B	; 27
     8fc:	17 dd       	rcall	.-1490   	; 0x32c <LCD_Cursor>
     8fe:	80 e2       	ldi	r24, 0x20	; 32
     900:	2c dd       	rcall	.-1448   	; 0x35a <LCD_WriteData>
     902:	8c e1       	ldi	r24, 0x1C	; 28
     904:	13 dd       	rcall	.-1498   	; 0x32c <LCD_Cursor>
     906:	80 e2       	ldi	r24, 0x20	; 32
     908:	28 dd       	rcall	.-1456   	; 0x35a <LCD_WriteData>
     90a:	8d e1       	ldi	r24, 0x1D	; 29
     90c:	0f dd       	rcall	.-1506   	; 0x32c <LCD_Cursor>
     90e:	80 e2       	ldi	r24, 0x20	; 32
     910:	24 dd       	rcall	.-1464   	; 0x35a <LCD_WriteData>
     912:	8e e1       	ldi	r24, 0x1E	; 30
     914:	0b dd       	rcall	.-1514   	; 0x32c <LCD_Cursor>
     916:	80 e2       	ldi	r24, 0x20	; 32
     918:	20 dd       	rcall	.-1472   	; 0x35a <LCD_WriteData>
     91a:	8f e1       	ldi	r24, 0x1F	; 31
     91c:	07 dd       	rcall	.-1522   	; 0x32c <LCD_Cursor>
     91e:	80 e2       	ldi	r24, 0x20	; 32
     920:	1c dd       	rcall	.-1480   	; 0x35a <LCD_WriteData>
     922:	80 e2       	ldi	r24, 0x20	; 32
     924:	03 dd       	rcall	.-1530   	; 0x32c <LCD_Cursor>
     926:	80 e2       	ldi	r24, 0x20	; 32
     928:	18 dd       	rcall	.-1488   	; 0x35a <LCD_WriteData>
     92a:	a8 96       	adiw	r28, 0x28	; 40
     92c:	0f b6       	in	r0, 0x3f	; 63
     92e:	f8 94       	cli
     930:	de bf       	out	0x3e, r29	; 62
     932:	0f be       	out	0x3f, r0	; 63
     934:	cd bf       	out	0x3d, r28	; 61
     936:	df 91       	pop	r29
     938:	cf 91       	pop	r28
     93a:	08 95       	ret

0000093c <dispTime60>:
     93c:	cf 93       	push	r28
     93e:	df 93       	push	r29
     940:	cd b7       	in	r28, 0x3d	; 61
     942:	de b7       	in	r29, 0x3e	; 62
     944:	a8 97       	sbiw	r28, 0x28	; 40
     946:	0f b6       	in	r0, 0x3f	; 63
     948:	f8 94       	cli
     94a:	de bf       	out	0x3e, r29	; 62
     94c:	0f be       	out	0x3f, r0	; 63
     94e:	cd bf       	out	0x3d, r28	; 61
     950:	88 e0       	ldi	r24, 0x08	; 8
     952:	ef e2       	ldi	r30, 0x2F	; 47
     954:	f1 e0       	ldi	r31, 0x01	; 1
     956:	de 01       	movw	r26, r28
     958:	11 96       	adiw	r26, 0x01	; 1
     95a:	01 90       	ld	r0, Z+
     95c:	0d 92       	st	X+, r0
     95e:	8a 95       	dec	r24
     960:	e1 f7       	brne	.-8      	; 0x95a <dispTime60+0x1e>
     962:	88 e0       	ldi	r24, 0x08	; 8
     964:	ef e0       	ldi	r30, 0x0F	; 15
     966:	f1 e0       	ldi	r31, 0x01	; 1
     968:	de 01       	movw	r26, r28
     96a:	19 96       	adiw	r26, 0x09	; 9
     96c:	01 90       	ld	r0, Z+
     96e:	0d 92       	st	X+, r0
     970:	8a 95       	dec	r24
     972:	e1 f7       	brne	.-8      	; 0x96c <dispTime60+0x30>
     974:	88 e0       	ldi	r24, 0x08	; 8
     976:	e7 e1       	ldi	r30, 0x17	; 23
     978:	f1 e0       	ldi	r31, 0x01	; 1
     97a:	de 01       	movw	r26, r28
     97c:	51 96       	adiw	r26, 0x11	; 17
     97e:	01 90       	ld	r0, Z+
     980:	0d 92       	st	X+, r0
     982:	8a 95       	dec	r24
     984:	e1 f7       	brne	.-8      	; 0x97e <dispTime60+0x42>
     986:	88 e0       	ldi	r24, 0x08	; 8
     988:	ef e1       	ldi	r30, 0x1F	; 31
     98a:	f1 e0       	ldi	r31, 0x01	; 1
     98c:	de 01       	movw	r26, r28
     98e:	59 96       	adiw	r26, 0x19	; 25
     990:	01 90       	ld	r0, Z+
     992:	0d 92       	st	X+, r0
     994:	8a 95       	dec	r24
     996:	e1 f7       	brne	.-8      	; 0x990 <dispTime60+0x54>
     998:	88 e0       	ldi	r24, 0x08	; 8
     99a:	e7 e2       	ldi	r30, 0x27	; 39
     99c:	f1 e0       	ldi	r31, 0x01	; 1
     99e:	de 01       	movw	r26, r28
     9a0:	91 96       	adiw	r26, 0x21	; 33
     9a2:	01 90       	ld	r0, Z+
     9a4:	0d 92       	st	X+, r0
     9a6:	8a 95       	dec	r24
     9a8:	e1 f7       	brne	.-8      	; 0x9a2 <dispTime60+0x66>
     9aa:	be 01       	movw	r22, r28
     9ac:	6f 5f       	subi	r22, 0xFF	; 255
     9ae:	7f 4f       	sbci	r23, 0xFF	; 255
     9b0:	80 e0       	ldi	r24, 0x00	; 0
     9b2:	d2 de       	rcall	.-604    	; 0x758 <LCD_Custom_Char>
     9b4:	be 01       	movw	r22, r28
     9b6:	67 5f       	subi	r22, 0xF7	; 247
     9b8:	7f 4f       	sbci	r23, 0xFF	; 255
     9ba:	81 e0       	ldi	r24, 0x01	; 1
     9bc:	cd de       	rcall	.-614    	; 0x758 <LCD_Custom_Char>
     9be:	be 01       	movw	r22, r28
     9c0:	6f 5e       	subi	r22, 0xEF	; 239
     9c2:	7f 4f       	sbci	r23, 0xFF	; 255
     9c4:	82 e0       	ldi	r24, 0x02	; 2
     9c6:	c8 de       	rcall	.-624    	; 0x758 <LCD_Custom_Char>
     9c8:	be 01       	movw	r22, r28
     9ca:	67 5e       	subi	r22, 0xE7	; 231
     9cc:	7f 4f       	sbci	r23, 0xFF	; 255
     9ce:	83 e0       	ldi	r24, 0x03	; 3
     9d0:	c3 de       	rcall	.-634    	; 0x758 <LCD_Custom_Char>
     9d2:	be 01       	movw	r22, r28
     9d4:	6f 5d       	subi	r22, 0xDF	; 223
     9d6:	7f 4f       	sbci	r23, 0xFF	; 255
     9d8:	84 e0       	ldi	r24, 0x04	; 4
     9da:	be de       	rcall	.-644    	; 0x758 <LCD_Custom_Char>
     9dc:	81 e0       	ldi	r24, 0x01	; 1
     9de:	a6 dc       	rcall	.-1716   	; 0x32c <LCD_Cursor>
     9e0:	83 e3       	ldi	r24, 0x33	; 51
     9e2:	bb dc       	rcall	.-1674   	; 0x35a <LCD_WriteData>
     9e4:	82 e0       	ldi	r24, 0x02	; 2
     9e6:	a2 dc       	rcall	.-1724   	; 0x32c <LCD_Cursor>
     9e8:	80 e3       	ldi	r24, 0x30	; 48
     9ea:	b7 dc       	rcall	.-1682   	; 0x35a <LCD_WriteData>
     9ec:	83 e0       	ldi	r24, 0x03	; 3
     9ee:	9e dc       	rcall	.-1732   	; 0x32c <LCD_Cursor>
     9f0:	80 e2       	ldi	r24, 0x20	; 32
     9f2:	b3 dc       	rcall	.-1690   	; 0x35a <LCD_WriteData>
     9f4:	84 e0       	ldi	r24, 0x04	; 4
     9f6:	9a dc       	rcall	.-1740   	; 0x32c <LCD_Cursor>
     9f8:	83 e5       	ldi	r24, 0x53	; 83
     9fa:	af dc       	rcall	.-1698   	; 0x35a <LCD_WriteData>
     9fc:	85 e0       	ldi	r24, 0x05	; 5
     9fe:	96 dc       	rcall	.-1748   	; 0x32c <LCD_Cursor>
     a00:	85 e4       	ldi	r24, 0x45	; 69
     a02:	ab dc       	rcall	.-1706   	; 0x35a <LCD_WriteData>
     a04:	86 e0       	ldi	r24, 0x06	; 6
     a06:	92 dc       	rcall	.-1756   	; 0x32c <LCD_Cursor>
     a08:	83 e4       	ldi	r24, 0x43	; 67
     a0a:	a7 dc       	rcall	.-1714   	; 0x35a <LCD_WriteData>
     a0c:	87 e0       	ldi	r24, 0x07	; 7
     a0e:	8e dc       	rcall	.-1764   	; 0x32c <LCD_Cursor>
     a10:	80 e2       	ldi	r24, 0x20	; 32
     a12:	a3 dc       	rcall	.-1722   	; 0x35a <LCD_WriteData>
     a14:	88 e0       	ldi	r24, 0x08	; 8
     a16:	8a dc       	rcall	.-1772   	; 0x32c <LCD_Cursor>
     a18:	80 e2       	ldi	r24, 0x20	; 32
     a1a:	9f dc       	rcall	.-1730   	; 0x35a <LCD_WriteData>
     a1c:	89 e0       	ldi	r24, 0x09	; 9
     a1e:	86 dc       	rcall	.-1780   	; 0x32c <LCD_Cursor>
     a20:	80 e2       	ldi	r24, 0x20	; 32
     a22:	9b dc       	rcall	.-1738   	; 0x35a <LCD_WriteData>
     a24:	8a e0       	ldi	r24, 0x0A	; 10
     a26:	82 dc       	rcall	.-1788   	; 0x32c <LCD_Cursor>
     a28:	80 e2       	ldi	r24, 0x20	; 32
     a2a:	97 dc       	rcall	.-1746   	; 0x35a <LCD_WriteData>
     a2c:	8b e0       	ldi	r24, 0x0B	; 11
     a2e:	7e dc       	rcall	.-1796   	; 0x32c <LCD_Cursor>
     a30:	80 e0       	ldi	r24, 0x00	; 0
     a32:	93 dc       	rcall	.-1754   	; 0x35a <LCD_WriteData>
     a34:	8c e0       	ldi	r24, 0x0C	; 12
     a36:	7a dc       	rcall	.-1804   	; 0x32c <LCD_Cursor>
     a38:	81 e0       	ldi	r24, 0x01	; 1
     a3a:	8f dc       	rcall	.-1762   	; 0x35a <LCD_WriteData>
     a3c:	8d e0       	ldi	r24, 0x0D	; 13
     a3e:	76 dc       	rcall	.-1812   	; 0x32c <LCD_Cursor>
     a40:	80 e2       	ldi	r24, 0x20	; 32
     a42:	8b dc       	rcall	.-1770   	; 0x35a <LCD_WriteData>
     a44:	8e e0       	ldi	r24, 0x0E	; 14
     a46:	72 dc       	rcall	.-1820   	; 0x32c <LCD_Cursor>
     a48:	82 e0       	ldi	r24, 0x02	; 2
     a4a:	87 dc       	rcall	.-1778   	; 0x35a <LCD_WriteData>
     a4c:	8f e0       	ldi	r24, 0x0F	; 15
     a4e:	6e dc       	rcall	.-1828   	; 0x32c <LCD_Cursor>
     a50:	83 e0       	ldi	r24, 0x03	; 3
     a52:	83 dc       	rcall	.-1786   	; 0x35a <LCD_WriteData>
     a54:	80 e1       	ldi	r24, 0x10	; 16
     a56:	6a dc       	rcall	.-1836   	; 0x32c <LCD_Cursor>
     a58:	84 e0       	ldi	r24, 0x04	; 4
     a5a:	7f dc       	rcall	.-1794   	; 0x35a <LCD_WriteData>
     a5c:	81 e1       	ldi	r24, 0x11	; 17
     a5e:	66 dc       	rcall	.-1844   	; 0x32c <LCD_Cursor>
     a60:	89 e3       	ldi	r24, 0x39	; 57
     a62:	7b dc       	rcall	.-1802   	; 0x35a <LCD_WriteData>
     a64:	82 e1       	ldi	r24, 0x12	; 18
     a66:	62 dc       	rcall	.-1852   	; 0x32c <LCD_Cursor>
     a68:	80 e3       	ldi	r24, 0x30	; 48
     a6a:	77 dc       	rcall	.-1810   	; 0x35a <LCD_WriteData>
     a6c:	83 e1       	ldi	r24, 0x13	; 19
     a6e:	5e dc       	rcall	.-1860   	; 0x32c <LCD_Cursor>
     a70:	80 e2       	ldi	r24, 0x20	; 32
     a72:	73 dc       	rcall	.-1818   	; 0x35a <LCD_WriteData>
     a74:	84 e1       	ldi	r24, 0x14	; 20
     a76:	5a dc       	rcall	.-1868   	; 0x32c <LCD_Cursor>
     a78:	83 e5       	ldi	r24, 0x53	; 83
     a7a:	6f dc       	rcall	.-1826   	; 0x35a <LCD_WriteData>
     a7c:	85 e1       	ldi	r24, 0x15	; 21
     a7e:	56 dc       	rcall	.-1876   	; 0x32c <LCD_Cursor>
     a80:	85 e4       	ldi	r24, 0x45	; 69
     a82:	6b dc       	rcall	.-1834   	; 0x35a <LCD_WriteData>
     a84:	86 e1       	ldi	r24, 0x16	; 22
     a86:	52 dc       	rcall	.-1884   	; 0x32c <LCD_Cursor>
     a88:	83 e4       	ldi	r24, 0x43	; 67
     a8a:	67 dc       	rcall	.-1842   	; 0x35a <LCD_WriteData>
     a8c:	87 e1       	ldi	r24, 0x17	; 23
     a8e:	4e dc       	rcall	.-1892   	; 0x32c <LCD_Cursor>
     a90:	80 e2       	ldi	r24, 0x20	; 32
     a92:	63 dc       	rcall	.-1850   	; 0x35a <LCD_WriteData>
     a94:	88 e1       	ldi	r24, 0x18	; 24
     a96:	4a dc       	rcall	.-1900   	; 0x32c <LCD_Cursor>
     a98:	80 e2       	ldi	r24, 0x20	; 32
     a9a:	5f dc       	rcall	.-1858   	; 0x35a <LCD_WriteData>
     a9c:	89 e1       	ldi	r24, 0x19	; 25
     a9e:	46 dc       	rcall	.-1908   	; 0x32c <LCD_Cursor>
     aa0:	80 e2       	ldi	r24, 0x20	; 32
     aa2:	5b dc       	rcall	.-1866   	; 0x35a <LCD_WriteData>
     aa4:	8a e1       	ldi	r24, 0x1A	; 26
     aa6:	42 dc       	rcall	.-1916   	; 0x32c <LCD_Cursor>
     aa8:	80 e2       	ldi	r24, 0x20	; 32
     aaa:	57 dc       	rcall	.-1874   	; 0x35a <LCD_WriteData>
     aac:	8b e1       	ldi	r24, 0x1B	; 27
     aae:	3e dc       	rcall	.-1924   	; 0x32c <LCD_Cursor>
     ab0:	80 e2       	ldi	r24, 0x20	; 32
     ab2:	53 dc       	rcall	.-1882   	; 0x35a <LCD_WriteData>
     ab4:	8c e1       	ldi	r24, 0x1C	; 28
     ab6:	3a dc       	rcall	.-1932   	; 0x32c <LCD_Cursor>
     ab8:	80 e2       	ldi	r24, 0x20	; 32
     aba:	4f dc       	rcall	.-1890   	; 0x35a <LCD_WriteData>
     abc:	8d e1       	ldi	r24, 0x1D	; 29
     abe:	36 dc       	rcall	.-1940   	; 0x32c <LCD_Cursor>
     ac0:	80 e2       	ldi	r24, 0x20	; 32
     ac2:	4b dc       	rcall	.-1898   	; 0x35a <LCD_WriteData>
     ac4:	8e e1       	ldi	r24, 0x1E	; 30
     ac6:	32 dc       	rcall	.-1948   	; 0x32c <LCD_Cursor>
     ac8:	80 e2       	ldi	r24, 0x20	; 32
     aca:	47 dc       	rcall	.-1906   	; 0x35a <LCD_WriteData>
     acc:	8f e1       	ldi	r24, 0x1F	; 31
     ace:	2e dc       	rcall	.-1956   	; 0x32c <LCD_Cursor>
     ad0:	80 e2       	ldi	r24, 0x20	; 32
     ad2:	43 dc       	rcall	.-1914   	; 0x35a <LCD_WriteData>
     ad4:	80 e2       	ldi	r24, 0x20	; 32
     ad6:	2a dc       	rcall	.-1964   	; 0x32c <LCD_Cursor>
     ad8:	80 e2       	ldi	r24, 0x20	; 32
     ada:	3f dc       	rcall	.-1922   	; 0x35a <LCD_WriteData>
     adc:	a8 96       	adiw	r28, 0x28	; 40
     ade:	0f b6       	in	r0, 0x3f	; 63
     ae0:	f8 94       	cli
     ae2:	de bf       	out	0x3e, r29	; 62
     ae4:	0f be       	out	0x3f, r0	; 63
     ae6:	cd bf       	out	0x3d, r28	; 61
     ae8:	df 91       	pop	r29
     aea:	cf 91       	pop	r28
     aec:	08 95       	ret

00000aee <dispTime90>:
     aee:	cf 93       	push	r28
     af0:	df 93       	push	r29
     af2:	cd b7       	in	r28, 0x3d	; 61
     af4:	de b7       	in	r29, 0x3e	; 62
     af6:	a8 97       	sbiw	r28, 0x28	; 40
     af8:	0f b6       	in	r0, 0x3f	; 63
     afa:	f8 94       	cli
     afc:	de bf       	out	0x3e, r29	; 62
     afe:	0f be       	out	0x3f, r0	; 63
     b00:	cd bf       	out	0x3d, r28	; 61
     b02:	88 e0       	ldi	r24, 0x08	; 8
     b04:	e7 e3       	ldi	r30, 0x37	; 55
     b06:	f1 e0       	ldi	r31, 0x01	; 1
     b08:	de 01       	movw	r26, r28
     b0a:	11 96       	adiw	r26, 0x01	; 1
     b0c:	01 90       	ld	r0, Z+
     b0e:	0d 92       	st	X+, r0
     b10:	8a 95       	dec	r24
     b12:	e1 f7       	brne	.-8      	; 0xb0c <dispTime90+0x1e>
     b14:	88 e0       	ldi	r24, 0x08	; 8
     b16:	ef e0       	ldi	r30, 0x0F	; 15
     b18:	f1 e0       	ldi	r31, 0x01	; 1
     b1a:	de 01       	movw	r26, r28
     b1c:	19 96       	adiw	r26, 0x09	; 9
     b1e:	01 90       	ld	r0, Z+
     b20:	0d 92       	st	X+, r0
     b22:	8a 95       	dec	r24
     b24:	e1 f7       	brne	.-8      	; 0xb1e <dispTime90+0x30>
     b26:	88 e0       	ldi	r24, 0x08	; 8
     b28:	e7 e1       	ldi	r30, 0x17	; 23
     b2a:	f1 e0       	ldi	r31, 0x01	; 1
     b2c:	de 01       	movw	r26, r28
     b2e:	51 96       	adiw	r26, 0x11	; 17
     b30:	01 90       	ld	r0, Z+
     b32:	0d 92       	st	X+, r0
     b34:	8a 95       	dec	r24
     b36:	e1 f7       	brne	.-8      	; 0xb30 <dispTime90+0x42>
     b38:	88 e0       	ldi	r24, 0x08	; 8
     b3a:	ef e1       	ldi	r30, 0x1F	; 31
     b3c:	f1 e0       	ldi	r31, 0x01	; 1
     b3e:	de 01       	movw	r26, r28
     b40:	59 96       	adiw	r26, 0x19	; 25
     b42:	01 90       	ld	r0, Z+
     b44:	0d 92       	st	X+, r0
     b46:	8a 95       	dec	r24
     b48:	e1 f7       	brne	.-8      	; 0xb42 <dispTime90+0x54>
     b4a:	88 e0       	ldi	r24, 0x08	; 8
     b4c:	e7 e2       	ldi	r30, 0x27	; 39
     b4e:	f1 e0       	ldi	r31, 0x01	; 1
     b50:	de 01       	movw	r26, r28
     b52:	91 96       	adiw	r26, 0x21	; 33
     b54:	01 90       	ld	r0, Z+
     b56:	0d 92       	st	X+, r0
     b58:	8a 95       	dec	r24
     b5a:	e1 f7       	brne	.-8      	; 0xb54 <dispTime90+0x66>
     b5c:	be 01       	movw	r22, r28
     b5e:	6f 5f       	subi	r22, 0xFF	; 255
     b60:	7f 4f       	sbci	r23, 0xFF	; 255
     b62:	80 e0       	ldi	r24, 0x00	; 0
     b64:	f9 dd       	rcall	.-1038   	; 0x758 <LCD_Custom_Char>
     b66:	be 01       	movw	r22, r28
     b68:	67 5f       	subi	r22, 0xF7	; 247
     b6a:	7f 4f       	sbci	r23, 0xFF	; 255
     b6c:	81 e0       	ldi	r24, 0x01	; 1
     b6e:	f4 dd       	rcall	.-1048   	; 0x758 <LCD_Custom_Char>
     b70:	be 01       	movw	r22, r28
     b72:	6f 5e       	subi	r22, 0xEF	; 239
     b74:	7f 4f       	sbci	r23, 0xFF	; 255
     b76:	82 e0       	ldi	r24, 0x02	; 2
     b78:	ef dd       	rcall	.-1058   	; 0x758 <LCD_Custom_Char>
     b7a:	be 01       	movw	r22, r28
     b7c:	67 5e       	subi	r22, 0xE7	; 231
     b7e:	7f 4f       	sbci	r23, 0xFF	; 255
     b80:	83 e0       	ldi	r24, 0x03	; 3
     b82:	ea dd       	rcall	.-1068   	; 0x758 <LCD_Custom_Char>
     b84:	be 01       	movw	r22, r28
     b86:	6f 5d       	subi	r22, 0xDF	; 223
     b88:	7f 4f       	sbci	r23, 0xFF	; 255
     b8a:	84 e0       	ldi	r24, 0x04	; 4
     b8c:	e5 dd       	rcall	.-1078   	; 0x758 <LCD_Custom_Char>
     b8e:	81 e0       	ldi	r24, 0x01	; 1
     b90:	cd db       	rcall	.-2150   	; 0x32c <LCD_Cursor>
     b92:	83 e3       	ldi	r24, 0x33	; 51
     b94:	e2 db       	rcall	.-2108   	; 0x35a <LCD_WriteData>
     b96:	82 e0       	ldi	r24, 0x02	; 2
     b98:	c9 db       	rcall	.-2158   	; 0x32c <LCD_Cursor>
     b9a:	80 e3       	ldi	r24, 0x30	; 48
     b9c:	de db       	rcall	.-2116   	; 0x35a <LCD_WriteData>
     b9e:	83 e0       	ldi	r24, 0x03	; 3
     ba0:	c5 db       	rcall	.-2166   	; 0x32c <LCD_Cursor>
     ba2:	80 e2       	ldi	r24, 0x20	; 32
     ba4:	da db       	rcall	.-2124   	; 0x35a <LCD_WriteData>
     ba6:	84 e0       	ldi	r24, 0x04	; 4
     ba8:	c1 db       	rcall	.-2174   	; 0x32c <LCD_Cursor>
     baa:	83 e5       	ldi	r24, 0x53	; 83
     bac:	d6 db       	rcall	.-2132   	; 0x35a <LCD_WriteData>
     bae:	85 e0       	ldi	r24, 0x05	; 5
     bb0:	bd db       	rcall	.-2182   	; 0x32c <LCD_Cursor>
     bb2:	85 e4       	ldi	r24, 0x45	; 69
     bb4:	d2 db       	rcall	.-2140   	; 0x35a <LCD_WriteData>
     bb6:	86 e0       	ldi	r24, 0x06	; 6
     bb8:	b9 db       	rcall	.-2190   	; 0x32c <LCD_Cursor>
     bba:	83 e4       	ldi	r24, 0x43	; 67
     bbc:	ce db       	rcall	.-2148   	; 0x35a <LCD_WriteData>
     bbe:	87 e0       	ldi	r24, 0x07	; 7
     bc0:	b5 db       	rcall	.-2198   	; 0x32c <LCD_Cursor>
     bc2:	80 e2       	ldi	r24, 0x20	; 32
     bc4:	ca db       	rcall	.-2156   	; 0x35a <LCD_WriteData>
     bc6:	88 e0       	ldi	r24, 0x08	; 8
     bc8:	b1 db       	rcall	.-2206   	; 0x32c <LCD_Cursor>
     bca:	80 e2       	ldi	r24, 0x20	; 32
     bcc:	c6 db       	rcall	.-2164   	; 0x35a <LCD_WriteData>
     bce:	89 e0       	ldi	r24, 0x09	; 9
     bd0:	ad db       	rcall	.-2214   	; 0x32c <LCD_Cursor>
     bd2:	80 e2       	ldi	r24, 0x20	; 32
     bd4:	c2 db       	rcall	.-2172   	; 0x35a <LCD_WriteData>
     bd6:	8a e0       	ldi	r24, 0x0A	; 10
     bd8:	a9 db       	rcall	.-2222   	; 0x32c <LCD_Cursor>
     bda:	80 e2       	ldi	r24, 0x20	; 32
     bdc:	be db       	rcall	.-2180   	; 0x35a <LCD_WriteData>
     bde:	8b e0       	ldi	r24, 0x0B	; 11
     be0:	a5 db       	rcall	.-2230   	; 0x32c <LCD_Cursor>
     be2:	86 e3       	ldi	r24, 0x36	; 54
     be4:	ba db       	rcall	.-2188   	; 0x35a <LCD_WriteData>
     be6:	8c e0       	ldi	r24, 0x0C	; 12
     be8:	a1 db       	rcall	.-2238   	; 0x32c <LCD_Cursor>
     bea:	80 e3       	ldi	r24, 0x30	; 48
     bec:	b6 db       	rcall	.-2196   	; 0x35a <LCD_WriteData>
     bee:	8d e0       	ldi	r24, 0x0D	; 13
     bf0:	9d db       	rcall	.-2246   	; 0x32c <LCD_Cursor>
     bf2:	80 e2       	ldi	r24, 0x20	; 32
     bf4:	b2 db       	rcall	.-2204   	; 0x35a <LCD_WriteData>
     bf6:	8e e0       	ldi	r24, 0x0E	; 14
     bf8:	99 db       	rcall	.-2254   	; 0x32c <LCD_Cursor>
     bfa:	83 e5       	ldi	r24, 0x53	; 83
     bfc:	ae db       	rcall	.-2212   	; 0x35a <LCD_WriteData>
     bfe:	8f e0       	ldi	r24, 0x0F	; 15
     c00:	95 db       	rcall	.-2262   	; 0x32c <LCD_Cursor>
     c02:	85 e4       	ldi	r24, 0x45	; 69
     c04:	aa db       	rcall	.-2220   	; 0x35a <LCD_WriteData>
     c06:	80 e1       	ldi	r24, 0x10	; 16
     c08:	91 db       	rcall	.-2270   	; 0x32c <LCD_Cursor>
     c0a:	83 e4       	ldi	r24, 0x43	; 67
     c0c:	a6 db       	rcall	.-2228   	; 0x35a <LCD_WriteData>
     c0e:	81 e1       	ldi	r24, 0x11	; 17
     c10:	8d db       	rcall	.-2278   	; 0x32c <LCD_Cursor>
     c12:	80 e0       	ldi	r24, 0x00	; 0
     c14:	a2 db       	rcall	.-2236   	; 0x35a <LCD_WriteData>
     c16:	82 e1       	ldi	r24, 0x12	; 18
     c18:	89 db       	rcall	.-2286   	; 0x32c <LCD_Cursor>
     c1a:	81 e0       	ldi	r24, 0x01	; 1
     c1c:	9e db       	rcall	.-2244   	; 0x35a <LCD_WriteData>
     c1e:	83 e1       	ldi	r24, 0x13	; 19
     c20:	85 db       	rcall	.-2294   	; 0x32c <LCD_Cursor>
     c22:	80 e2       	ldi	r24, 0x20	; 32
     c24:	9a db       	rcall	.-2252   	; 0x35a <LCD_WriteData>
     c26:	84 e1       	ldi	r24, 0x14	; 20
     c28:	81 db       	rcall	.-2302   	; 0x32c <LCD_Cursor>
     c2a:	82 e0       	ldi	r24, 0x02	; 2
     c2c:	96 db       	rcall	.-2260   	; 0x35a <LCD_WriteData>
     c2e:	85 e1       	ldi	r24, 0x15	; 21
     c30:	7d db       	rcall	.-2310   	; 0x32c <LCD_Cursor>
     c32:	83 e0       	ldi	r24, 0x03	; 3
     c34:	92 db       	rcall	.-2268   	; 0x35a <LCD_WriteData>
     c36:	86 e1       	ldi	r24, 0x16	; 22
     c38:	79 db       	rcall	.-2318   	; 0x32c <LCD_Cursor>
     c3a:	84 e0       	ldi	r24, 0x04	; 4
     c3c:	8e db       	rcall	.-2276   	; 0x35a <LCD_WriteData>
     c3e:	87 e1       	ldi	r24, 0x17	; 23
     c40:	75 db       	rcall	.-2326   	; 0x32c <LCD_Cursor>
     c42:	80 e2       	ldi	r24, 0x20	; 32
     c44:	8a db       	rcall	.-2284   	; 0x35a <LCD_WriteData>
     c46:	88 e1       	ldi	r24, 0x18	; 24
     c48:	71 db       	rcall	.-2334   	; 0x32c <LCD_Cursor>
     c4a:	80 e2       	ldi	r24, 0x20	; 32
     c4c:	86 db       	rcall	.-2292   	; 0x35a <LCD_WriteData>
     c4e:	89 e1       	ldi	r24, 0x19	; 25
     c50:	6d db       	rcall	.-2342   	; 0x32c <LCD_Cursor>
     c52:	80 e2       	ldi	r24, 0x20	; 32
     c54:	82 db       	rcall	.-2300   	; 0x35a <LCD_WriteData>
     c56:	8a e1       	ldi	r24, 0x1A	; 26
     c58:	69 db       	rcall	.-2350   	; 0x32c <LCD_Cursor>
     c5a:	80 e2       	ldi	r24, 0x20	; 32
     c5c:	7e db       	rcall	.-2308   	; 0x35a <LCD_WriteData>
     c5e:	8b e1       	ldi	r24, 0x1B	; 27
     c60:	65 db       	rcall	.-2358   	; 0x32c <LCD_Cursor>
     c62:	80 e2       	ldi	r24, 0x20	; 32
     c64:	7a db       	rcall	.-2316   	; 0x35a <LCD_WriteData>
     c66:	8c e1       	ldi	r24, 0x1C	; 28
     c68:	61 db       	rcall	.-2366   	; 0x32c <LCD_Cursor>
     c6a:	80 e2       	ldi	r24, 0x20	; 32
     c6c:	76 db       	rcall	.-2324   	; 0x35a <LCD_WriteData>
     c6e:	8d e1       	ldi	r24, 0x1D	; 29
     c70:	5d db       	rcall	.-2374   	; 0x32c <LCD_Cursor>
     c72:	80 e2       	ldi	r24, 0x20	; 32
     c74:	72 db       	rcall	.-2332   	; 0x35a <LCD_WriteData>
     c76:	8e e1       	ldi	r24, 0x1E	; 30
     c78:	59 db       	rcall	.-2382   	; 0x32c <LCD_Cursor>
     c7a:	80 e2       	ldi	r24, 0x20	; 32
     c7c:	6e db       	rcall	.-2340   	; 0x35a <LCD_WriteData>
     c7e:	8f e1       	ldi	r24, 0x1F	; 31
     c80:	55 db       	rcall	.-2390   	; 0x32c <LCD_Cursor>
     c82:	80 e2       	ldi	r24, 0x20	; 32
     c84:	6a db       	rcall	.-2348   	; 0x35a <LCD_WriteData>
     c86:	80 e2       	ldi	r24, 0x20	; 32
     c88:	51 db       	rcall	.-2398   	; 0x32c <LCD_Cursor>
     c8a:	80 e2       	ldi	r24, 0x20	; 32
     c8c:	66 db       	rcall	.-2356   	; 0x35a <LCD_WriteData>
     c8e:	a8 96       	adiw	r28, 0x28	; 40
     c90:	0f b6       	in	r0, 0x3f	; 63
     c92:	f8 94       	cli
     c94:	de bf       	out	0x3e, r29	; 62
     c96:	0f be       	out	0x3f, r0	; 63
     c98:	cd bf       	out	0x3d, r28	; 61
     c9a:	df 91       	pop	r29
     c9c:	cf 91       	pop	r28
     c9e:	08 95       	ret

00000ca0 <setTime>:
     ca0:	80 91 d6 03 	lds	r24, 0x03D6	; 0x8003d6 <time_s>
     ca4:	81 30       	cpi	r24, 0x01	; 1
     ca6:	c9 f0       	breq	.+50     	; 0xcda <setTime+0x3a>
     ca8:	30 f0       	brcs	.+12     	; 0xcb6 <setTime+0x16>
     caa:	82 30       	cpi	r24, 0x02	; 2
     cac:	79 f1       	breq	.+94     	; 0xd0c <setTime+0x6c>
     cae:	83 30       	cpi	r24, 0x03	; 3
     cb0:	09 f4       	brne	.+2      	; 0xcb4 <setTime+0x14>
     cb2:	45 c0       	rjmp	.+138    	; 0xd3e <setTime+0x9e>
     cb4:	5d c0       	rjmp	.+186    	; 0xd70 <setTime+0xd0>
     cb6:	80 91 01 01 	lds	r24, 0x0101	; 0x800101 <gameTime>
     cba:	8e 31       	cpi	r24, 0x1E	; 30
     cbc:	21 f4       	brne	.+8      	; 0xcc6 <setTime+0x26>
     cbe:	81 e0       	ldi	r24, 0x01	; 1
     cc0:	80 93 d6 03 	sts	0x03D6, r24	; 0x8003d6 <time_s>
     cc4:	69 c0       	rjmp	.+210    	; 0xd98 <setTime+0xf8>
     cc6:	8c 33       	cpi	r24, 0x3C	; 60
     cc8:	21 f4       	brne	.+8      	; 0xcd2 <setTime+0x32>
     cca:	82 e0       	ldi	r24, 0x02	; 2
     ccc:	80 93 d6 03 	sts	0x03D6, r24	; 0x8003d6 <time_s>
     cd0:	65 c0       	rjmp	.+202    	; 0xd9c <setTime+0xfc>
     cd2:	83 e0       	ldi	r24, 0x03	; 3
     cd4:	80 93 d6 03 	sts	0x03D6, r24	; 0x8003d6 <time_s>
     cd8:	63 c0       	rjmp	.+198    	; 0xda0 <setTime+0x100>
     cda:	01 99       	sbic	0x00, 1	; 0
     cdc:	04 c0       	rjmp	.+8      	; 0xce6 <setTime+0x46>
     cde:	82 e0       	ldi	r24, 0x02	; 2
     ce0:	80 93 d6 03 	sts	0x03D6, r24	; 0x8003d6 <time_s>
     ce4:	5b c0       	rjmp	.+182    	; 0xd9c <setTime+0xfc>
     ce6:	02 99       	sbic	0x00, 2	; 0
     ce8:	04 c0       	rjmp	.+8      	; 0xcf2 <setTime+0x52>
     cea:	83 e0       	ldi	r24, 0x03	; 3
     cec:	80 93 d6 03 	sts	0x03D6, r24	; 0x8003d6 <time_s>
     cf0:	57 c0       	rjmp	.+174    	; 0xda0 <setTime+0x100>
     cf2:	04 99       	sbic	0x00, 4	; 0
     cf4:	51 c0       	rjmp	.+162    	; 0xd98 <setTime+0xf8>
     cf6:	04 9b       	sbis	0x00, 4	; 0
     cf8:	fe cf       	rjmp	.-4      	; 0xcf6 <setTime+0x56>
     cfa:	8e e1       	ldi	r24, 0x1E	; 30
     cfc:	80 93 01 01 	sts	0x0101, r24	; 0x800101 <gameTime>
     d00:	10 92 d4 01 	sts	0x01D4, r1	; 0x8001d4 <__data_end>
     d04:	81 e0       	ldi	r24, 0x01	; 1
     d06:	80 93 00 01 	sts	0x0100, r24	; 0x800100 <__data_start>
     d0a:	46 c0       	rjmp	.+140    	; 0xd98 <setTime+0xf8>
     d0c:	03 99       	sbic	0x00, 3	; 0
     d0e:	04 c0       	rjmp	.+8      	; 0xd18 <setTime+0x78>
     d10:	81 e0       	ldi	r24, 0x01	; 1
     d12:	80 93 d6 03 	sts	0x03D6, r24	; 0x8003d6 <time_s>
     d16:	40 c0       	rjmp	.+128    	; 0xd98 <setTime+0xf8>
     d18:	02 99       	sbic	0x00, 2	; 0
     d1a:	04 c0       	rjmp	.+8      	; 0xd24 <setTime+0x84>
     d1c:	83 e0       	ldi	r24, 0x03	; 3
     d1e:	80 93 d6 03 	sts	0x03D6, r24	; 0x8003d6 <time_s>
     d22:	3e c0       	rjmp	.+124    	; 0xda0 <setTime+0x100>
     d24:	04 99       	sbic	0x00, 4	; 0
     d26:	3a c0       	rjmp	.+116    	; 0xd9c <setTime+0xfc>
     d28:	04 9b       	sbis	0x00, 4	; 0
     d2a:	fe cf       	rjmp	.-4      	; 0xd28 <setTime+0x88>
     d2c:	8c e3       	ldi	r24, 0x3C	; 60
     d2e:	80 93 01 01 	sts	0x0101, r24	; 0x800101 <gameTime>
     d32:	10 92 d4 01 	sts	0x01D4, r1	; 0x8001d4 <__data_end>
     d36:	81 e0       	ldi	r24, 0x01	; 1
     d38:	80 93 00 01 	sts	0x0100, r24	; 0x800100 <__data_start>
     d3c:	2f c0       	rjmp	.+94     	; 0xd9c <setTime+0xfc>
     d3e:	00 99       	sbic	0x00, 0	; 0
     d40:	04 c0       	rjmp	.+8      	; 0xd4a <setTime+0xaa>
     d42:	81 e0       	ldi	r24, 0x01	; 1
     d44:	80 93 d6 03 	sts	0x03D6, r24	; 0x8003d6 <time_s>
     d48:	27 c0       	rjmp	.+78     	; 0xd98 <setTime+0xf8>
     d4a:	01 99       	sbic	0x00, 1	; 0
     d4c:	04 c0       	rjmp	.+8      	; 0xd56 <setTime+0xb6>
     d4e:	82 e0       	ldi	r24, 0x02	; 2
     d50:	80 93 d6 03 	sts	0x03D6, r24	; 0x8003d6 <time_s>
     d54:	23 c0       	rjmp	.+70     	; 0xd9c <setTime+0xfc>
     d56:	04 99       	sbic	0x00, 4	; 0
     d58:	23 c0       	rjmp	.+70     	; 0xda0 <setTime+0x100>
     d5a:	04 9b       	sbis	0x00, 4	; 0
     d5c:	fe cf       	rjmp	.-4      	; 0xd5a <setTime+0xba>
     d5e:	8a e5       	ldi	r24, 0x5A	; 90
     d60:	80 93 01 01 	sts	0x0101, r24	; 0x800101 <gameTime>
     d64:	10 92 d4 01 	sts	0x01D4, r1	; 0x8001d4 <__data_end>
     d68:	81 e0       	ldi	r24, 0x01	; 1
     d6a:	80 93 00 01 	sts	0x0100, r24	; 0x800100 <__data_start>
     d6e:	18 c0       	rjmp	.+48     	; 0xda0 <setTime+0x100>
     d70:	81 30       	cpi	r24, 0x01	; 1
     d72:	91 f0       	breq	.+36     	; 0xd98 <setTime+0xf8>
     d74:	28 f0       	brcs	.+10     	; 0xd80 <setTime+0xe0>
     d76:	82 30       	cpi	r24, 0x02	; 2
     d78:	89 f0       	breq	.+34     	; 0xd9c <setTime+0xfc>
     d7a:	83 30       	cpi	r24, 0x03	; 3
     d7c:	91 f4       	brne	.+36     	; 0xda2 <setTime+0x102>
     d7e:	10 c0       	rjmp	.+32     	; 0xda0 <setTime+0x100>
     d80:	80 91 01 01 	lds	r24, 0x0101	; 0x800101 <gameTime>
     d84:	8e 31       	cpi	r24, 0x1E	; 30
     d86:	11 f4       	brne	.+4      	; 0xd8c <setTime+0xec>
     d88:	00 cd       	rjmp	.-1536   	; 0x78a <dispTime30>
     d8a:	08 95       	ret
     d8c:	8c 33       	cpi	r24, 0x3C	; 60
     d8e:	11 f4       	brne	.+4      	; 0xd94 <setTime+0xf4>
     d90:	d5 cd       	rjmp	.-1110   	; 0x93c <dispTime60>
     d92:	08 95       	ret
     d94:	ac ce       	rjmp	.-680    	; 0xaee <dispTime90>
     d96:	08 95       	ret
     d98:	f8 cc       	rjmp	.-1552   	; 0x78a <dispTime30>
     d9a:	08 95       	ret
     d9c:	cf cd       	rjmp	.-1122   	; 0x93c <dispTime60>
     d9e:	08 95       	ret
     da0:	a6 ce       	rjmp	.-692    	; 0xaee <dispTime90>
     da2:	08 95       	ret

00000da4 <dispDifEasy>:
     da4:	cf 93       	push	r28
     da6:	df 93       	push	r29
     da8:	cd b7       	in	r28, 0x3d	; 61
     daa:	de b7       	in	r29, 0x3e	; 62
     dac:	a0 97       	sbiw	r28, 0x20	; 32
     dae:	0f b6       	in	r0, 0x3f	; 63
     db0:	f8 94       	cli
     db2:	de bf       	out	0x3e, r29	; 62
     db4:	0f be       	out	0x3f, r0	; 63
     db6:	cd bf       	out	0x3d, r28	; 61
     db8:	88 e0       	ldi	r24, 0x08	; 8
     dba:	ef e1       	ldi	r30, 0x1F	; 31
     dbc:	f1 e0       	ldi	r31, 0x01	; 1
     dbe:	de 01       	movw	r26, r28
     dc0:	11 96       	adiw	r26, 0x01	; 1
     dc2:	01 90       	ld	r0, Z+
     dc4:	0d 92       	st	X+, r0
     dc6:	8a 95       	dec	r24
     dc8:	e1 f7       	brne	.-8      	; 0xdc2 <dispDifEasy+0x1e>
     dca:	88 e0       	ldi	r24, 0x08	; 8
     dcc:	ef e3       	ldi	r30, 0x3F	; 63
     dce:	f1 e0       	ldi	r31, 0x01	; 1
     dd0:	de 01       	movw	r26, r28
     dd2:	19 96       	adiw	r26, 0x09	; 9
     dd4:	01 90       	ld	r0, Z+
     dd6:	0d 92       	st	X+, r0
     dd8:	8a 95       	dec	r24
     dda:	e1 f7       	brne	.-8      	; 0xdd4 <dispDifEasy+0x30>
     ddc:	88 e0       	ldi	r24, 0x08	; 8
     dde:	e7 e1       	ldi	r30, 0x17	; 23
     de0:	f1 e0       	ldi	r31, 0x01	; 1
     de2:	de 01       	movw	r26, r28
     de4:	51 96       	adiw	r26, 0x11	; 17
     de6:	01 90       	ld	r0, Z+
     de8:	0d 92       	st	X+, r0
     dea:	8a 95       	dec	r24
     dec:	e1 f7       	brne	.-8      	; 0xde6 <dispDifEasy+0x42>
     dee:	88 e0       	ldi	r24, 0x08	; 8
     df0:	e7 e4       	ldi	r30, 0x47	; 71
     df2:	f1 e0       	ldi	r31, 0x01	; 1
     df4:	de 01       	movw	r26, r28
     df6:	59 96       	adiw	r26, 0x19	; 25
     df8:	01 90       	ld	r0, Z+
     dfa:	0d 92       	st	X+, r0
     dfc:	8a 95       	dec	r24
     dfe:	e1 f7       	brne	.-8      	; 0xdf8 <dispDifEasy+0x54>
     e00:	be 01       	movw	r22, r28
     e02:	6f 5f       	subi	r22, 0xFF	; 255
     e04:	7f 4f       	sbci	r23, 0xFF	; 255
     e06:	80 e0       	ldi	r24, 0x00	; 0
     e08:	a7 dc       	rcall	.-1714   	; 0x758 <LCD_Custom_Char>
     e0a:	be 01       	movw	r22, r28
     e0c:	67 5f       	subi	r22, 0xF7	; 247
     e0e:	7f 4f       	sbci	r23, 0xFF	; 255
     e10:	81 e0       	ldi	r24, 0x01	; 1
     e12:	a2 dc       	rcall	.-1724   	; 0x758 <LCD_Custom_Char>
     e14:	be 01       	movw	r22, r28
     e16:	6f 5e       	subi	r22, 0xEF	; 239
     e18:	7f 4f       	sbci	r23, 0xFF	; 255
     e1a:	82 e0       	ldi	r24, 0x02	; 2
     e1c:	9d dc       	rcall	.-1734   	; 0x758 <LCD_Custom_Char>
     e1e:	be 01       	movw	r22, r28
     e20:	67 5e       	subi	r22, 0xE7	; 231
     e22:	7f 4f       	sbci	r23, 0xFF	; 255
     e24:	83 e0       	ldi	r24, 0x03	; 3
     e26:	98 dc       	rcall	.-1744   	; 0x758 <LCD_Custom_Char>
     e28:	81 e0       	ldi	r24, 0x01	; 1
     e2a:	80 da       	rcall	.-2816   	; 0x32c <LCD_Cursor>
     e2c:	80 e0       	ldi	r24, 0x00	; 0
     e2e:	95 da       	rcall	.-2774   	; 0x35a <LCD_WriteData>
     e30:	82 e0       	ldi	r24, 0x02	; 2
     e32:	7c da       	rcall	.-2824   	; 0x32c <LCD_Cursor>
     e34:	81 e0       	ldi	r24, 0x01	; 1
     e36:	91 da       	rcall	.-2782   	; 0x35a <LCD_WriteData>
     e38:	83 e0       	ldi	r24, 0x03	; 3
     e3a:	78 da       	rcall	.-2832   	; 0x32c <LCD_Cursor>
     e3c:	82 e0       	ldi	r24, 0x02	; 2
     e3e:	8d da       	rcall	.-2790   	; 0x35a <LCD_WriteData>
     e40:	84 e0       	ldi	r24, 0x04	; 4
     e42:	74 da       	rcall	.-2840   	; 0x32c <LCD_Cursor>
     e44:	83 e0       	ldi	r24, 0x03	; 3
     e46:	89 da       	rcall	.-2798   	; 0x35a <LCD_WriteData>
     e48:	85 e0       	ldi	r24, 0x05	; 5
     e4a:	70 da       	rcall	.-2848   	; 0x32c <LCD_Cursor>
     e4c:	80 e2       	ldi	r24, 0x20	; 32
     e4e:	85 da       	rcall	.-2806   	; 0x35a <LCD_WriteData>
     e50:	86 e0       	ldi	r24, 0x06	; 6
     e52:	6c da       	rcall	.-2856   	; 0x32c <LCD_Cursor>
     e54:	80 e2       	ldi	r24, 0x20	; 32
     e56:	81 da       	rcall	.-2814   	; 0x35a <LCD_WriteData>
     e58:	87 e0       	ldi	r24, 0x07	; 7
     e5a:	68 da       	rcall	.-2864   	; 0x32c <LCD_Cursor>
     e5c:	80 e2       	ldi	r24, 0x20	; 32
     e5e:	7d da       	rcall	.-2822   	; 0x35a <LCD_WriteData>
     e60:	88 e0       	ldi	r24, 0x08	; 8
     e62:	64 da       	rcall	.-2872   	; 0x32c <LCD_Cursor>
     e64:	80 e2       	ldi	r24, 0x20	; 32
     e66:	79 da       	rcall	.-2830   	; 0x35a <LCD_WriteData>
     e68:	89 e0       	ldi	r24, 0x09	; 9
     e6a:	60 da       	rcall	.-2880   	; 0x32c <LCD_Cursor>
     e6c:	80 e2       	ldi	r24, 0x20	; 32
     e6e:	75 da       	rcall	.-2838   	; 0x35a <LCD_WriteData>
     e70:	8a e0       	ldi	r24, 0x0A	; 10
     e72:	5c da       	rcall	.-2888   	; 0x32c <LCD_Cursor>
     e74:	80 e2       	ldi	r24, 0x20	; 32
     e76:	71 da       	rcall	.-2846   	; 0x35a <LCD_WriteData>
     e78:	8b e0       	ldi	r24, 0x0B	; 11
     e7a:	58 da       	rcall	.-2896   	; 0x32c <LCD_Cursor>
     e7c:	8d e4       	ldi	r24, 0x4D	; 77
     e7e:	6d da       	rcall	.-2854   	; 0x35a <LCD_WriteData>
     e80:	8c e0       	ldi	r24, 0x0C	; 12
     e82:	54 da       	rcall	.-2904   	; 0x32c <LCD_Cursor>
     e84:	85 e4       	ldi	r24, 0x45	; 69
     e86:	69 da       	rcall	.-2862   	; 0x35a <LCD_WriteData>
     e88:	8d e0       	ldi	r24, 0x0D	; 13
     e8a:	50 da       	rcall	.-2912   	; 0x32c <LCD_Cursor>
     e8c:	84 e4       	ldi	r24, 0x44	; 68
     e8e:	65 da       	rcall	.-2870   	; 0x35a <LCD_WriteData>
     e90:	8e e0       	ldi	r24, 0x0E	; 14
     e92:	4c da       	rcall	.-2920   	; 0x32c <LCD_Cursor>
     e94:	89 e4       	ldi	r24, 0x49	; 73
     e96:	61 da       	rcall	.-2878   	; 0x35a <LCD_WriteData>
     e98:	8f e0       	ldi	r24, 0x0F	; 15
     e9a:	48 da       	rcall	.-2928   	; 0x32c <LCD_Cursor>
     e9c:	85 e5       	ldi	r24, 0x55	; 85
     e9e:	5d da       	rcall	.-2886   	; 0x35a <LCD_WriteData>
     ea0:	80 e1       	ldi	r24, 0x10	; 16
     ea2:	44 da       	rcall	.-2936   	; 0x32c <LCD_Cursor>
     ea4:	8d e4       	ldi	r24, 0x4D	; 77
     ea6:	59 da       	rcall	.-2894   	; 0x35a <LCD_WriteData>
     ea8:	81 e1       	ldi	r24, 0x11	; 17
     eaa:	40 da       	rcall	.-2944   	; 0x32c <LCD_Cursor>
     eac:	88 e4       	ldi	r24, 0x48	; 72
     eae:	55 da       	rcall	.-2902   	; 0x35a <LCD_WriteData>
     eb0:	82 e1       	ldi	r24, 0x12	; 18
     eb2:	3c da       	rcall	.-2952   	; 0x32c <LCD_Cursor>
     eb4:	81 e4       	ldi	r24, 0x41	; 65
     eb6:	51 da       	rcall	.-2910   	; 0x35a <LCD_WriteData>
     eb8:	83 e1       	ldi	r24, 0x13	; 19
     eba:	38 da       	rcall	.-2960   	; 0x32c <LCD_Cursor>
     ebc:	82 e5       	ldi	r24, 0x52	; 82
     ebe:	4d da       	rcall	.-2918   	; 0x35a <LCD_WriteData>
     ec0:	84 e1       	ldi	r24, 0x14	; 20
     ec2:	34 da       	rcall	.-2968   	; 0x32c <LCD_Cursor>
     ec4:	84 e4       	ldi	r24, 0x44	; 68
     ec6:	49 da       	rcall	.-2926   	; 0x35a <LCD_WriteData>
     ec8:	85 e1       	ldi	r24, 0x15	; 21
     eca:	30 da       	rcall	.-2976   	; 0x32c <LCD_Cursor>
     ecc:	80 e2       	ldi	r24, 0x20	; 32
     ece:	45 da       	rcall	.-2934   	; 0x35a <LCD_WriteData>
     ed0:	86 e1       	ldi	r24, 0x16	; 22
     ed2:	2c da       	rcall	.-2984   	; 0x32c <LCD_Cursor>
     ed4:	80 e2       	ldi	r24, 0x20	; 32
     ed6:	41 da       	rcall	.-2942   	; 0x35a <LCD_WriteData>
     ed8:	87 e1       	ldi	r24, 0x17	; 23
     eda:	28 da       	rcall	.-2992   	; 0x32c <LCD_Cursor>
     edc:	80 e2       	ldi	r24, 0x20	; 32
     ede:	3d da       	rcall	.-2950   	; 0x35a <LCD_WriteData>
     ee0:	88 e1       	ldi	r24, 0x18	; 24
     ee2:	24 da       	rcall	.-3000   	; 0x32c <LCD_Cursor>
     ee4:	80 e2       	ldi	r24, 0x20	; 32
     ee6:	39 da       	rcall	.-2958   	; 0x35a <LCD_WriteData>
     ee8:	89 e1       	ldi	r24, 0x19	; 25
     eea:	20 da       	rcall	.-3008   	; 0x32c <LCD_Cursor>
     eec:	80 e2       	ldi	r24, 0x20	; 32
     eee:	35 da       	rcall	.-2966   	; 0x35a <LCD_WriteData>
     ef0:	8a e1       	ldi	r24, 0x1A	; 26
     ef2:	1c da       	rcall	.-3016   	; 0x32c <LCD_Cursor>
     ef4:	80 e2       	ldi	r24, 0x20	; 32
     ef6:	31 da       	rcall	.-2974   	; 0x35a <LCD_WriteData>
     ef8:	8b e1       	ldi	r24, 0x1B	; 27
     efa:	18 da       	rcall	.-3024   	; 0x32c <LCD_Cursor>
     efc:	80 e2       	ldi	r24, 0x20	; 32
     efe:	2d da       	rcall	.-2982   	; 0x35a <LCD_WriteData>
     f00:	8c e1       	ldi	r24, 0x1C	; 28
     f02:	14 da       	rcall	.-3032   	; 0x32c <LCD_Cursor>
     f04:	80 e2       	ldi	r24, 0x20	; 32
     f06:	29 da       	rcall	.-2990   	; 0x35a <LCD_WriteData>
     f08:	8d e1       	ldi	r24, 0x1D	; 29
     f0a:	10 da       	rcall	.-3040   	; 0x32c <LCD_Cursor>
     f0c:	80 e2       	ldi	r24, 0x20	; 32
     f0e:	25 da       	rcall	.-2998   	; 0x35a <LCD_WriteData>
     f10:	8e e1       	ldi	r24, 0x1E	; 30
     f12:	0c da       	rcall	.-3048   	; 0x32c <LCD_Cursor>
     f14:	80 e2       	ldi	r24, 0x20	; 32
     f16:	21 da       	rcall	.-3006   	; 0x35a <LCD_WriteData>
     f18:	8f e1       	ldi	r24, 0x1F	; 31
     f1a:	08 da       	rcall	.-3056   	; 0x32c <LCD_Cursor>
     f1c:	80 e2       	ldi	r24, 0x20	; 32
     f1e:	1d da       	rcall	.-3014   	; 0x35a <LCD_WriteData>
     f20:	80 e2       	ldi	r24, 0x20	; 32
     f22:	04 da       	rcall	.-3064   	; 0x32c <LCD_Cursor>
     f24:	80 e2       	ldi	r24, 0x20	; 32
     f26:	19 da       	rcall	.-3022   	; 0x35a <LCD_WriteData>
     f28:	a0 96       	adiw	r28, 0x20	; 32
     f2a:	0f b6       	in	r0, 0x3f	; 63
     f2c:	f8 94       	cli
     f2e:	de bf       	out	0x3e, r29	; 62
     f30:	0f be       	out	0x3f, r0	; 63
     f32:	cd bf       	out	0x3d, r28	; 61
     f34:	df 91       	pop	r29
     f36:	cf 91       	pop	r28
     f38:	08 95       	ret

00000f3a <dispDifMedium>:
     f3a:	cf 93       	push	r28
     f3c:	df 93       	push	r29
     f3e:	cd b7       	in	r28, 0x3d	; 61
     f40:	de b7       	in	r29, 0x3e	; 62
     f42:	a8 97       	sbiw	r28, 0x28	; 40
     f44:	0f b6       	in	r0, 0x3f	; 63
     f46:	f8 94       	cli
     f48:	de bf       	out	0x3e, r29	; 62
     f4a:	0f be       	out	0x3f, r0	; 63
     f4c:	cd bf       	out	0x3d, r28	; 61
     f4e:	88 e0       	ldi	r24, 0x08	; 8
     f50:	ef e1       	ldi	r30, 0x1F	; 31
     f52:	f1 e0       	ldi	r31, 0x01	; 1
     f54:	de 01       	movw	r26, r28
     f56:	11 96       	adiw	r26, 0x01	; 1
     f58:	01 90       	ld	r0, Z+
     f5a:	0d 92       	st	X+, r0
     f5c:	8a 95       	dec	r24
     f5e:	e1 f7       	brne	.-8      	; 0xf58 <dispDifMedium+0x1e>
     f60:	88 e0       	ldi	r24, 0x08	; 8
     f62:	ef e4       	ldi	r30, 0x4F	; 79
     f64:	f1 e0       	ldi	r31, 0x01	; 1
     f66:	de 01       	movw	r26, r28
     f68:	19 96       	adiw	r26, 0x09	; 9
     f6a:	01 90       	ld	r0, Z+
     f6c:	0d 92       	st	X+, r0
     f6e:	8a 95       	dec	r24
     f70:	e1 f7       	brne	.-8      	; 0xf6a <dispDifMedium+0x30>
     f72:	88 e0       	ldi	r24, 0x08	; 8
     f74:	e7 e5       	ldi	r30, 0x57	; 87
     f76:	f1 e0       	ldi	r31, 0x01	; 1
     f78:	de 01       	movw	r26, r28
     f7a:	51 96       	adiw	r26, 0x11	; 17
     f7c:	01 90       	ld	r0, Z+
     f7e:	0d 92       	st	X+, r0
     f80:	8a 95       	dec	r24
     f82:	e1 f7       	brne	.-8      	; 0xf7c <dispDifMedium+0x42>
     f84:	88 e0       	ldi	r24, 0x08	; 8
     f86:	ef e5       	ldi	r30, 0x5F	; 95
     f88:	f1 e0       	ldi	r31, 0x01	; 1
     f8a:	de 01       	movw	r26, r28
     f8c:	59 96       	adiw	r26, 0x19	; 25
     f8e:	01 90       	ld	r0, Z+
     f90:	0d 92       	st	X+, r0
     f92:	8a 95       	dec	r24
     f94:	e1 f7       	brne	.-8      	; 0xf8e <dispDifMedium+0x54>
     f96:	88 e0       	ldi	r24, 0x08	; 8
     f98:	e7 e6       	ldi	r30, 0x67	; 103
     f9a:	f1 e0       	ldi	r31, 0x01	; 1
     f9c:	de 01       	movw	r26, r28
     f9e:	91 96       	adiw	r26, 0x21	; 33
     fa0:	01 90       	ld	r0, Z+
     fa2:	0d 92       	st	X+, r0
     fa4:	8a 95       	dec	r24
     fa6:	e1 f7       	brne	.-8      	; 0xfa0 <dispDifMedium+0x66>
     fa8:	be 01       	movw	r22, r28
     faa:	67 5f       	subi	r22, 0xF7	; 247
     fac:	7f 4f       	sbci	r23, 0xFF	; 255
     fae:	80 e0       	ldi	r24, 0x00	; 0
     fb0:	d3 db       	rcall	.-2138   	; 0x758 <LCD_Custom_Char>
     fb2:	be 01       	movw	r22, r28
     fb4:	6f 5f       	subi	r22, 0xFF	; 255
     fb6:	7f 4f       	sbci	r23, 0xFF	; 255
     fb8:	81 e0       	ldi	r24, 0x01	; 1
     fba:	ce db       	rcall	.-2148   	; 0x758 <LCD_Custom_Char>
     fbc:	be 01       	movw	r22, r28
     fbe:	6f 5e       	subi	r22, 0xEF	; 239
     fc0:	7f 4f       	sbci	r23, 0xFF	; 255
     fc2:	82 e0       	ldi	r24, 0x02	; 2
     fc4:	c9 db       	rcall	.-2158   	; 0x758 <LCD_Custom_Char>
     fc6:	be 01       	movw	r22, r28
     fc8:	67 5e       	subi	r22, 0xE7	; 231
     fca:	7f 4f       	sbci	r23, 0xFF	; 255
     fcc:	83 e0       	ldi	r24, 0x03	; 3
     fce:	c4 db       	rcall	.-2168   	; 0x758 <LCD_Custom_Char>
     fd0:	be 01       	movw	r22, r28
     fd2:	6f 5d       	subi	r22, 0xDF	; 223
     fd4:	7f 4f       	sbci	r23, 0xFF	; 255
     fd6:	84 e0       	ldi	r24, 0x04	; 4
     fd8:	bf db       	rcall	.-2178   	; 0x758 <LCD_Custom_Char>
     fda:	81 e0       	ldi	r24, 0x01	; 1
     fdc:	a7 d9       	rcall	.-3250   	; 0x32c <LCD_Cursor>
     fde:	85 e4       	ldi	r24, 0x45	; 69
     fe0:	bc d9       	rcall	.-3208   	; 0x35a <LCD_WriteData>
     fe2:	82 e0       	ldi	r24, 0x02	; 2
     fe4:	a3 d9       	rcall	.-3258   	; 0x32c <LCD_Cursor>
     fe6:	81 e4       	ldi	r24, 0x41	; 65
     fe8:	b8 d9       	rcall	.-3216   	; 0x35a <LCD_WriteData>
     fea:	83 e0       	ldi	r24, 0x03	; 3
     fec:	9f d9       	rcall	.-3266   	; 0x32c <LCD_Cursor>
     fee:	83 e5       	ldi	r24, 0x53	; 83
     ff0:	b4 d9       	rcall	.-3224   	; 0x35a <LCD_WriteData>
     ff2:	84 e0       	ldi	r24, 0x04	; 4
     ff4:	9b d9       	rcall	.-3274   	; 0x32c <LCD_Cursor>
     ff6:	89 e5       	ldi	r24, 0x59	; 89
     ff8:	b0 d9       	rcall	.-3232   	; 0x35a <LCD_WriteData>
     ffa:	85 e0       	ldi	r24, 0x05	; 5
     ffc:	97 d9       	rcall	.-3282   	; 0x32c <LCD_Cursor>
     ffe:	80 e2       	ldi	r24, 0x20	; 32
    1000:	ac d9       	rcall	.-3240   	; 0x35a <LCD_WriteData>
    1002:	86 e0       	ldi	r24, 0x06	; 6
    1004:	93 d9       	rcall	.-3290   	; 0x32c <LCD_Cursor>
    1006:	80 e2       	ldi	r24, 0x20	; 32
    1008:	a8 d9       	rcall	.-3248   	; 0x35a <LCD_WriteData>
    100a:	87 e0       	ldi	r24, 0x07	; 7
    100c:	8f d9       	rcall	.-3298   	; 0x32c <LCD_Cursor>
    100e:	80 e2       	ldi	r24, 0x20	; 32
    1010:	a4 d9       	rcall	.-3256   	; 0x35a <LCD_WriteData>
    1012:	88 e0       	ldi	r24, 0x08	; 8
    1014:	8b d9       	rcall	.-3306   	; 0x32c <LCD_Cursor>
    1016:	80 e2       	ldi	r24, 0x20	; 32
    1018:	a0 d9       	rcall	.-3264   	; 0x35a <LCD_WriteData>
    101a:	89 e0       	ldi	r24, 0x09	; 9
    101c:	87 d9       	rcall	.-3314   	; 0x32c <LCD_Cursor>
    101e:	80 e2       	ldi	r24, 0x20	; 32
    1020:	9c d9       	rcall	.-3272   	; 0x35a <LCD_WriteData>
    1022:	8a e0       	ldi	r24, 0x0A	; 10
    1024:	83 d9       	rcall	.-3322   	; 0x32c <LCD_Cursor>
    1026:	80 e2       	ldi	r24, 0x20	; 32
    1028:	98 d9       	rcall	.-3280   	; 0x35a <LCD_WriteData>
    102a:	8b e0       	ldi	r24, 0x0B	; 11
    102c:	7f d9       	rcall	.-3330   	; 0x32c <LCD_Cursor>
    102e:	80 e0       	ldi	r24, 0x00	; 0
    1030:	94 d9       	rcall	.-3288   	; 0x35a <LCD_WriteData>
    1032:	8c e0       	ldi	r24, 0x0C	; 12
    1034:	7b d9       	rcall	.-3338   	; 0x32c <LCD_Cursor>
    1036:	81 e0       	ldi	r24, 0x01	; 1
    1038:	90 d9       	rcall	.-3296   	; 0x35a <LCD_WriteData>
    103a:	8d e0       	ldi	r24, 0x0D	; 13
    103c:	77 d9       	rcall	.-3346   	; 0x32c <LCD_Cursor>
    103e:	82 e0       	ldi	r24, 0x02	; 2
    1040:	8c d9       	rcall	.-3304   	; 0x35a <LCD_WriteData>
    1042:	8e e0       	ldi	r24, 0x0E	; 14
    1044:	73 d9       	rcall	.-3354   	; 0x32c <LCD_Cursor>
    1046:	83 e0       	ldi	r24, 0x03	; 3
    1048:	88 d9       	rcall	.-3312   	; 0x35a <LCD_WriteData>
    104a:	8f e0       	ldi	r24, 0x0F	; 15
    104c:	6f d9       	rcall	.-3362   	; 0x32c <LCD_Cursor>
    104e:	84 e0       	ldi	r24, 0x04	; 4
    1050:	84 d9       	rcall	.-3320   	; 0x35a <LCD_WriteData>
    1052:	80 e1       	ldi	r24, 0x10	; 16
    1054:	6b d9       	rcall	.-3370   	; 0x32c <LCD_Cursor>
    1056:	80 e0       	ldi	r24, 0x00	; 0
    1058:	80 d9       	rcall	.-3328   	; 0x35a <LCD_WriteData>
    105a:	81 e1       	ldi	r24, 0x11	; 17
    105c:	67 d9       	rcall	.-3378   	; 0x32c <LCD_Cursor>
    105e:	88 e4       	ldi	r24, 0x48	; 72
    1060:	7c d9       	rcall	.-3336   	; 0x35a <LCD_WriteData>
    1062:	82 e1       	ldi	r24, 0x12	; 18
    1064:	63 d9       	rcall	.-3386   	; 0x32c <LCD_Cursor>
    1066:	81 e4       	ldi	r24, 0x41	; 65
    1068:	78 d9       	rcall	.-3344   	; 0x35a <LCD_WriteData>
    106a:	83 e1       	ldi	r24, 0x13	; 19
    106c:	5f d9       	rcall	.-3394   	; 0x32c <LCD_Cursor>
    106e:	82 e5       	ldi	r24, 0x52	; 82
    1070:	74 d9       	rcall	.-3352   	; 0x35a <LCD_WriteData>
    1072:	84 e1       	ldi	r24, 0x14	; 20
    1074:	5b d9       	rcall	.-3402   	; 0x32c <LCD_Cursor>
    1076:	84 e4       	ldi	r24, 0x44	; 68
    1078:	70 d9       	rcall	.-3360   	; 0x35a <LCD_WriteData>
    107a:	85 e1       	ldi	r24, 0x15	; 21
    107c:	57 d9       	rcall	.-3410   	; 0x32c <LCD_Cursor>
    107e:	80 e2       	ldi	r24, 0x20	; 32
    1080:	6c d9       	rcall	.-3368   	; 0x35a <LCD_WriteData>
    1082:	86 e1       	ldi	r24, 0x16	; 22
    1084:	53 d9       	rcall	.-3418   	; 0x32c <LCD_Cursor>
    1086:	80 e2       	ldi	r24, 0x20	; 32
    1088:	68 d9       	rcall	.-3376   	; 0x35a <LCD_WriteData>
    108a:	87 e1       	ldi	r24, 0x17	; 23
    108c:	4f d9       	rcall	.-3426   	; 0x32c <LCD_Cursor>
    108e:	80 e2       	ldi	r24, 0x20	; 32
    1090:	64 d9       	rcall	.-3384   	; 0x35a <LCD_WriteData>
    1092:	88 e1       	ldi	r24, 0x18	; 24
    1094:	4b d9       	rcall	.-3434   	; 0x32c <LCD_Cursor>
    1096:	80 e2       	ldi	r24, 0x20	; 32
    1098:	60 d9       	rcall	.-3392   	; 0x35a <LCD_WriteData>
    109a:	89 e1       	ldi	r24, 0x19	; 25
    109c:	47 d9       	rcall	.-3442   	; 0x32c <LCD_Cursor>
    109e:	80 e2       	ldi	r24, 0x20	; 32
    10a0:	5c d9       	rcall	.-3400   	; 0x35a <LCD_WriteData>
    10a2:	8a e1       	ldi	r24, 0x1A	; 26
    10a4:	43 d9       	rcall	.-3450   	; 0x32c <LCD_Cursor>
    10a6:	80 e2       	ldi	r24, 0x20	; 32
    10a8:	58 d9       	rcall	.-3408   	; 0x35a <LCD_WriteData>
    10aa:	8b e1       	ldi	r24, 0x1B	; 27
    10ac:	3f d9       	rcall	.-3458   	; 0x32c <LCD_Cursor>
    10ae:	80 e2       	ldi	r24, 0x20	; 32
    10b0:	54 d9       	rcall	.-3416   	; 0x35a <LCD_WriteData>
    10b2:	8c e1       	ldi	r24, 0x1C	; 28
    10b4:	3b d9       	rcall	.-3466   	; 0x32c <LCD_Cursor>
    10b6:	80 e2       	ldi	r24, 0x20	; 32
    10b8:	50 d9       	rcall	.-3424   	; 0x35a <LCD_WriteData>
    10ba:	8d e1       	ldi	r24, 0x1D	; 29
    10bc:	37 d9       	rcall	.-3474   	; 0x32c <LCD_Cursor>
    10be:	80 e2       	ldi	r24, 0x20	; 32
    10c0:	4c d9       	rcall	.-3432   	; 0x35a <LCD_WriteData>
    10c2:	8e e1       	ldi	r24, 0x1E	; 30
    10c4:	33 d9       	rcall	.-3482   	; 0x32c <LCD_Cursor>
    10c6:	80 e2       	ldi	r24, 0x20	; 32
    10c8:	48 d9       	rcall	.-3440   	; 0x35a <LCD_WriteData>
    10ca:	8f e1       	ldi	r24, 0x1F	; 31
    10cc:	2f d9       	rcall	.-3490   	; 0x32c <LCD_Cursor>
    10ce:	80 e2       	ldi	r24, 0x20	; 32
    10d0:	44 d9       	rcall	.-3448   	; 0x35a <LCD_WriteData>
    10d2:	80 e2       	ldi	r24, 0x20	; 32
    10d4:	2b d9       	rcall	.-3498   	; 0x32c <LCD_Cursor>
    10d6:	80 e2       	ldi	r24, 0x20	; 32
    10d8:	40 d9       	rcall	.-3456   	; 0x35a <LCD_WriteData>
    10da:	a8 96       	adiw	r28, 0x28	; 40
    10dc:	0f b6       	in	r0, 0x3f	; 63
    10de:	f8 94       	cli
    10e0:	de bf       	out	0x3e, r29	; 62
    10e2:	0f be       	out	0x3f, r0	; 63
    10e4:	cd bf       	out	0x3d, r28	; 61
    10e6:	df 91       	pop	r29
    10e8:	cf 91       	pop	r28
    10ea:	08 95       	ret

000010ec <dispDifHard>:
    10ec:	cf 93       	push	r28
    10ee:	df 93       	push	r29
    10f0:	cd b7       	in	r28, 0x3d	; 61
    10f2:	de b7       	in	r29, 0x3e	; 62
    10f4:	a0 97       	sbiw	r28, 0x20	; 32
    10f6:	0f b6       	in	r0, 0x3f	; 63
    10f8:	f8 94       	cli
    10fa:	de bf       	out	0x3e, r29	; 62
    10fc:	0f be       	out	0x3f, r0	; 63
    10fe:	cd bf       	out	0x3d, r28	; 61
    1100:	88 e0       	ldi	r24, 0x08	; 8
    1102:	ef e6       	ldi	r30, 0x6F	; 111
    1104:	f1 e0       	ldi	r31, 0x01	; 1
    1106:	de 01       	movw	r26, r28
    1108:	11 96       	adiw	r26, 0x01	; 1
    110a:	01 90       	ld	r0, Z+
    110c:	0d 92       	st	X+, r0
    110e:	8a 95       	dec	r24
    1110:	e1 f7       	brne	.-8      	; 0x110a <dispDifHard+0x1e>
    1112:	88 e0       	ldi	r24, 0x08	; 8
    1114:	ef e3       	ldi	r30, 0x3F	; 63
    1116:	f1 e0       	ldi	r31, 0x01	; 1
    1118:	de 01       	movw	r26, r28
    111a:	19 96       	adiw	r26, 0x09	; 9
    111c:	01 90       	ld	r0, Z+
    111e:	0d 92       	st	X+, r0
    1120:	8a 95       	dec	r24
    1122:	e1 f7       	brne	.-8      	; 0x111c <dispDifHard+0x30>
    1124:	88 e0       	ldi	r24, 0x08	; 8
    1126:	e7 e5       	ldi	r30, 0x57	; 87
    1128:	f1 e0       	ldi	r31, 0x01	; 1
    112a:	de 01       	movw	r26, r28
    112c:	51 96       	adiw	r26, 0x11	; 17
    112e:	01 90       	ld	r0, Z+
    1130:	0d 92       	st	X+, r0
    1132:	8a 95       	dec	r24
    1134:	e1 f7       	brne	.-8      	; 0x112e <dispDifHard+0x42>
    1136:	88 e0       	ldi	r24, 0x08	; 8
    1138:	e7 e7       	ldi	r30, 0x77	; 119
    113a:	f1 e0       	ldi	r31, 0x01	; 1
    113c:	de 01       	movw	r26, r28
    113e:	59 96       	adiw	r26, 0x19	; 25
    1140:	01 90       	ld	r0, Z+
    1142:	0d 92       	st	X+, r0
    1144:	8a 95       	dec	r24
    1146:	e1 f7       	brne	.-8      	; 0x1140 <dispDifHard+0x54>
    1148:	be 01       	movw	r22, r28
    114a:	6f 5f       	subi	r22, 0xFF	; 255
    114c:	7f 4f       	sbci	r23, 0xFF	; 255
    114e:	80 e0       	ldi	r24, 0x00	; 0
    1150:	03 db       	rcall	.-2554   	; 0x758 <LCD_Custom_Char>
    1152:	be 01       	movw	r22, r28
    1154:	67 5f       	subi	r22, 0xF7	; 247
    1156:	7f 4f       	sbci	r23, 0xFF	; 255
    1158:	81 e0       	ldi	r24, 0x01	; 1
    115a:	fe da       	rcall	.-2564   	; 0x758 <LCD_Custom_Char>
    115c:	be 01       	movw	r22, r28
    115e:	67 5e       	subi	r22, 0xE7	; 231
    1160:	7f 4f       	sbci	r23, 0xFF	; 255
    1162:	82 e0       	ldi	r24, 0x02	; 2
    1164:	f9 da       	rcall	.-2574   	; 0x758 <LCD_Custom_Char>
    1166:	be 01       	movw	r22, r28
    1168:	6f 5e       	subi	r22, 0xEF	; 239
    116a:	7f 4f       	sbci	r23, 0xFF	; 255
    116c:	83 e0       	ldi	r24, 0x03	; 3
    116e:	f4 da       	rcall	.-2584   	; 0x758 <LCD_Custom_Char>
    1170:	81 e0       	ldi	r24, 0x01	; 1
    1172:	dc d8       	rcall	.-3656   	; 0x32c <LCD_Cursor>
    1174:	85 e4       	ldi	r24, 0x45	; 69
    1176:	f1 d8       	rcall	.-3614   	; 0x35a <LCD_WriteData>
    1178:	82 e0       	ldi	r24, 0x02	; 2
    117a:	d8 d8       	rcall	.-3664   	; 0x32c <LCD_Cursor>
    117c:	81 e4       	ldi	r24, 0x41	; 65
    117e:	ed d8       	rcall	.-3622   	; 0x35a <LCD_WriteData>
    1180:	83 e0       	ldi	r24, 0x03	; 3
    1182:	d4 d8       	rcall	.-3672   	; 0x32c <LCD_Cursor>
    1184:	83 e5       	ldi	r24, 0x53	; 83
    1186:	e9 d8       	rcall	.-3630   	; 0x35a <LCD_WriteData>
    1188:	84 e0       	ldi	r24, 0x04	; 4
    118a:	d0 d8       	rcall	.-3680   	; 0x32c <LCD_Cursor>
    118c:	89 e5       	ldi	r24, 0x59	; 89
    118e:	e5 d8       	rcall	.-3638   	; 0x35a <LCD_WriteData>
    1190:	85 e0       	ldi	r24, 0x05	; 5
    1192:	cc d8       	rcall	.-3688   	; 0x32c <LCD_Cursor>
    1194:	80 e2       	ldi	r24, 0x20	; 32
    1196:	e1 d8       	rcall	.-3646   	; 0x35a <LCD_WriteData>
    1198:	86 e0       	ldi	r24, 0x06	; 6
    119a:	c8 d8       	rcall	.-3696   	; 0x32c <LCD_Cursor>
    119c:	80 e2       	ldi	r24, 0x20	; 32
    119e:	dd d8       	rcall	.-3654   	; 0x35a <LCD_WriteData>
    11a0:	87 e0       	ldi	r24, 0x07	; 7
    11a2:	c4 d8       	rcall	.-3704   	; 0x32c <LCD_Cursor>
    11a4:	80 e2       	ldi	r24, 0x20	; 32
    11a6:	d9 d8       	rcall	.-3662   	; 0x35a <LCD_WriteData>
    11a8:	88 e0       	ldi	r24, 0x08	; 8
    11aa:	c0 d8       	rcall	.-3712   	; 0x32c <LCD_Cursor>
    11ac:	80 e2       	ldi	r24, 0x20	; 32
    11ae:	d5 d8       	rcall	.-3670   	; 0x35a <LCD_WriteData>
    11b0:	89 e0       	ldi	r24, 0x09	; 9
    11b2:	bc d8       	rcall	.-3720   	; 0x32c <LCD_Cursor>
    11b4:	80 e2       	ldi	r24, 0x20	; 32
    11b6:	d1 d8       	rcall	.-3678   	; 0x35a <LCD_WriteData>
    11b8:	8a e0       	ldi	r24, 0x0A	; 10
    11ba:	b8 d8       	rcall	.-3728   	; 0x32c <LCD_Cursor>
    11bc:	80 e2       	ldi	r24, 0x20	; 32
    11be:	cd d8       	rcall	.-3686   	; 0x35a <LCD_WriteData>
    11c0:	8b e0       	ldi	r24, 0x0B	; 11
    11c2:	b4 d8       	rcall	.-3736   	; 0x32c <LCD_Cursor>
    11c4:	8d e4       	ldi	r24, 0x4D	; 77
    11c6:	c9 d8       	rcall	.-3694   	; 0x35a <LCD_WriteData>
    11c8:	8c e0       	ldi	r24, 0x0C	; 12
    11ca:	b0 d8       	rcall	.-3744   	; 0x32c <LCD_Cursor>
    11cc:	85 e4       	ldi	r24, 0x45	; 69
    11ce:	c5 d8       	rcall	.-3702   	; 0x35a <LCD_WriteData>
    11d0:	8d e0       	ldi	r24, 0x0D	; 13
    11d2:	ac d8       	rcall	.-3752   	; 0x32c <LCD_Cursor>
    11d4:	84 e4       	ldi	r24, 0x44	; 68
    11d6:	c1 d8       	rcall	.-3710   	; 0x35a <LCD_WriteData>
    11d8:	8e e0       	ldi	r24, 0x0E	; 14
    11da:	a8 d8       	rcall	.-3760   	; 0x32c <LCD_Cursor>
    11dc:	89 e4       	ldi	r24, 0x49	; 73
    11de:	bd d8       	rcall	.-3718   	; 0x35a <LCD_WriteData>
    11e0:	8f e0       	ldi	r24, 0x0F	; 15
    11e2:	a4 d8       	rcall	.-3768   	; 0x32c <LCD_Cursor>
    11e4:	85 e5       	ldi	r24, 0x55	; 85
    11e6:	b9 d8       	rcall	.-3726   	; 0x35a <LCD_WriteData>
    11e8:	80 e1       	ldi	r24, 0x10	; 16
    11ea:	a0 d8       	rcall	.-3776   	; 0x32c <LCD_Cursor>
    11ec:	8d e4       	ldi	r24, 0x4D	; 77
    11ee:	b5 d8       	rcall	.-3734   	; 0x35a <LCD_WriteData>
    11f0:	81 e1       	ldi	r24, 0x11	; 17
    11f2:	9c d8       	rcall	.-3784   	; 0x32c <LCD_Cursor>
    11f4:	80 e0       	ldi	r24, 0x00	; 0
    11f6:	b1 d8       	rcall	.-3742   	; 0x35a <LCD_WriteData>
    11f8:	82 e1       	ldi	r24, 0x12	; 18
    11fa:	98 d8       	rcall	.-3792   	; 0x32c <LCD_Cursor>
    11fc:	81 e0       	ldi	r24, 0x01	; 1
    11fe:	ad d8       	rcall	.-3750   	; 0x35a <LCD_WriteData>
    1200:	83 e1       	ldi	r24, 0x13	; 19
    1202:	94 d8       	rcall	.-3800   	; 0x32c <LCD_Cursor>
    1204:	82 e0       	ldi	r24, 0x02	; 2
    1206:	a9 d8       	rcall	.-3758   	; 0x35a <LCD_WriteData>
    1208:	84 e1       	ldi	r24, 0x14	; 20
    120a:	90 d8       	rcall	.-3808   	; 0x32c <LCD_Cursor>
    120c:	83 e0       	ldi	r24, 0x03	; 3
    120e:	a5 d8       	rcall	.-3766   	; 0x35a <LCD_WriteData>
    1210:	85 e1       	ldi	r24, 0x15	; 21
    1212:	8c d8       	rcall	.-3816   	; 0x32c <LCD_Cursor>
    1214:	80 e2       	ldi	r24, 0x20	; 32
    1216:	a1 d8       	rcall	.-3774   	; 0x35a <LCD_WriteData>
    1218:	86 e1       	ldi	r24, 0x16	; 22
    121a:	88 d8       	rcall	.-3824   	; 0x32c <LCD_Cursor>
    121c:	80 e2       	ldi	r24, 0x20	; 32
    121e:	9d d8       	rcall	.-3782   	; 0x35a <LCD_WriteData>
    1220:	87 e1       	ldi	r24, 0x17	; 23
    1222:	84 d8       	rcall	.-3832   	; 0x32c <LCD_Cursor>
    1224:	80 e2       	ldi	r24, 0x20	; 32
    1226:	99 d8       	rcall	.-3790   	; 0x35a <LCD_WriteData>
    1228:	88 e1       	ldi	r24, 0x18	; 24
    122a:	80 d8       	rcall	.-3840   	; 0x32c <LCD_Cursor>
    122c:	80 e2       	ldi	r24, 0x20	; 32
    122e:	95 d8       	rcall	.-3798   	; 0x35a <LCD_WriteData>
    1230:	89 e1       	ldi	r24, 0x19	; 25
    1232:	7c d8       	rcall	.-3848   	; 0x32c <LCD_Cursor>
    1234:	80 e2       	ldi	r24, 0x20	; 32
    1236:	91 d8       	rcall	.-3806   	; 0x35a <LCD_WriteData>
    1238:	8a e1       	ldi	r24, 0x1A	; 26
    123a:	78 d8       	rcall	.-3856   	; 0x32c <LCD_Cursor>
    123c:	80 e2       	ldi	r24, 0x20	; 32
    123e:	8d d8       	rcall	.-3814   	; 0x35a <LCD_WriteData>
    1240:	8b e1       	ldi	r24, 0x1B	; 27
    1242:	74 d8       	rcall	.-3864   	; 0x32c <LCD_Cursor>
    1244:	80 e2       	ldi	r24, 0x20	; 32
    1246:	89 d8       	rcall	.-3822   	; 0x35a <LCD_WriteData>
    1248:	8c e1       	ldi	r24, 0x1C	; 28
    124a:	70 d8       	rcall	.-3872   	; 0x32c <LCD_Cursor>
    124c:	80 e2       	ldi	r24, 0x20	; 32
    124e:	85 d8       	rcall	.-3830   	; 0x35a <LCD_WriteData>
    1250:	8d e1       	ldi	r24, 0x1D	; 29
    1252:	6c d8       	rcall	.-3880   	; 0x32c <LCD_Cursor>
    1254:	80 e2       	ldi	r24, 0x20	; 32
    1256:	81 d8       	rcall	.-3838   	; 0x35a <LCD_WriteData>
    1258:	8e e1       	ldi	r24, 0x1E	; 30
    125a:	68 d8       	rcall	.-3888   	; 0x32c <LCD_Cursor>
    125c:	80 e2       	ldi	r24, 0x20	; 32
    125e:	7d d8       	rcall	.-3846   	; 0x35a <LCD_WriteData>
    1260:	8f e1       	ldi	r24, 0x1F	; 31
    1262:	64 d8       	rcall	.-3896   	; 0x32c <LCD_Cursor>
    1264:	80 e2       	ldi	r24, 0x20	; 32
    1266:	79 d8       	rcall	.-3854   	; 0x35a <LCD_WriteData>
    1268:	80 e2       	ldi	r24, 0x20	; 32
    126a:	60 d8       	rcall	.-3904   	; 0x32c <LCD_Cursor>
    126c:	80 e2       	ldi	r24, 0x20	; 32
    126e:	75 d8       	rcall	.-3862   	; 0x35a <LCD_WriteData>
    1270:	a0 96       	adiw	r28, 0x20	; 32
    1272:	0f b6       	in	r0, 0x3f	; 63
    1274:	f8 94       	cli
    1276:	de bf       	out	0x3e, r29	; 62
    1278:	0f be       	out	0x3f, r0	; 63
    127a:	cd bf       	out	0x3d, r28	; 61
    127c:	df 91       	pop	r29
    127e:	cf 91       	pop	r28
    1280:	08 95       	ret

00001282 <setDifficulty>:
    1282:	80 91 d7 03 	lds	r24, 0x03D7	; 0x8003d7 <diff>
    1286:	81 30       	cpi	r24, 0x01	; 1
    1288:	c9 f0       	breq	.+50     	; 0x12bc <setDifficulty+0x3a>
    128a:	30 f0       	brcs	.+12     	; 0x1298 <setDifficulty+0x16>
    128c:	82 30       	cpi	r24, 0x02	; 2
    128e:	71 f1       	breq	.+92     	; 0x12ec <setDifficulty+0x6a>
    1290:	83 30       	cpi	r24, 0x03	; 3
    1292:	09 f4       	brne	.+2      	; 0x1296 <setDifficulty+0x14>
    1294:	43 c0       	rjmp	.+134    	; 0x131c <setDifficulty+0x9a>
    1296:	5b c0       	rjmp	.+182    	; 0x134e <setDifficulty+0xcc>
    1298:	80 91 02 01 	lds	r24, 0x0102	; 0x800102 <difficulty>
    129c:	81 11       	cpse	r24, r1
    129e:	04 c0       	rjmp	.+8      	; 0x12a8 <setDifficulty+0x26>
    12a0:	81 e0       	ldi	r24, 0x01	; 1
    12a2:	80 93 d7 03 	sts	0x03D7, r24	; 0x8003d7 <diff>
    12a6:	67 c0       	rjmp	.+206    	; 0x1376 <setDifficulty+0xf4>
    12a8:	81 30       	cpi	r24, 0x01	; 1
    12aa:	21 f4       	brne	.+8      	; 0x12b4 <setDifficulty+0x32>
    12ac:	82 e0       	ldi	r24, 0x02	; 2
    12ae:	80 93 d7 03 	sts	0x03D7, r24	; 0x8003d7 <diff>
    12b2:	63 c0       	rjmp	.+198    	; 0x137a <setDifficulty+0xf8>
    12b4:	83 e0       	ldi	r24, 0x03	; 3
    12b6:	80 93 d7 03 	sts	0x03D7, r24	; 0x8003d7 <diff>
    12ba:	61 c0       	rjmp	.+194    	; 0x137e <setDifficulty+0xfc>
    12bc:	01 99       	sbic	0x00, 1	; 0
    12be:	04 c0       	rjmp	.+8      	; 0x12c8 <setDifficulty+0x46>
    12c0:	82 e0       	ldi	r24, 0x02	; 2
    12c2:	80 93 d7 03 	sts	0x03D7, r24	; 0x8003d7 <diff>
    12c6:	59 c0       	rjmp	.+178    	; 0x137a <setDifficulty+0xf8>
    12c8:	02 99       	sbic	0x00, 2	; 0
    12ca:	04 c0       	rjmp	.+8      	; 0x12d4 <setDifficulty+0x52>
    12cc:	83 e0       	ldi	r24, 0x03	; 3
    12ce:	80 93 d7 03 	sts	0x03D7, r24	; 0x8003d7 <diff>
    12d2:	55 c0       	rjmp	.+170    	; 0x137e <setDifficulty+0xfc>
    12d4:	04 99       	sbic	0x00, 4	; 0
    12d6:	4f c0       	rjmp	.+158    	; 0x1376 <setDifficulty+0xf4>
    12d8:	04 9b       	sbis	0x00, 4	; 0
    12da:	fe cf       	rjmp	.-4      	; 0x12d8 <setDifficulty+0x56>
    12dc:	10 92 02 01 	sts	0x0102, r1	; 0x800102 <difficulty>
    12e0:	10 92 d5 01 	sts	0x01D5, r1	; 0x8001d5 <inDifficulty>
    12e4:	81 e0       	ldi	r24, 0x01	; 1
    12e6:	80 93 00 01 	sts	0x0100, r24	; 0x800100 <__data_start>
    12ea:	45 c0       	rjmp	.+138    	; 0x1376 <setDifficulty+0xf4>
    12ec:	03 99       	sbic	0x00, 3	; 0
    12ee:	04 c0       	rjmp	.+8      	; 0x12f8 <setDifficulty+0x76>
    12f0:	81 e0       	ldi	r24, 0x01	; 1
    12f2:	80 93 d7 03 	sts	0x03D7, r24	; 0x8003d7 <diff>
    12f6:	3f c0       	rjmp	.+126    	; 0x1376 <setDifficulty+0xf4>
    12f8:	02 99       	sbic	0x00, 2	; 0
    12fa:	04 c0       	rjmp	.+8      	; 0x1304 <setDifficulty+0x82>
    12fc:	83 e0       	ldi	r24, 0x03	; 3
    12fe:	80 93 d7 03 	sts	0x03D7, r24	; 0x8003d7 <diff>
    1302:	3d c0       	rjmp	.+122    	; 0x137e <setDifficulty+0xfc>
    1304:	04 99       	sbic	0x00, 4	; 0
    1306:	39 c0       	rjmp	.+114    	; 0x137a <setDifficulty+0xf8>
    1308:	04 9b       	sbis	0x00, 4	; 0
    130a:	fe cf       	rjmp	.-4      	; 0x1308 <setDifficulty+0x86>
    130c:	81 e0       	ldi	r24, 0x01	; 1
    130e:	80 93 02 01 	sts	0x0102, r24	; 0x800102 <difficulty>
    1312:	10 92 d5 01 	sts	0x01D5, r1	; 0x8001d5 <inDifficulty>
    1316:	80 93 00 01 	sts	0x0100, r24	; 0x800100 <__data_start>
    131a:	2f c0       	rjmp	.+94     	; 0x137a <setDifficulty+0xf8>
    131c:	00 99       	sbic	0x00, 0	; 0
    131e:	04 c0       	rjmp	.+8      	; 0x1328 <setDifficulty+0xa6>
    1320:	81 e0       	ldi	r24, 0x01	; 1
    1322:	80 93 d7 03 	sts	0x03D7, r24	; 0x8003d7 <diff>
    1326:	27 c0       	rjmp	.+78     	; 0x1376 <setDifficulty+0xf4>
    1328:	01 99       	sbic	0x00, 1	; 0
    132a:	04 c0       	rjmp	.+8      	; 0x1334 <setDifficulty+0xb2>
    132c:	82 e0       	ldi	r24, 0x02	; 2
    132e:	80 93 d7 03 	sts	0x03D7, r24	; 0x8003d7 <diff>
    1332:	23 c0       	rjmp	.+70     	; 0x137a <setDifficulty+0xf8>
    1334:	04 99       	sbic	0x00, 4	; 0
    1336:	23 c0       	rjmp	.+70     	; 0x137e <setDifficulty+0xfc>
    1338:	04 9b       	sbis	0x00, 4	; 0
    133a:	fe cf       	rjmp	.-4      	; 0x1338 <setDifficulty+0xb6>
    133c:	82 e0       	ldi	r24, 0x02	; 2
    133e:	80 93 02 01 	sts	0x0102, r24	; 0x800102 <difficulty>
    1342:	10 92 d5 01 	sts	0x01D5, r1	; 0x8001d5 <inDifficulty>
    1346:	81 e0       	ldi	r24, 0x01	; 1
    1348:	80 93 00 01 	sts	0x0100, r24	; 0x800100 <__data_start>
    134c:	18 c0       	rjmp	.+48     	; 0x137e <setDifficulty+0xfc>
    134e:	81 30       	cpi	r24, 0x01	; 1
    1350:	91 f0       	breq	.+36     	; 0x1376 <setDifficulty+0xf4>
    1352:	28 f0       	brcs	.+10     	; 0x135e <setDifficulty+0xdc>
    1354:	82 30       	cpi	r24, 0x02	; 2
    1356:	89 f0       	breq	.+34     	; 0x137a <setDifficulty+0xf8>
    1358:	83 30       	cpi	r24, 0x03	; 3
    135a:	99 f4       	brne	.+38     	; 0x1382 <setDifficulty+0x100>
    135c:	10 c0       	rjmp	.+32     	; 0x137e <setDifficulty+0xfc>
    135e:	80 91 02 01 	lds	r24, 0x0102	; 0x800102 <difficulty>
    1362:	81 11       	cpse	r24, r1
    1364:	02 c0       	rjmp	.+4      	; 0x136a <setDifficulty+0xe8>
    1366:	1e cd       	rjmp	.-1476   	; 0xda4 <dispDifEasy>
    1368:	08 95       	ret
    136a:	81 30       	cpi	r24, 0x01	; 1
    136c:	11 f4       	brne	.+4      	; 0x1372 <setDifficulty+0xf0>
    136e:	e5 cd       	rjmp	.-1078   	; 0xf3a <dispDifMedium>
    1370:	08 95       	ret
    1372:	bc ce       	rjmp	.-648    	; 0x10ec <dispDifHard>
    1374:	08 95       	ret
    1376:	16 cd       	rjmp	.-1492   	; 0xda4 <dispDifEasy>
    1378:	08 95       	ret
    137a:	df cd       	rjmp	.-1090   	; 0xf3a <dispDifMedium>
    137c:	08 95       	ret
    137e:	b6 ce       	rjmp	.-660    	; 0x10ec <dispDifHard>
    1380:	08 95       	ret
    1382:	80 91 02 01 	lds	r24, 0x0102	; 0x800102 <difficulty>
    1386:	81 11       	cpse	r24, r1
    1388:	02 c0       	rjmp	.+4      	; 0x138e <setDifficulty+0x10c>
    138a:	0c cd       	rjmp	.-1512   	; 0xda4 <dispDifEasy>
    138c:	08 95       	ret
    138e:	81 30       	cpi	r24, 0x01	; 1
    1390:	11 f4       	brne	.+4      	; 0x1396 <setDifficulty+0x114>
    1392:	d3 cd       	rjmp	.-1114   	; 0xf3a <dispDifMedium>
    1394:	08 95       	ret
    1396:	aa ce       	rjmp	.-684    	; 0x10ec <dispDifHard>
    1398:	08 95       	ret

0000139a <dispTopRight>:
    139a:	cf 93       	push	r28
    139c:	df 93       	push	r29
    139e:	cd b7       	in	r28, 0x3d	; 61
    13a0:	de b7       	in	r29, 0x3e	; 62
    13a2:	c0 54       	subi	r28, 0x40	; 64
    13a4:	d1 09       	sbc	r29, r1
    13a6:	0f b6       	in	r0, 0x3f	; 63
    13a8:	f8 94       	cli
    13aa:	de bf       	out	0x3e, r29	; 62
    13ac:	0f be       	out	0x3f, r0	; 63
    13ae:	cd bf       	out	0x3d, r28	; 61
    13b0:	88 e0       	ldi	r24, 0x08	; 8
    13b2:	e7 e5       	ldi	r30, 0x57	; 87
    13b4:	f1 e0       	ldi	r31, 0x01	; 1
    13b6:	de 01       	movw	r26, r28
    13b8:	11 96       	adiw	r26, 0x01	; 1
    13ba:	01 90       	ld	r0, Z+
    13bc:	0d 92       	st	X+, r0
    13be:	8a 95       	dec	r24
    13c0:	e1 f7       	brne	.-8      	; 0x13ba <dispTopRight+0x20>
    13c2:	88 e0       	ldi	r24, 0x08	; 8
    13c4:	ef e5       	ldi	r30, 0x5F	; 95
    13c6:	f1 e0       	ldi	r31, 0x01	; 1
    13c8:	de 01       	movw	r26, r28
    13ca:	19 96       	adiw	r26, 0x09	; 9
    13cc:	01 90       	ld	r0, Z+
    13ce:	0d 92       	st	X+, r0
    13d0:	8a 95       	dec	r24
    13d2:	e1 f7       	brne	.-8      	; 0x13cc <dispTopRight+0x32>
    13d4:	88 e0       	ldi	r24, 0x08	; 8
    13d6:	ef e7       	ldi	r30, 0x7F	; 127
    13d8:	f1 e0       	ldi	r31, 0x01	; 1
    13da:	de 01       	movw	r26, r28
    13dc:	51 96       	adiw	r26, 0x11	; 17
    13de:	01 90       	ld	r0, Z+
    13e0:	0d 92       	st	X+, r0
    13e2:	8a 95       	dec	r24
    13e4:	e1 f7       	brne	.-8      	; 0x13de <dispTopRight+0x44>
    13e6:	88 e0       	ldi	r24, 0x08	; 8
    13e8:	e7 e2       	ldi	r30, 0x27	; 39
    13ea:	f1 e0       	ldi	r31, 0x01	; 1
    13ec:	de 01       	movw	r26, r28
    13ee:	59 96       	adiw	r26, 0x19	; 25
    13f0:	01 90       	ld	r0, Z+
    13f2:	0d 92       	st	X+, r0
    13f4:	8a 95       	dec	r24
    13f6:	e1 f7       	brne	.-8      	; 0x13f0 <dispTopRight+0x56>
    13f8:	88 e0       	ldi	r24, 0x08	; 8
    13fa:	e7 e6       	ldi	r30, 0x67	; 103
    13fc:	f1 e0       	ldi	r31, 0x01	; 1
    13fe:	de 01       	movw	r26, r28
    1400:	91 96       	adiw	r26, 0x21	; 33
    1402:	01 90       	ld	r0, Z+
    1404:	0d 92       	st	X+, r0
    1406:	8a 95       	dec	r24
    1408:	e1 f7       	brne	.-8      	; 0x1402 <dispTopRight+0x68>
    140a:	88 e0       	ldi	r24, 0x08	; 8
    140c:	e7 e8       	ldi	r30, 0x87	; 135
    140e:	f1 e0       	ldi	r31, 0x01	; 1
    1410:	de 01       	movw	r26, r28
    1412:	99 96       	adiw	r26, 0x29	; 41
    1414:	01 90       	ld	r0, Z+
    1416:	0d 92       	st	X+, r0
    1418:	8a 95       	dec	r24
    141a:	e1 f7       	brne	.-8      	; 0x1414 <dispTopRight+0x7a>
    141c:	88 e0       	ldi	r24, 0x08	; 8
    141e:	ef e8       	ldi	r30, 0x8F	; 143
    1420:	f1 e0       	ldi	r31, 0x01	; 1
    1422:	de 01       	movw	r26, r28
    1424:	d1 96       	adiw	r26, 0x31	; 49
    1426:	01 90       	ld	r0, Z+
    1428:	0d 92       	st	X+, r0
    142a:	8a 95       	dec	r24
    142c:	e1 f7       	brne	.-8      	; 0x1426 <dispTopRight+0x8c>
    142e:	88 e0       	ldi	r24, 0x08	; 8
    1430:	e7 e4       	ldi	r30, 0x47	; 71
    1432:	f1 e0       	ldi	r31, 0x01	; 1
    1434:	de 01       	movw	r26, r28
    1436:	d9 96       	adiw	r26, 0x39	; 57
    1438:	01 90       	ld	r0, Z+
    143a:	0d 92       	st	X+, r0
    143c:	8a 95       	dec	r24
    143e:	e1 f7       	brne	.-8      	; 0x1438 <dispTopRight+0x9e>
    1440:	be 01       	movw	r22, r28
    1442:	6f 5f       	subi	r22, 0xFF	; 255
    1444:	7f 4f       	sbci	r23, 0xFF	; 255
    1446:	80 e0       	ldi	r24, 0x00	; 0
    1448:	87 d9       	rcall	.-3314   	; 0x758 <LCD_Custom_Char>
    144a:	be 01       	movw	r22, r28
    144c:	67 5f       	subi	r22, 0xF7	; 247
    144e:	7f 4f       	sbci	r23, 0xFF	; 255
    1450:	81 e0       	ldi	r24, 0x01	; 1
    1452:	82 d9       	rcall	.-3324   	; 0x758 <LCD_Custom_Char>
    1454:	be 01       	movw	r22, r28
    1456:	6f 5e       	subi	r22, 0xEF	; 239
    1458:	7f 4f       	sbci	r23, 0xFF	; 255
    145a:	82 e0       	ldi	r24, 0x02	; 2
    145c:	7d d9       	rcall	.-3334   	; 0x758 <LCD_Custom_Char>
    145e:	be 01       	movw	r22, r28
    1460:	67 5e       	subi	r22, 0xE7	; 231
    1462:	7f 4f       	sbci	r23, 0xFF	; 255
    1464:	83 e0       	ldi	r24, 0x03	; 3
    1466:	78 d9       	rcall	.-3344   	; 0x758 <LCD_Custom_Char>
    1468:	be 01       	movw	r22, r28
    146a:	6f 5d       	subi	r22, 0xDF	; 223
    146c:	7f 4f       	sbci	r23, 0xFF	; 255
    146e:	84 e0       	ldi	r24, 0x04	; 4
    1470:	73 d9       	rcall	.-3354   	; 0x758 <LCD_Custom_Char>
    1472:	be 01       	movw	r22, r28
    1474:	67 5d       	subi	r22, 0xD7	; 215
    1476:	7f 4f       	sbci	r23, 0xFF	; 255
    1478:	85 e0       	ldi	r24, 0x05	; 5
    147a:	6e d9       	rcall	.-3364   	; 0x758 <LCD_Custom_Char>
    147c:	be 01       	movw	r22, r28
    147e:	6f 5c       	subi	r22, 0xCF	; 207
    1480:	7f 4f       	sbci	r23, 0xFF	; 255
    1482:	86 e0       	ldi	r24, 0x06	; 6
    1484:	69 d9       	rcall	.-3374   	; 0x758 <LCD_Custom_Char>
    1486:	be 01       	movw	r22, r28
    1488:	67 5c       	subi	r22, 0xC7	; 199
    148a:	7f 4f       	sbci	r23, 0xFF	; 255
    148c:	87 e0       	ldi	r24, 0x07	; 7
    148e:	64 d9       	rcall	.-3384   	; 0x758 <LCD_Custom_Char>
    1490:	81 e0       	ldi	r24, 0x01	; 1
    1492:	0e 94 96 01 	call	0x32c	; 0x32c <LCD_Cursor>
    1496:	80 e5       	ldi	r24, 0x50	; 80
    1498:	0e 94 ad 01 	call	0x35a	; 0x35a <LCD_WriteData>
    149c:	82 e0       	ldi	r24, 0x02	; 2
    149e:	0e 94 96 01 	call	0x32c	; 0x32c <LCD_Cursor>
    14a2:	8c e4       	ldi	r24, 0x4C	; 76
    14a4:	0e 94 ad 01 	call	0x35a	; 0x35a <LCD_WriteData>
    14a8:	83 e0       	ldi	r24, 0x03	; 3
    14aa:	0e 94 96 01 	call	0x32c	; 0x32c <LCD_Cursor>
    14ae:	81 e4       	ldi	r24, 0x41	; 65
    14b0:	0e 94 ad 01 	call	0x35a	; 0x35a <LCD_WriteData>
    14b4:	84 e0       	ldi	r24, 0x04	; 4
    14b6:	0e 94 96 01 	call	0x32c	; 0x32c <LCD_Cursor>
    14ba:	89 e5       	ldi	r24, 0x59	; 89
    14bc:	0e 94 ad 01 	call	0x35a	; 0x35a <LCD_WriteData>
    14c0:	85 e0       	ldi	r24, 0x05	; 5
    14c2:	0e 94 96 01 	call	0x32c	; 0x32c <LCD_Cursor>
    14c6:	80 e2       	ldi	r24, 0x20	; 32
    14c8:	0e 94 ad 01 	call	0x35a	; 0x35a <LCD_WriteData>
    14cc:	86 e0       	ldi	r24, 0x06	; 6
    14ce:	0e 94 96 01 	call	0x32c	; 0x32c <LCD_Cursor>
    14d2:	80 e2       	ldi	r24, 0x20	; 32
    14d4:	0e 94 ad 01 	call	0x35a	; 0x35a <LCD_WriteData>
    14d8:	87 e0       	ldi	r24, 0x07	; 7
    14da:	0e 94 96 01 	call	0x32c	; 0x32c <LCD_Cursor>
    14de:	80 e0       	ldi	r24, 0x00	; 0
    14e0:	0e 94 ad 01 	call	0x35a	; 0x35a <LCD_WriteData>
    14e4:	88 e0       	ldi	r24, 0x08	; 8
    14e6:	0e 94 96 01 	call	0x32c	; 0x32c <LCD_Cursor>
    14ea:	81 e0       	ldi	r24, 0x01	; 1
    14ec:	0e 94 ad 01 	call	0x35a	; 0x35a <LCD_WriteData>
    14f0:	89 e0       	ldi	r24, 0x09	; 9
    14f2:	0e 94 96 01 	call	0x32c	; 0x32c <LCD_Cursor>
    14f6:	82 e0       	ldi	r24, 0x02	; 2
    14f8:	0e 94 ad 01 	call	0x35a	; 0x35a <LCD_WriteData>
    14fc:	8a e0       	ldi	r24, 0x0A	; 10
    14fe:	0e 94 96 01 	call	0x32c	; 0x32c <LCD_Cursor>
    1502:	82 e0       	ldi	r24, 0x02	; 2
    1504:	0e 94 ad 01 	call	0x35a	; 0x35a <LCD_WriteData>
    1508:	8b e0       	ldi	r24, 0x0B	; 11
    150a:	0e 94 96 01 	call	0x32c	; 0x32c <LCD_Cursor>
    150e:	81 e0       	ldi	r24, 0x01	; 1
    1510:	0e 94 ad 01 	call	0x35a	; 0x35a <LCD_WriteData>
    1514:	8c e0       	ldi	r24, 0x0C	; 12
    1516:	0e 94 96 01 	call	0x32c	; 0x32c <LCD_Cursor>
    151a:	83 e0       	ldi	r24, 0x03	; 3
    151c:	0e 94 ad 01 	call	0x35a	; 0x35a <LCD_WriteData>
    1520:	8d e0       	ldi	r24, 0x0D	; 13
    1522:	0e 94 96 01 	call	0x32c	; 0x32c <LCD_Cursor>
    1526:	84 e0       	ldi	r24, 0x04	; 4
    1528:	0e 94 ad 01 	call	0x35a	; 0x35a <LCD_WriteData>
    152c:	8e e0       	ldi	r24, 0x0E	; 14
    152e:	0e 94 96 01 	call	0x32c	; 0x32c <LCD_Cursor>
    1532:	85 e0       	ldi	r24, 0x05	; 5
    1534:	0e 94 ad 01 	call	0x35a	; 0x35a <LCD_WriteData>
    1538:	8f e0       	ldi	r24, 0x0F	; 15
    153a:	0e 94 96 01 	call	0x32c	; 0x32c <LCD_Cursor>
    153e:	86 e0       	ldi	r24, 0x06	; 6
    1540:	0e 94 ad 01 	call	0x35a	; 0x35a <LCD_WriteData>
    1544:	80 e1       	ldi	r24, 0x10	; 16
    1546:	0e 94 96 01 	call	0x32c	; 0x32c <LCD_Cursor>
    154a:	87 e0       	ldi	r24, 0x07	; 7
    154c:	0e 94 ad 01 	call	0x35a	; 0x35a <LCD_WriteData>
    1550:	81 e1       	ldi	r24, 0x11	; 17
    1552:	0e 94 96 01 	call	0x32c	; 0x32c <LCD_Cursor>
    1556:	84 e5       	ldi	r24, 0x54	; 84
    1558:	0e 94 ad 01 	call	0x35a	; 0x35a <LCD_WriteData>
    155c:	82 e1       	ldi	r24, 0x12	; 18
    155e:	0e 94 96 01 	call	0x32c	; 0x32c <LCD_Cursor>
    1562:	89 e4       	ldi	r24, 0x49	; 73
    1564:	0e 94 ad 01 	call	0x35a	; 0x35a <LCD_WriteData>
    1568:	83 e1       	ldi	r24, 0x13	; 19
    156a:	0e 94 96 01 	call	0x32c	; 0x32c <LCD_Cursor>
    156e:	8d e4       	ldi	r24, 0x4D	; 77
    1570:	0e 94 ad 01 	call	0x35a	; 0x35a <LCD_WriteData>
    1574:	84 e1       	ldi	r24, 0x14	; 20
    1576:	0e 94 96 01 	call	0x32c	; 0x32c <LCD_Cursor>
    157a:	85 e4       	ldi	r24, 0x45	; 69
    157c:	0e 94 ad 01 	call	0x35a	; 0x35a <LCD_WriteData>
    1580:	85 e1       	ldi	r24, 0x15	; 21
    1582:	0e 94 96 01 	call	0x32c	; 0x32c <LCD_Cursor>
    1586:	80 e2       	ldi	r24, 0x20	; 32
    1588:	0e 94 ad 01 	call	0x35a	; 0x35a <LCD_WriteData>
    158c:	86 e1       	ldi	r24, 0x16	; 22
    158e:	0e 94 96 01 	call	0x32c	; 0x32c <LCD_Cursor>
    1592:	80 e2       	ldi	r24, 0x20	; 32
    1594:	0e 94 ad 01 	call	0x35a	; 0x35a <LCD_WriteData>
    1598:	87 e1       	ldi	r24, 0x17	; 23
    159a:	0e 94 96 01 	call	0x32c	; 0x32c <LCD_Cursor>
    159e:	80 e2       	ldi	r24, 0x20	; 32
    15a0:	0e 94 ad 01 	call	0x35a	; 0x35a <LCD_WriteData>
    15a4:	88 e1       	ldi	r24, 0x18	; 24
    15a6:	0e 94 96 01 	call	0x32c	; 0x32c <LCD_Cursor>
    15aa:	80 e2       	ldi	r24, 0x20	; 32
    15ac:	0e 94 ad 01 	call	0x35a	; 0x35a <LCD_WriteData>
    15b0:	89 e1       	ldi	r24, 0x19	; 25
    15b2:	0e 94 96 01 	call	0x32c	; 0x32c <LCD_Cursor>
    15b6:	80 e2       	ldi	r24, 0x20	; 32
    15b8:	0e 94 ad 01 	call	0x35a	; 0x35a <LCD_WriteData>
    15bc:	8a e1       	ldi	r24, 0x1A	; 26
    15be:	0e 94 96 01 	call	0x32c	; 0x32c <LCD_Cursor>
    15c2:	82 e3       	ldi	r24, 0x32	; 50
    15c4:	0e 94 ad 01 	call	0x35a	; 0x35a <LCD_WriteData>
    15c8:	8b e1       	ldi	r24, 0x1B	; 27
    15ca:	0e 94 96 01 	call	0x32c	; 0x32c <LCD_Cursor>
    15ce:	80 e5       	ldi	r24, 0x50	; 80
    15d0:	0e 94 ad 01 	call	0x35a	; 0x35a <LCD_WriteData>
    15d4:	8c e1       	ldi	r24, 0x1C	; 28
    15d6:	0e 94 96 01 	call	0x32c	; 0x32c <LCD_Cursor>
    15da:	8c e4       	ldi	r24, 0x4C	; 76
    15dc:	0e 94 ad 01 	call	0x35a	; 0x35a <LCD_WriteData>
    15e0:	8d e1       	ldi	r24, 0x1D	; 29
    15e2:	0e 94 96 01 	call	0x32c	; 0x32c <LCD_Cursor>
    15e6:	81 e4       	ldi	r24, 0x41	; 65
    15e8:	0e 94 ad 01 	call	0x35a	; 0x35a <LCD_WriteData>
    15ec:	8e e1       	ldi	r24, 0x1E	; 30
    15ee:	0e 94 96 01 	call	0x32c	; 0x32c <LCD_Cursor>
    15f2:	89 e5       	ldi	r24, 0x59	; 89
    15f4:	0e 94 ad 01 	call	0x35a	; 0x35a <LCD_WriteData>
    15f8:	8f e1       	ldi	r24, 0x1F	; 31
    15fa:	0e 94 96 01 	call	0x32c	; 0x32c <LCD_Cursor>
    15fe:	85 e4       	ldi	r24, 0x45	; 69
    1600:	0e 94 ad 01 	call	0x35a	; 0x35a <LCD_WriteData>
    1604:	80 e2       	ldi	r24, 0x20	; 32
    1606:	0e 94 96 01 	call	0x32c	; 0x32c <LCD_Cursor>
    160a:	82 e5       	ldi	r24, 0x52	; 82
    160c:	0e 94 ad 01 	call	0x35a	; 0x35a <LCD_WriteData>
    1610:	c0 5c       	subi	r28, 0xC0	; 192
    1612:	df 4f       	sbci	r29, 0xFF	; 255
    1614:	0f b6       	in	r0, 0x3f	; 63
    1616:	f8 94       	cli
    1618:	de bf       	out	0x3e, r29	; 62
    161a:	0f be       	out	0x3f, r0	; 63
    161c:	cd bf       	out	0x3d, r28	; 61
    161e:	df 91       	pop	r29
    1620:	cf 91       	pop	r28
    1622:	08 95       	ret

00001624 <dispTopLeft>:
    1624:	cf 93       	push	r28
    1626:	df 93       	push	r29
    1628:	cd b7       	in	r28, 0x3d	; 61
    162a:	de b7       	in	r29, 0x3e	; 62
    162c:	a0 97       	sbiw	r28, 0x20	; 32
    162e:	0f b6       	in	r0, 0x3f	; 63
    1630:	f8 94       	cli
    1632:	de bf       	out	0x3e, r29	; 62
    1634:	0f be       	out	0x3f, r0	; 63
    1636:	cd bf       	out	0x3d, r28	; 61
    1638:	88 e0       	ldi	r24, 0x08	; 8
    163a:	e7 e9       	ldi	r30, 0x97	; 151
    163c:	f1 e0       	ldi	r31, 0x01	; 1
    163e:	de 01       	movw	r26, r28
    1640:	11 96       	adiw	r26, 0x01	; 1
    1642:	01 90       	ld	r0, Z+
    1644:	0d 92       	st	X+, r0
    1646:	8a 95       	dec	r24
    1648:	e1 f7       	brne	.-8      	; 0x1642 <dispTopLeft+0x1e>
    164a:	88 e0       	ldi	r24, 0x08	; 8
    164c:	e7 e8       	ldi	r30, 0x87	; 135
    164e:	f1 e0       	ldi	r31, 0x01	; 1
    1650:	de 01       	movw	r26, r28
    1652:	19 96       	adiw	r26, 0x09	; 9
    1654:	01 90       	ld	r0, Z+
    1656:	0d 92       	st	X+, r0
    1658:	8a 95       	dec	r24
    165a:	e1 f7       	brne	.-8      	; 0x1654 <dispTopLeft+0x30>
    165c:	88 e0       	ldi	r24, 0x08	; 8
    165e:	ef e3       	ldi	r30, 0x3F	; 63
    1660:	f1 e0       	ldi	r31, 0x01	; 1
    1662:	de 01       	movw	r26, r28
    1664:	51 96       	adiw	r26, 0x11	; 17
    1666:	01 90       	ld	r0, Z+
    1668:	0d 92       	st	X+, r0
    166a:	8a 95       	dec	r24
    166c:	e1 f7       	brne	.-8      	; 0x1666 <dispTopLeft+0x42>
    166e:	88 e0       	ldi	r24, 0x08	; 8
    1670:	e7 e4       	ldi	r30, 0x47	; 71
    1672:	f1 e0       	ldi	r31, 0x01	; 1
    1674:	de 01       	movw	r26, r28
    1676:	59 96       	adiw	r26, 0x19	; 25
    1678:	01 90       	ld	r0, Z+
    167a:	0d 92       	st	X+, r0
    167c:	8a 95       	dec	r24
    167e:	e1 f7       	brne	.-8      	; 0x1678 <dispTopLeft+0x54>
    1680:	be 01       	movw	r22, r28
    1682:	6f 5f       	subi	r22, 0xFF	; 255
    1684:	7f 4f       	sbci	r23, 0xFF	; 255
    1686:	80 e0       	ldi	r24, 0x00	; 0
    1688:	67 d8       	rcall	.-3890   	; 0x758 <LCD_Custom_Char>
    168a:	be 01       	movw	r22, r28
    168c:	67 5f       	subi	r22, 0xF7	; 247
    168e:	7f 4f       	sbci	r23, 0xFF	; 255
    1690:	81 e0       	ldi	r24, 0x01	; 1
    1692:	62 d8       	rcall	.-3900   	; 0x758 <LCD_Custom_Char>
    1694:	be 01       	movw	r22, r28
    1696:	6f 5e       	subi	r22, 0xEF	; 239
    1698:	7f 4f       	sbci	r23, 0xFF	; 255
    169a:	82 e0       	ldi	r24, 0x02	; 2
    169c:	5d d8       	rcall	.-3910   	; 0x758 <LCD_Custom_Char>
    169e:	be 01       	movw	r22, r28
    16a0:	67 5e       	subi	r22, 0xE7	; 231
    16a2:	7f 4f       	sbci	r23, 0xFF	; 255
    16a4:	83 e0       	ldi	r24, 0x03	; 3
    16a6:	58 d8       	rcall	.-3920   	; 0x758 <LCD_Custom_Char>
    16a8:	81 e0       	ldi	r24, 0x01	; 1
    16aa:	0e 94 96 01 	call	0x32c	; 0x32c <LCD_Cursor>
    16ae:	80 e0       	ldi	r24, 0x00	; 0
    16b0:	0e 94 ad 01 	call	0x35a	; 0x35a <LCD_WriteData>
    16b4:	82 e0       	ldi	r24, 0x02	; 2
    16b6:	0e 94 96 01 	call	0x32c	; 0x32c <LCD_Cursor>
    16ba:	81 e0       	ldi	r24, 0x01	; 1
    16bc:	0e 94 ad 01 	call	0x35a	; 0x35a <LCD_WriteData>
    16c0:	83 e0       	ldi	r24, 0x03	; 3
    16c2:	0e 94 96 01 	call	0x32c	; 0x32c <LCD_Cursor>
    16c6:	82 e0       	ldi	r24, 0x02	; 2
    16c8:	0e 94 ad 01 	call	0x35a	; 0x35a <LCD_WriteData>
    16cc:	84 e0       	ldi	r24, 0x04	; 4
    16ce:	0e 94 96 01 	call	0x32c	; 0x32c <LCD_Cursor>
    16d2:	83 e0       	ldi	r24, 0x03	; 3
    16d4:	0e 94 ad 01 	call	0x35a	; 0x35a <LCD_WriteData>
    16d8:	85 e0       	ldi	r24, 0x05	; 5
    16da:	0e 94 96 01 	call	0x32c	; 0x32c <LCD_Cursor>
    16de:	80 e2       	ldi	r24, 0x20	; 32
    16e0:	0e 94 ad 01 	call	0x35a	; 0x35a <LCD_WriteData>
    16e4:	86 e0       	ldi	r24, 0x06	; 6
    16e6:	0e 94 96 01 	call	0x32c	; 0x32c <LCD_Cursor>
    16ea:	80 e2       	ldi	r24, 0x20	; 32
    16ec:	0e 94 ad 01 	call	0x35a	; 0x35a <LCD_WriteData>
    16f0:	87 e0       	ldi	r24, 0x07	; 7
    16f2:	0e 94 96 01 	call	0x32c	; 0x32c <LCD_Cursor>
    16f6:	84 e4       	ldi	r24, 0x44	; 68
    16f8:	0e 94 ad 01 	call	0x35a	; 0x35a <LCD_WriteData>
    16fc:	88 e0       	ldi	r24, 0x08	; 8
    16fe:	0e 94 96 01 	call	0x32c	; 0x32c <LCD_Cursor>
    1702:	89 e4       	ldi	r24, 0x49	; 73
    1704:	0e 94 ad 01 	call	0x35a	; 0x35a <LCD_WriteData>
    1708:	89 e0       	ldi	r24, 0x09	; 9
    170a:	0e 94 96 01 	call	0x32c	; 0x32c <LCD_Cursor>
    170e:	86 e4       	ldi	r24, 0x46	; 70
    1710:	0e 94 ad 01 	call	0x35a	; 0x35a <LCD_WriteData>
    1714:	8a e0       	ldi	r24, 0x0A	; 10
    1716:	0e 94 96 01 	call	0x32c	; 0x32c <LCD_Cursor>
    171a:	86 e4       	ldi	r24, 0x46	; 70
    171c:	0e 94 ad 01 	call	0x35a	; 0x35a <LCD_WriteData>
    1720:	8b e0       	ldi	r24, 0x0B	; 11
    1722:	0e 94 96 01 	call	0x32c	; 0x32c <LCD_Cursor>
    1726:	89 e4       	ldi	r24, 0x49	; 73
    1728:	0e 94 ad 01 	call	0x35a	; 0x35a <LCD_WriteData>
    172c:	8c e0       	ldi	r24, 0x0C	; 12
    172e:	0e 94 96 01 	call	0x32c	; 0x32c <LCD_Cursor>
    1732:	83 e4       	ldi	r24, 0x43	; 67
    1734:	0e 94 ad 01 	call	0x35a	; 0x35a <LCD_WriteData>
    1738:	8d e0       	ldi	r24, 0x0D	; 13
    173a:	0e 94 96 01 	call	0x32c	; 0x32c <LCD_Cursor>
    173e:	85 e5       	ldi	r24, 0x55	; 85
    1740:	0e 94 ad 01 	call	0x35a	; 0x35a <LCD_WriteData>
    1744:	8e e0       	ldi	r24, 0x0E	; 14
    1746:	0e 94 96 01 	call	0x32c	; 0x32c <LCD_Cursor>
    174a:	8c e4       	ldi	r24, 0x4C	; 76
    174c:	0e 94 ad 01 	call	0x35a	; 0x35a <LCD_WriteData>
    1750:	8f e0       	ldi	r24, 0x0F	; 15
    1752:	0e 94 96 01 	call	0x32c	; 0x32c <LCD_Cursor>
    1756:	84 e5       	ldi	r24, 0x54	; 84
    1758:	0e 94 ad 01 	call	0x35a	; 0x35a <LCD_WriteData>
    175c:	80 e1       	ldi	r24, 0x10	; 16
    175e:	0e 94 96 01 	call	0x32c	; 0x32c <LCD_Cursor>
    1762:	89 e5       	ldi	r24, 0x59	; 89
    1764:	0e 94 ad 01 	call	0x35a	; 0x35a <LCD_WriteData>
    1768:	81 e1       	ldi	r24, 0x11	; 17
    176a:	0e 94 96 01 	call	0x32c	; 0x32c <LCD_Cursor>
    176e:	84 e5       	ldi	r24, 0x54	; 84
    1770:	0e 94 ad 01 	call	0x35a	; 0x35a <LCD_WriteData>
    1774:	82 e1       	ldi	r24, 0x12	; 18
    1776:	0e 94 96 01 	call	0x32c	; 0x32c <LCD_Cursor>
    177a:	89 e4       	ldi	r24, 0x49	; 73
    177c:	0e 94 ad 01 	call	0x35a	; 0x35a <LCD_WriteData>
    1780:	83 e1       	ldi	r24, 0x13	; 19
    1782:	0e 94 96 01 	call	0x32c	; 0x32c <LCD_Cursor>
    1786:	8d e4       	ldi	r24, 0x4D	; 77
    1788:	0e 94 ad 01 	call	0x35a	; 0x35a <LCD_WriteData>
    178c:	84 e1       	ldi	r24, 0x14	; 20
    178e:	0e 94 96 01 	call	0x32c	; 0x32c <LCD_Cursor>
    1792:	85 e4       	ldi	r24, 0x45	; 69
    1794:	0e 94 ad 01 	call	0x35a	; 0x35a <LCD_WriteData>
    1798:	85 e1       	ldi	r24, 0x15	; 21
    179a:	0e 94 96 01 	call	0x32c	; 0x32c <LCD_Cursor>
    179e:	80 e2       	ldi	r24, 0x20	; 32
    17a0:	0e 94 ad 01 	call	0x35a	; 0x35a <LCD_WriteData>
    17a4:	86 e1       	ldi	r24, 0x16	; 22
    17a6:	0e 94 96 01 	call	0x32c	; 0x32c <LCD_Cursor>
    17aa:	80 e2       	ldi	r24, 0x20	; 32
    17ac:	0e 94 ad 01 	call	0x35a	; 0x35a <LCD_WriteData>
    17b0:	87 e1       	ldi	r24, 0x17	; 23
    17b2:	0e 94 96 01 	call	0x32c	; 0x32c <LCD_Cursor>
    17b6:	80 e2       	ldi	r24, 0x20	; 32
    17b8:	0e 94 ad 01 	call	0x35a	; 0x35a <LCD_WriteData>
    17bc:	88 e1       	ldi	r24, 0x18	; 24
    17be:	0e 94 96 01 	call	0x32c	; 0x32c <LCD_Cursor>
    17c2:	80 e2       	ldi	r24, 0x20	; 32
    17c4:	0e 94 ad 01 	call	0x35a	; 0x35a <LCD_WriteData>
    17c8:	89 e1       	ldi	r24, 0x19	; 25
    17ca:	0e 94 96 01 	call	0x32c	; 0x32c <LCD_Cursor>
    17ce:	80 e2       	ldi	r24, 0x20	; 32
    17d0:	0e 94 ad 01 	call	0x35a	; 0x35a <LCD_WriteData>
    17d4:	8a e1       	ldi	r24, 0x1A	; 26
    17d6:	0e 94 96 01 	call	0x32c	; 0x32c <LCD_Cursor>
    17da:	82 e3       	ldi	r24, 0x32	; 50
    17dc:	0e 94 ad 01 	call	0x35a	; 0x35a <LCD_WriteData>
    17e0:	8b e1       	ldi	r24, 0x1B	; 27
    17e2:	0e 94 96 01 	call	0x32c	; 0x32c <LCD_Cursor>
    17e6:	80 e5       	ldi	r24, 0x50	; 80
    17e8:	0e 94 ad 01 	call	0x35a	; 0x35a <LCD_WriteData>
    17ec:	8c e1       	ldi	r24, 0x1C	; 28
    17ee:	0e 94 96 01 	call	0x32c	; 0x32c <LCD_Cursor>
    17f2:	8c e4       	ldi	r24, 0x4C	; 76
    17f4:	0e 94 ad 01 	call	0x35a	; 0x35a <LCD_WriteData>
    17f8:	8d e1       	ldi	r24, 0x1D	; 29
    17fa:	0e 94 96 01 	call	0x32c	; 0x32c <LCD_Cursor>
    17fe:	81 e4       	ldi	r24, 0x41	; 65
    1800:	0e 94 ad 01 	call	0x35a	; 0x35a <LCD_WriteData>
    1804:	8e e1       	ldi	r24, 0x1E	; 30
    1806:	0e 94 96 01 	call	0x32c	; 0x32c <LCD_Cursor>
    180a:	89 e5       	ldi	r24, 0x59	; 89
    180c:	0e 94 ad 01 	call	0x35a	; 0x35a <LCD_WriteData>
    1810:	8f e1       	ldi	r24, 0x1F	; 31
    1812:	0e 94 96 01 	call	0x32c	; 0x32c <LCD_Cursor>
    1816:	85 e4       	ldi	r24, 0x45	; 69
    1818:	0e 94 ad 01 	call	0x35a	; 0x35a <LCD_WriteData>
    181c:	80 e2       	ldi	r24, 0x20	; 32
    181e:	0e 94 96 01 	call	0x32c	; 0x32c <LCD_Cursor>
    1822:	82 e5       	ldi	r24, 0x52	; 82
    1824:	0e 94 ad 01 	call	0x35a	; 0x35a <LCD_WriteData>
    1828:	a0 96       	adiw	r28, 0x20	; 32
    182a:	0f b6       	in	r0, 0x3f	; 63
    182c:	f8 94       	cli
    182e:	de bf       	out	0x3e, r29	; 62
    1830:	0f be       	out	0x3f, r0	; 63
    1832:	cd bf       	out	0x3d, r28	; 61
    1834:	df 91       	pop	r29
    1836:	cf 91       	pop	r28
    1838:	08 95       	ret

0000183a <dispBottomRight>:
    183a:	cf 93       	push	r28
    183c:	df 93       	push	r29
    183e:	cd b7       	in	r28, 0x3d	; 61
    1840:	de b7       	in	r29, 0x3e	; 62
    1842:	e8 97       	sbiw	r28, 0x38	; 56
    1844:	0f b6       	in	r0, 0x3f	; 63
    1846:	f8 94       	cli
    1848:	de bf       	out	0x3e, r29	; 62
    184a:	0f be       	out	0x3f, r0	; 63
    184c:	cd bf       	out	0x3d, r28	; 61
    184e:	88 e0       	ldi	r24, 0x08	; 8
    1850:	ef e9       	ldi	r30, 0x9F	; 159
    1852:	f1 e0       	ldi	r31, 0x01	; 1
    1854:	de 01       	movw	r26, r28
    1856:	11 96       	adiw	r26, 0x01	; 1
    1858:	01 90       	ld	r0, Z+
    185a:	0d 92       	st	X+, r0
    185c:	8a 95       	dec	r24
    185e:	e1 f7       	brne	.-8      	; 0x1858 <dispBottomRight+0x1e>
    1860:	88 e0       	ldi	r24, 0x08	; 8
    1862:	e7 e9       	ldi	r30, 0x97	; 151
    1864:	f1 e0       	ldi	r31, 0x01	; 1
    1866:	de 01       	movw	r26, r28
    1868:	19 96       	adiw	r26, 0x09	; 9
    186a:	01 90       	ld	r0, Z+
    186c:	0d 92       	st	X+, r0
    186e:	8a 95       	dec	r24
    1870:	e1 f7       	brne	.-8      	; 0x186a <dispBottomRight+0x30>
    1872:	88 e0       	ldi	r24, 0x08	; 8
    1874:	e7 e8       	ldi	r30, 0x87	; 135
    1876:	f1 e0       	ldi	r31, 0x01	; 1
    1878:	de 01       	movw	r26, r28
    187a:	51 96       	adiw	r26, 0x11	; 17
    187c:	01 90       	ld	r0, Z+
    187e:	0d 92       	st	X+, r0
    1880:	8a 95       	dec	r24
    1882:	e1 f7       	brne	.-8      	; 0x187c <dispBottomRight+0x42>
    1884:	88 e0       	ldi	r24, 0x08	; 8
    1886:	ef e3       	ldi	r30, 0x3F	; 63
    1888:	f1 e0       	ldi	r31, 0x01	; 1
    188a:	de 01       	movw	r26, r28
    188c:	59 96       	adiw	r26, 0x19	; 25
    188e:	01 90       	ld	r0, Z+
    1890:	0d 92       	st	X+, r0
    1892:	8a 95       	dec	r24
    1894:	e1 f7       	brne	.-8      	; 0x188e <dispBottomRight+0x54>
    1896:	88 e0       	ldi	r24, 0x08	; 8
    1898:	e7 e4       	ldi	r30, 0x47	; 71
    189a:	f1 e0       	ldi	r31, 0x01	; 1
    189c:	de 01       	movw	r26, r28
    189e:	91 96       	adiw	r26, 0x21	; 33
    18a0:	01 90       	ld	r0, Z+
    18a2:	0d 92       	st	X+, r0
    18a4:	8a 95       	dec	r24
    18a6:	e1 f7       	brne	.-8      	; 0x18a0 <dispBottomRight+0x66>
    18a8:	88 e0       	ldi	r24, 0x08	; 8
    18aa:	ef e1       	ldi	r30, 0x1F	; 31
    18ac:	f1 e0       	ldi	r31, 0x01	; 1
    18ae:	de 01       	movw	r26, r28
    18b0:	99 96       	adiw	r26, 0x29	; 41
    18b2:	01 90       	ld	r0, Z+
    18b4:	0d 92       	st	X+, r0
    18b6:	8a 95       	dec	r24
    18b8:	e1 f7       	brne	.-8      	; 0x18b2 <dispBottomRight+0x78>
    18ba:	88 e0       	ldi	r24, 0x08	; 8
    18bc:	e7 e7       	ldi	r30, 0x77	; 119
    18be:	f1 e0       	ldi	r31, 0x01	; 1
    18c0:	de 01       	movw	r26, r28
    18c2:	d1 96       	adiw	r26, 0x31	; 49
    18c4:	01 90       	ld	r0, Z+
    18c6:	0d 92       	st	X+, r0
    18c8:	8a 95       	dec	r24
    18ca:	e1 f7       	brne	.-8      	; 0x18c4 <dispBottomRight+0x8a>
    18cc:	be 01       	movw	r22, r28
    18ce:	6f 5f       	subi	r22, 0xFF	; 255
    18d0:	7f 4f       	sbci	r23, 0xFF	; 255
    18d2:	80 e0       	ldi	r24, 0x00	; 0
    18d4:	0e 94 ac 03 	call	0x758	; 0x758 <LCD_Custom_Char>
    18d8:	be 01       	movw	r22, r28
    18da:	67 5f       	subi	r22, 0xF7	; 247
    18dc:	7f 4f       	sbci	r23, 0xFF	; 255
    18de:	81 e0       	ldi	r24, 0x01	; 1
    18e0:	0e 94 ac 03 	call	0x758	; 0x758 <LCD_Custom_Char>
    18e4:	be 01       	movw	r22, r28
    18e6:	6f 5e       	subi	r22, 0xEF	; 239
    18e8:	7f 4f       	sbci	r23, 0xFF	; 255
    18ea:	82 e0       	ldi	r24, 0x02	; 2
    18ec:	0e 94 ac 03 	call	0x758	; 0x758 <LCD_Custom_Char>
    18f0:	be 01       	movw	r22, r28
    18f2:	67 5e       	subi	r22, 0xE7	; 231
    18f4:	7f 4f       	sbci	r23, 0xFF	; 255
    18f6:	83 e0       	ldi	r24, 0x03	; 3
    18f8:	0e 94 ac 03 	call	0x758	; 0x758 <LCD_Custom_Char>
    18fc:	be 01       	movw	r22, r28
    18fe:	6f 5d       	subi	r22, 0xDF	; 223
    1900:	7f 4f       	sbci	r23, 0xFF	; 255
    1902:	84 e0       	ldi	r24, 0x04	; 4
    1904:	0e 94 ac 03 	call	0x758	; 0x758 <LCD_Custom_Char>
    1908:	be 01       	movw	r22, r28
    190a:	67 5d       	subi	r22, 0xD7	; 215
    190c:	7f 4f       	sbci	r23, 0xFF	; 255
    190e:	85 e0       	ldi	r24, 0x05	; 5
    1910:	0e 94 ac 03 	call	0x758	; 0x758 <LCD_Custom_Char>
    1914:	be 01       	movw	r22, r28
    1916:	6f 5c       	subi	r22, 0xCF	; 207
    1918:	7f 4f       	sbci	r23, 0xFF	; 255
    191a:	86 e0       	ldi	r24, 0x06	; 6
    191c:	0e 94 ac 03 	call	0x758	; 0x758 <LCD_Custom_Char>
    1920:	81 e0       	ldi	r24, 0x01	; 1
    1922:	0e 94 96 01 	call	0x32c	; 0x32c <LCD_Cursor>
    1926:	80 e5       	ldi	r24, 0x50	; 80
    1928:	0e 94 ad 01 	call	0x35a	; 0x35a <LCD_WriteData>
    192c:	82 e0       	ldi	r24, 0x02	; 2
    192e:	0e 94 96 01 	call	0x32c	; 0x32c <LCD_Cursor>
    1932:	8c e4       	ldi	r24, 0x4C	; 76
    1934:	0e 94 ad 01 	call	0x35a	; 0x35a <LCD_WriteData>
    1938:	83 e0       	ldi	r24, 0x03	; 3
    193a:	0e 94 96 01 	call	0x32c	; 0x32c <LCD_Cursor>
    193e:	81 e4       	ldi	r24, 0x41	; 65
    1940:	0e 94 ad 01 	call	0x35a	; 0x35a <LCD_WriteData>
    1944:	84 e0       	ldi	r24, 0x04	; 4
    1946:	0e 94 96 01 	call	0x32c	; 0x32c <LCD_Cursor>
    194a:	89 e5       	ldi	r24, 0x59	; 89
    194c:	0e 94 ad 01 	call	0x35a	; 0x35a <LCD_WriteData>
    1950:	85 e0       	ldi	r24, 0x05	; 5
    1952:	0e 94 96 01 	call	0x32c	; 0x32c <LCD_Cursor>
    1956:	80 e2       	ldi	r24, 0x20	; 32
    1958:	0e 94 ad 01 	call	0x35a	; 0x35a <LCD_WriteData>
    195c:	86 e0       	ldi	r24, 0x06	; 6
    195e:	0e 94 96 01 	call	0x32c	; 0x32c <LCD_Cursor>
    1962:	80 e2       	ldi	r24, 0x20	; 32
    1964:	0e 94 ad 01 	call	0x35a	; 0x35a <LCD_WriteData>
    1968:	87 e0       	ldi	r24, 0x07	; 7
    196a:	0e 94 96 01 	call	0x32c	; 0x32c <LCD_Cursor>
    196e:	84 e4       	ldi	r24, 0x44	; 68
    1970:	0e 94 ad 01 	call	0x35a	; 0x35a <LCD_WriteData>
    1974:	88 e0       	ldi	r24, 0x08	; 8
    1976:	0e 94 96 01 	call	0x32c	; 0x32c <LCD_Cursor>
    197a:	89 e4       	ldi	r24, 0x49	; 73
    197c:	0e 94 ad 01 	call	0x35a	; 0x35a <LCD_WriteData>
    1980:	89 e0       	ldi	r24, 0x09	; 9
    1982:	0e 94 96 01 	call	0x32c	; 0x32c <LCD_Cursor>
    1986:	86 e4       	ldi	r24, 0x46	; 70
    1988:	0e 94 ad 01 	call	0x35a	; 0x35a <LCD_WriteData>
    198c:	8a e0       	ldi	r24, 0x0A	; 10
    198e:	0e 94 96 01 	call	0x32c	; 0x32c <LCD_Cursor>
    1992:	86 e4       	ldi	r24, 0x46	; 70
    1994:	0e 94 ad 01 	call	0x35a	; 0x35a <LCD_WriteData>
    1998:	8b e0       	ldi	r24, 0x0B	; 11
    199a:	0e 94 96 01 	call	0x32c	; 0x32c <LCD_Cursor>
    199e:	89 e4       	ldi	r24, 0x49	; 73
    19a0:	0e 94 ad 01 	call	0x35a	; 0x35a <LCD_WriteData>
    19a4:	8c e0       	ldi	r24, 0x0C	; 12
    19a6:	0e 94 96 01 	call	0x32c	; 0x32c <LCD_Cursor>
    19aa:	83 e4       	ldi	r24, 0x43	; 67
    19ac:	0e 94 ad 01 	call	0x35a	; 0x35a <LCD_WriteData>
    19b0:	8d e0       	ldi	r24, 0x0D	; 13
    19b2:	0e 94 96 01 	call	0x32c	; 0x32c <LCD_Cursor>
    19b6:	85 e5       	ldi	r24, 0x55	; 85
    19b8:	0e 94 ad 01 	call	0x35a	; 0x35a <LCD_WriteData>
    19bc:	8e e0       	ldi	r24, 0x0E	; 14
    19be:	0e 94 96 01 	call	0x32c	; 0x32c <LCD_Cursor>
    19c2:	8c e4       	ldi	r24, 0x4C	; 76
    19c4:	0e 94 ad 01 	call	0x35a	; 0x35a <LCD_WriteData>
    19c8:	8f e0       	ldi	r24, 0x0F	; 15
    19ca:	0e 94 96 01 	call	0x32c	; 0x32c <LCD_Cursor>
    19ce:	84 e5       	ldi	r24, 0x54	; 84
    19d0:	0e 94 ad 01 	call	0x35a	; 0x35a <LCD_WriteData>
    19d4:	80 e1       	ldi	r24, 0x10	; 16
    19d6:	0e 94 96 01 	call	0x32c	; 0x32c <LCD_Cursor>
    19da:	89 e5       	ldi	r24, 0x59	; 89
    19dc:	0e 94 ad 01 	call	0x35a	; 0x35a <LCD_WriteData>
    19e0:	81 e1       	ldi	r24, 0x11	; 17
    19e2:	0e 94 96 01 	call	0x32c	; 0x32c <LCD_Cursor>
    19e6:	84 e5       	ldi	r24, 0x54	; 84
    19e8:	0e 94 ad 01 	call	0x35a	; 0x35a <LCD_WriteData>
    19ec:	82 e1       	ldi	r24, 0x12	; 18
    19ee:	0e 94 96 01 	call	0x32c	; 0x32c <LCD_Cursor>
    19f2:	89 e4       	ldi	r24, 0x49	; 73
    19f4:	0e 94 ad 01 	call	0x35a	; 0x35a <LCD_WriteData>
    19f8:	83 e1       	ldi	r24, 0x13	; 19
    19fa:	0e 94 96 01 	call	0x32c	; 0x32c <LCD_Cursor>
    19fe:	8d e4       	ldi	r24, 0x4D	; 77
    1a00:	0e 94 ad 01 	call	0x35a	; 0x35a <LCD_WriteData>
    1a04:	84 e1       	ldi	r24, 0x14	; 20
    1a06:	0e 94 96 01 	call	0x32c	; 0x32c <LCD_Cursor>
    1a0a:	85 e4       	ldi	r24, 0x45	; 69
    1a0c:	0e 94 ad 01 	call	0x35a	; 0x35a <LCD_WriteData>
    1a10:	85 e1       	ldi	r24, 0x15	; 21
    1a12:	0e 94 96 01 	call	0x32c	; 0x32c <LCD_Cursor>
    1a16:	80 e2       	ldi	r24, 0x20	; 32
    1a18:	0e 94 ad 01 	call	0x35a	; 0x35a <LCD_WriteData>
    1a1c:	86 e1       	ldi	r24, 0x16	; 22
    1a1e:	0e 94 96 01 	call	0x32c	; 0x32c <LCD_Cursor>
    1a22:	80 e2       	ldi	r24, 0x20	; 32
    1a24:	0e 94 ad 01 	call	0x35a	; 0x35a <LCD_WriteData>
    1a28:	87 e1       	ldi	r24, 0x17	; 23
    1a2a:	0e 94 96 01 	call	0x32c	; 0x32c <LCD_Cursor>
    1a2e:	80 e2       	ldi	r24, 0x20	; 32
    1a30:	0e 94 ad 01 	call	0x35a	; 0x35a <LCD_WriteData>
    1a34:	88 e1       	ldi	r24, 0x18	; 24
    1a36:	0e 94 96 01 	call	0x32c	; 0x32c <LCD_Cursor>
    1a3a:	80 e2       	ldi	r24, 0x20	; 32
    1a3c:	0e 94 ad 01 	call	0x35a	; 0x35a <LCD_WriteData>
    1a40:	89 e1       	ldi	r24, 0x19	; 25
    1a42:	0e 94 96 01 	call	0x32c	; 0x32c <LCD_Cursor>
    1a46:	80 e2       	ldi	r24, 0x20	; 32
    1a48:	0e 94 ad 01 	call	0x35a	; 0x35a <LCD_WriteData>
    1a4c:	8a e1       	ldi	r24, 0x1A	; 26
    1a4e:	0e 94 96 01 	call	0x32c	; 0x32c <LCD_Cursor>
    1a52:	80 e0       	ldi	r24, 0x00	; 0
    1a54:	0e 94 ad 01 	call	0x35a	; 0x35a <LCD_WriteData>
    1a58:	8b e1       	ldi	r24, 0x1B	; 27
    1a5a:	0e 94 96 01 	call	0x32c	; 0x32c <LCD_Cursor>
    1a5e:	81 e0       	ldi	r24, 0x01	; 1
    1a60:	0e 94 ad 01 	call	0x35a	; 0x35a <LCD_WriteData>
    1a64:	8c e1       	ldi	r24, 0x1C	; 28
    1a66:	0e 94 96 01 	call	0x32c	; 0x32c <LCD_Cursor>
    1a6a:	82 e0       	ldi	r24, 0x02	; 2
    1a6c:	0e 94 ad 01 	call	0x35a	; 0x35a <LCD_WriteData>
    1a70:	8d e1       	ldi	r24, 0x1D	; 29
    1a72:	0e 94 96 01 	call	0x32c	; 0x32c <LCD_Cursor>
    1a76:	83 e0       	ldi	r24, 0x03	; 3
    1a78:	0e 94 ad 01 	call	0x35a	; 0x35a <LCD_WriteData>
    1a7c:	8e e1       	ldi	r24, 0x1E	; 30
    1a7e:	0e 94 96 01 	call	0x32c	; 0x32c <LCD_Cursor>
    1a82:	84 e0       	ldi	r24, 0x04	; 4
    1a84:	0e 94 ad 01 	call	0x35a	; 0x35a <LCD_WriteData>
    1a88:	8f e1       	ldi	r24, 0x1F	; 31
    1a8a:	0e 94 96 01 	call	0x32c	; 0x32c <LCD_Cursor>
    1a8e:	85 e0       	ldi	r24, 0x05	; 5
    1a90:	0e 94 ad 01 	call	0x35a	; 0x35a <LCD_WriteData>
    1a94:	80 e2       	ldi	r24, 0x20	; 32
    1a96:	0e 94 96 01 	call	0x32c	; 0x32c <LCD_Cursor>
    1a9a:	86 e0       	ldi	r24, 0x06	; 6
    1a9c:	0e 94 ad 01 	call	0x35a	; 0x35a <LCD_WriteData>
    1aa0:	e8 96       	adiw	r28, 0x38	; 56
    1aa2:	0f b6       	in	r0, 0x3f	; 63
    1aa4:	f8 94       	cli
    1aa6:	de bf       	out	0x3e, r29	; 62
    1aa8:	0f be       	out	0x3f, r0	; 63
    1aaa:	cd bf       	out	0x3d, r28	; 61
    1aac:	df 91       	pop	r29
    1aae:	cf 91       	pop	r28
    1ab0:	08 95       	ret

00001ab2 <dispBottomLeft>:
    1ab2:	cf 93       	push	r28
    1ab4:	df 93       	push	r29
    1ab6:	cd b7       	in	r28, 0x3d	; 61
    1ab8:	de b7       	in	r29, 0x3e	; 62
    1aba:	a0 97       	sbiw	r28, 0x20	; 32
    1abc:	0f b6       	in	r0, 0x3f	; 63
    1abe:	f8 94       	cli
    1ac0:	de bf       	out	0x3e, r29	; 62
    1ac2:	0f be       	out	0x3f, r0	; 63
    1ac4:	cd bf       	out	0x3d, r28	; 61
    1ac6:	88 e0       	ldi	r24, 0x08	; 8
    1ac8:	ef e1       	ldi	r30, 0x1F	; 31
    1aca:	f1 e0       	ldi	r31, 0x01	; 1
    1acc:	de 01       	movw	r26, r28
    1ace:	11 96       	adiw	r26, 0x01	; 1
    1ad0:	01 90       	ld	r0, Z+
    1ad2:	0d 92       	st	X+, r0
    1ad4:	8a 95       	dec	r24
    1ad6:	e1 f7       	brne	.-8      	; 0x1ad0 <dispBottomLeft+0x1e>
    1ad8:	88 e0       	ldi	r24, 0x08	; 8
    1ada:	ef e4       	ldi	r30, 0x4F	; 79
    1adc:	f1 e0       	ldi	r31, 0x01	; 1
    1ade:	de 01       	movw	r26, r28
    1ae0:	19 96       	adiw	r26, 0x09	; 9
    1ae2:	01 90       	ld	r0, Z+
    1ae4:	0d 92       	st	X+, r0
    1ae6:	8a 95       	dec	r24
    1ae8:	e1 f7       	brne	.-8      	; 0x1ae2 <dispBottomLeft+0x30>
    1aea:	88 e0       	ldi	r24, 0x08	; 8
    1aec:	ef e5       	ldi	r30, 0x5F	; 95
    1aee:	f1 e0       	ldi	r31, 0x01	; 1
    1af0:	de 01       	movw	r26, r28
    1af2:	51 96       	adiw	r26, 0x11	; 17
    1af4:	01 90       	ld	r0, Z+
    1af6:	0d 92       	st	X+, r0
    1af8:	8a 95       	dec	r24
    1afa:	e1 f7       	brne	.-8      	; 0x1af4 <dispBottomLeft+0x42>
    1afc:	88 e0       	ldi	r24, 0x08	; 8
    1afe:	ef e8       	ldi	r30, 0x8F	; 143
    1b00:	f1 e0       	ldi	r31, 0x01	; 1
    1b02:	de 01       	movw	r26, r28
    1b04:	59 96       	adiw	r26, 0x19	; 25
    1b06:	01 90       	ld	r0, Z+
    1b08:	0d 92       	st	X+, r0
    1b0a:	8a 95       	dec	r24
    1b0c:	e1 f7       	brne	.-8      	; 0x1b06 <dispBottomLeft+0x54>
    1b0e:	be 01       	movw	r22, r28
    1b10:	67 5e       	subi	r22, 0xE7	; 231
    1b12:	7f 4f       	sbci	r23, 0xFF	; 255
    1b14:	80 e0       	ldi	r24, 0x00	; 0
    1b16:	0e 94 ac 03 	call	0x758	; 0x758 <LCD_Custom_Char>
    1b1a:	be 01       	movw	r22, r28
    1b1c:	6f 5e       	subi	r22, 0xEF	; 239
    1b1e:	7f 4f       	sbci	r23, 0xFF	; 255
    1b20:	81 e0       	ldi	r24, 0x01	; 1
    1b22:	0e 94 ac 03 	call	0x758	; 0x758 <LCD_Custom_Char>
    1b26:	be 01       	movw	r22, r28
    1b28:	67 5f       	subi	r22, 0xF7	; 247
    1b2a:	7f 4f       	sbci	r23, 0xFF	; 255
    1b2c:	82 e0       	ldi	r24, 0x02	; 2
    1b2e:	0e 94 ac 03 	call	0x758	; 0x758 <LCD_Custom_Char>
    1b32:	be 01       	movw	r22, r28
    1b34:	6f 5f       	subi	r22, 0xFF	; 255
    1b36:	7f 4f       	sbci	r23, 0xFF	; 255
    1b38:	83 e0       	ldi	r24, 0x03	; 3
    1b3a:	0e 94 ac 03 	call	0x758	; 0x758 <LCD_Custom_Char>
    1b3e:	81 e0       	ldi	r24, 0x01	; 1
    1b40:	0e 94 96 01 	call	0x32c	; 0x32c <LCD_Cursor>
    1b44:	80 e5       	ldi	r24, 0x50	; 80
    1b46:	0e 94 ad 01 	call	0x35a	; 0x35a <LCD_WriteData>
    1b4a:	82 e0       	ldi	r24, 0x02	; 2
    1b4c:	0e 94 96 01 	call	0x32c	; 0x32c <LCD_Cursor>
    1b50:	8c e4       	ldi	r24, 0x4C	; 76
    1b52:	0e 94 ad 01 	call	0x35a	; 0x35a <LCD_WriteData>
    1b56:	83 e0       	ldi	r24, 0x03	; 3
    1b58:	0e 94 96 01 	call	0x32c	; 0x32c <LCD_Cursor>
    1b5c:	81 e4       	ldi	r24, 0x41	; 65
    1b5e:	0e 94 ad 01 	call	0x35a	; 0x35a <LCD_WriteData>
    1b62:	84 e0       	ldi	r24, 0x04	; 4
    1b64:	0e 94 96 01 	call	0x32c	; 0x32c <LCD_Cursor>
    1b68:	89 e5       	ldi	r24, 0x59	; 89
    1b6a:	0e 94 ad 01 	call	0x35a	; 0x35a <LCD_WriteData>
    1b6e:	85 e0       	ldi	r24, 0x05	; 5
    1b70:	0e 94 96 01 	call	0x32c	; 0x32c <LCD_Cursor>
    1b74:	80 e2       	ldi	r24, 0x20	; 32
    1b76:	0e 94 ad 01 	call	0x35a	; 0x35a <LCD_WriteData>
    1b7a:	86 e0       	ldi	r24, 0x06	; 6
    1b7c:	0e 94 96 01 	call	0x32c	; 0x32c <LCD_Cursor>
    1b80:	80 e2       	ldi	r24, 0x20	; 32
    1b82:	0e 94 ad 01 	call	0x35a	; 0x35a <LCD_WriteData>
    1b86:	87 e0       	ldi	r24, 0x07	; 7
    1b88:	0e 94 96 01 	call	0x32c	; 0x32c <LCD_Cursor>
    1b8c:	84 e4       	ldi	r24, 0x44	; 68
    1b8e:	0e 94 ad 01 	call	0x35a	; 0x35a <LCD_WriteData>
    1b92:	88 e0       	ldi	r24, 0x08	; 8
    1b94:	0e 94 96 01 	call	0x32c	; 0x32c <LCD_Cursor>
    1b98:	89 e4       	ldi	r24, 0x49	; 73
    1b9a:	0e 94 ad 01 	call	0x35a	; 0x35a <LCD_WriteData>
    1b9e:	89 e0       	ldi	r24, 0x09	; 9
    1ba0:	0e 94 96 01 	call	0x32c	; 0x32c <LCD_Cursor>
    1ba4:	86 e4       	ldi	r24, 0x46	; 70
    1ba6:	0e 94 ad 01 	call	0x35a	; 0x35a <LCD_WriteData>
    1baa:	8a e0       	ldi	r24, 0x0A	; 10
    1bac:	0e 94 96 01 	call	0x32c	; 0x32c <LCD_Cursor>
    1bb0:	86 e4       	ldi	r24, 0x46	; 70
    1bb2:	0e 94 ad 01 	call	0x35a	; 0x35a <LCD_WriteData>
    1bb6:	8b e0       	ldi	r24, 0x0B	; 11
    1bb8:	0e 94 96 01 	call	0x32c	; 0x32c <LCD_Cursor>
    1bbc:	89 e4       	ldi	r24, 0x49	; 73
    1bbe:	0e 94 ad 01 	call	0x35a	; 0x35a <LCD_WriteData>
    1bc2:	8c e0       	ldi	r24, 0x0C	; 12
    1bc4:	0e 94 96 01 	call	0x32c	; 0x32c <LCD_Cursor>
    1bc8:	83 e4       	ldi	r24, 0x43	; 67
    1bca:	0e 94 ad 01 	call	0x35a	; 0x35a <LCD_WriteData>
    1bce:	8d e0       	ldi	r24, 0x0D	; 13
    1bd0:	0e 94 96 01 	call	0x32c	; 0x32c <LCD_Cursor>
    1bd4:	85 e5       	ldi	r24, 0x55	; 85
    1bd6:	0e 94 ad 01 	call	0x35a	; 0x35a <LCD_WriteData>
    1bda:	8e e0       	ldi	r24, 0x0E	; 14
    1bdc:	0e 94 96 01 	call	0x32c	; 0x32c <LCD_Cursor>
    1be0:	8c e4       	ldi	r24, 0x4C	; 76
    1be2:	0e 94 ad 01 	call	0x35a	; 0x35a <LCD_WriteData>
    1be6:	8f e0       	ldi	r24, 0x0F	; 15
    1be8:	0e 94 96 01 	call	0x32c	; 0x32c <LCD_Cursor>
    1bec:	84 e5       	ldi	r24, 0x54	; 84
    1bee:	0e 94 ad 01 	call	0x35a	; 0x35a <LCD_WriteData>
    1bf2:	80 e1       	ldi	r24, 0x10	; 16
    1bf4:	0e 94 96 01 	call	0x32c	; 0x32c <LCD_Cursor>
    1bf8:	89 e5       	ldi	r24, 0x59	; 89
    1bfa:	0e 94 ad 01 	call	0x35a	; 0x35a <LCD_WriteData>
    1bfe:	81 e1       	ldi	r24, 0x11	; 17
    1c00:	0e 94 96 01 	call	0x32c	; 0x32c <LCD_Cursor>
    1c04:	80 e0       	ldi	r24, 0x00	; 0
    1c06:	0e 94 ad 01 	call	0x35a	; 0x35a <LCD_WriteData>
    1c0a:	82 e1       	ldi	r24, 0x12	; 18
    1c0c:	0e 94 96 01 	call	0x32c	; 0x32c <LCD_Cursor>
    1c10:	81 e0       	ldi	r24, 0x01	; 1
    1c12:	0e 94 ad 01 	call	0x35a	; 0x35a <LCD_WriteData>
    1c16:	83 e1       	ldi	r24, 0x13	; 19
    1c18:	0e 94 96 01 	call	0x32c	; 0x32c <LCD_Cursor>
    1c1c:	82 e0       	ldi	r24, 0x02	; 2
    1c1e:	0e 94 ad 01 	call	0x35a	; 0x35a <LCD_WriteData>
    1c22:	84 e1       	ldi	r24, 0x14	; 20
    1c24:	0e 94 96 01 	call	0x32c	; 0x32c <LCD_Cursor>
    1c28:	83 e0       	ldi	r24, 0x03	; 3
    1c2a:	0e 94 ad 01 	call	0x35a	; 0x35a <LCD_WriteData>
    1c2e:	85 e1       	ldi	r24, 0x15	; 21
    1c30:	0e 94 96 01 	call	0x32c	; 0x32c <LCD_Cursor>
    1c34:	80 e2       	ldi	r24, 0x20	; 32
    1c36:	0e 94 ad 01 	call	0x35a	; 0x35a <LCD_WriteData>
    1c3a:	86 e1       	ldi	r24, 0x16	; 22
    1c3c:	0e 94 96 01 	call	0x32c	; 0x32c <LCD_Cursor>
    1c40:	80 e2       	ldi	r24, 0x20	; 32
    1c42:	0e 94 ad 01 	call	0x35a	; 0x35a <LCD_WriteData>
    1c46:	87 e1       	ldi	r24, 0x17	; 23
    1c48:	0e 94 96 01 	call	0x32c	; 0x32c <LCD_Cursor>
    1c4c:	80 e2       	ldi	r24, 0x20	; 32
    1c4e:	0e 94 ad 01 	call	0x35a	; 0x35a <LCD_WriteData>
    1c52:	88 e1       	ldi	r24, 0x18	; 24
    1c54:	0e 94 96 01 	call	0x32c	; 0x32c <LCD_Cursor>
    1c58:	80 e2       	ldi	r24, 0x20	; 32
    1c5a:	0e 94 ad 01 	call	0x35a	; 0x35a <LCD_WriteData>
    1c5e:	89 e1       	ldi	r24, 0x19	; 25
    1c60:	0e 94 96 01 	call	0x32c	; 0x32c <LCD_Cursor>
    1c64:	80 e2       	ldi	r24, 0x20	; 32
    1c66:	0e 94 ad 01 	call	0x35a	; 0x35a <LCD_WriteData>
    1c6a:	8a e1       	ldi	r24, 0x1A	; 26
    1c6c:	0e 94 96 01 	call	0x32c	; 0x32c <LCD_Cursor>
    1c70:	82 e3       	ldi	r24, 0x32	; 50
    1c72:	0e 94 ad 01 	call	0x35a	; 0x35a <LCD_WriteData>
    1c76:	8b e1       	ldi	r24, 0x1B	; 27
    1c78:	0e 94 96 01 	call	0x32c	; 0x32c <LCD_Cursor>
    1c7c:	80 e5       	ldi	r24, 0x50	; 80
    1c7e:	0e 94 ad 01 	call	0x35a	; 0x35a <LCD_WriteData>
    1c82:	8c e1       	ldi	r24, 0x1C	; 28
    1c84:	0e 94 96 01 	call	0x32c	; 0x32c <LCD_Cursor>
    1c88:	8c e4       	ldi	r24, 0x4C	; 76
    1c8a:	0e 94 ad 01 	call	0x35a	; 0x35a <LCD_WriteData>
    1c8e:	8d e1       	ldi	r24, 0x1D	; 29
    1c90:	0e 94 96 01 	call	0x32c	; 0x32c <LCD_Cursor>
    1c94:	81 e4       	ldi	r24, 0x41	; 65
    1c96:	0e 94 ad 01 	call	0x35a	; 0x35a <LCD_WriteData>
    1c9a:	8e e1       	ldi	r24, 0x1E	; 30
    1c9c:	0e 94 96 01 	call	0x32c	; 0x32c <LCD_Cursor>
    1ca0:	89 e5       	ldi	r24, 0x59	; 89
    1ca2:	0e 94 ad 01 	call	0x35a	; 0x35a <LCD_WriteData>
    1ca6:	8f e1       	ldi	r24, 0x1F	; 31
    1ca8:	0e 94 96 01 	call	0x32c	; 0x32c <LCD_Cursor>
    1cac:	85 e4       	ldi	r24, 0x45	; 69
    1cae:	0e 94 ad 01 	call	0x35a	; 0x35a <LCD_WriteData>
    1cb2:	80 e2       	ldi	r24, 0x20	; 32
    1cb4:	0e 94 96 01 	call	0x32c	; 0x32c <LCD_Cursor>
    1cb8:	82 e5       	ldi	r24, 0x52	; 82
    1cba:	0e 94 ad 01 	call	0x35a	; 0x35a <LCD_WriteData>
    1cbe:	a0 96       	adiw	r28, 0x20	; 32
    1cc0:	0f b6       	in	r0, 0x3f	; 63
    1cc2:	f8 94       	cli
    1cc4:	de bf       	out	0x3e, r29	; 62
    1cc6:	0f be       	out	0x3f, r0	; 63
    1cc8:	cd bf       	out	0x3d, r28	; 61
    1cca:	df 91       	pop	r29
    1ccc:	cf 91       	pop	r28
    1cce:	08 95       	ret

00001cd0 <displayMenu>:
    1cd0:	80 91 d5 03 	lds	r24, 0x03D5	; 0x8003d5 <mm>
    1cd4:	82 30       	cpi	r24, 0x02	; 2
    1cd6:	d9 f0       	breq	.+54     	; 0x1d0e <displayMenu+0x3e>
    1cd8:	28 f4       	brcc	.+10     	; 0x1ce4 <displayMenu+0x14>
    1cda:	88 23       	and	r24, r24
    1cdc:	41 f0       	breq	.+16     	; 0x1cee <displayMenu+0x1e>
    1cde:	81 30       	cpi	r24, 0x01	; 1
    1ce0:	51 f0       	breq	.+20     	; 0x1cf6 <displayMenu+0x26>
    1ce2:	4d c0       	rjmp	.+154    	; 0x1d7e <displayMenu+0xae>
    1ce4:	83 30       	cpi	r24, 0x03	; 3
    1ce6:	49 f1       	breq	.+82     	; 0x1d3a <displayMenu+0x6a>
    1ce8:	84 30       	cpi	r24, 0x04	; 4
    1cea:	e9 f1       	breq	.+122    	; 0x1d66 <displayMenu+0x96>
    1cec:	48 c0       	rjmp	.+144    	; 0x1d7e <displayMenu+0xae>
    1cee:	81 e0       	ldi	r24, 0x01	; 1
    1cf0:	80 93 d5 03 	sts	0x03D5, r24	; 0x8003d5 <mm>
    1cf4:	47 c0       	rjmp	.+142    	; 0x1d84 <displayMenu+0xb4>
    1cf6:	01 99       	sbic	0x00, 1	; 0
    1cf8:	04 c0       	rjmp	.+8      	; 0x1d02 <displayMenu+0x32>
    1cfa:	82 e0       	ldi	r24, 0x02	; 2
    1cfc:	80 93 d5 03 	sts	0x03D5, r24	; 0x8003d5 <mm>
    1d00:	43 c0       	rjmp	.+134    	; 0x1d88 <displayMenu+0xb8>
    1d02:	02 99       	sbic	0x00, 2	; 0
    1d04:	3f c0       	rjmp	.+126    	; 0x1d84 <displayMenu+0xb4>
    1d06:	83 e0       	ldi	r24, 0x03	; 3
    1d08:	80 93 d5 03 	sts	0x03D5, r24	; 0x8003d5 <mm>
    1d0c:	3f c0       	rjmp	.+126    	; 0x1d8c <displayMenu+0xbc>
    1d0e:	03 99       	sbic	0x00, 3	; 0
    1d10:	04 c0       	rjmp	.+8      	; 0x1d1a <displayMenu+0x4a>
    1d12:	81 e0       	ldi	r24, 0x01	; 1
    1d14:	80 93 d5 03 	sts	0x03D5, r24	; 0x8003d5 <mm>
    1d18:	35 c0       	rjmp	.+106    	; 0x1d84 <displayMenu+0xb4>
    1d1a:	02 99       	sbic	0x00, 2	; 0
    1d1c:	04 c0       	rjmp	.+8      	; 0x1d26 <displayMenu+0x56>
    1d1e:	84 e0       	ldi	r24, 0x04	; 4
    1d20:	80 93 d5 03 	sts	0x03D5, r24	; 0x8003d5 <mm>
    1d24:	35 c0       	rjmp	.+106    	; 0x1d90 <displayMenu+0xc0>
    1d26:	04 99       	sbic	0x00, 4	; 0
    1d28:	2f c0       	rjmp	.+94     	; 0x1d88 <displayMenu+0xb8>
    1d2a:	04 9b       	sbis	0x00, 4	; 0
    1d2c:	fe cf       	rjmp	.-4      	; 0x1d2a <displayMenu+0x5a>
    1d2e:	10 92 00 01 	sts	0x0100, r1	; 0x800100 <__data_start>
    1d32:	81 e0       	ldi	r24, 0x01	; 1
    1d34:	80 93 d5 01 	sts	0x01D5, r24	; 0x8001d5 <inDifficulty>
    1d38:	27 c0       	rjmp	.+78     	; 0x1d88 <displayMenu+0xb8>
    1d3a:	00 99       	sbic	0x00, 0	; 0
    1d3c:	04 c0       	rjmp	.+8      	; 0x1d46 <displayMenu+0x76>
    1d3e:	81 e0       	ldi	r24, 0x01	; 1
    1d40:	80 93 d5 03 	sts	0x03D5, r24	; 0x8003d5 <mm>
    1d44:	1f c0       	rjmp	.+62     	; 0x1d84 <displayMenu+0xb4>
    1d46:	01 99       	sbic	0x00, 1	; 0
    1d48:	04 c0       	rjmp	.+8      	; 0x1d52 <displayMenu+0x82>
    1d4a:	84 e0       	ldi	r24, 0x04	; 4
    1d4c:	80 93 d5 03 	sts	0x03D5, r24	; 0x8003d5 <mm>
    1d50:	1f c0       	rjmp	.+62     	; 0x1d90 <displayMenu+0xc0>
    1d52:	04 99       	sbic	0x00, 4	; 0
    1d54:	1b c0       	rjmp	.+54     	; 0x1d8c <displayMenu+0xbc>
    1d56:	04 9b       	sbis	0x00, 4	; 0
    1d58:	fe cf       	rjmp	.-4      	; 0x1d56 <displayMenu+0x86>
    1d5a:	10 92 00 01 	sts	0x0100, r1	; 0x800100 <__data_start>
    1d5e:	81 e0       	ldi	r24, 0x01	; 1
    1d60:	80 93 d4 01 	sts	0x01D4, r24	; 0x8001d4 <__data_end>
    1d64:	13 c0       	rjmp	.+38     	; 0x1d8c <displayMenu+0xbc>
    1d66:	00 99       	sbic	0x00, 0	; 0
    1d68:	04 c0       	rjmp	.+8      	; 0x1d72 <displayMenu+0xa2>
    1d6a:	82 e0       	ldi	r24, 0x02	; 2
    1d6c:	80 93 d5 03 	sts	0x03D5, r24	; 0x8003d5 <mm>
    1d70:	0b c0       	rjmp	.+22     	; 0x1d88 <displayMenu+0xb8>
    1d72:	03 99       	sbic	0x00, 3	; 0
    1d74:	0d c0       	rjmp	.+26     	; 0x1d90 <displayMenu+0xc0>
    1d76:	83 e0       	ldi	r24, 0x03	; 3
    1d78:	80 93 d5 03 	sts	0x03D5, r24	; 0x8003d5 <mm>
    1d7c:	07 c0       	rjmp	.+14     	; 0x1d8c <displayMenu+0xbc>
    1d7e:	81 e0       	ldi	r24, 0x01	; 1
    1d80:	80 93 d5 03 	sts	0x03D5, r24	; 0x8003d5 <mm>
    1d84:	4f cc       	rjmp	.-1890   	; 0x1624 <dispTopLeft>
    1d86:	08 95       	ret
    1d88:	08 cb       	rjmp	.-2544   	; 0x139a <dispTopRight>
    1d8a:	08 95       	ret
    1d8c:	92 ce       	rjmp	.-732    	; 0x1ab2 <dispBottomLeft>
    1d8e:	08 95       	ret
    1d90:	54 cd       	rjmp	.-1368   	; 0x183a <dispBottomRight>
    1d92:	08 95       	ret

00001d94 <main>:
	
}

int main() {
	DDRA = 0x00; PORTA = 0xFF; // A input
    1d94:	11 b8       	out	0x01, r1	; 1
    1d96:	8f ef       	ldi	r24, 0xFF	; 255
    1d98:	82 b9       	out	0x02, r24	; 2
	DDRB = 0xFF; PORTB = 0x00; // B output
    1d9a:	84 b9       	out	0x04, r24	; 4
    1d9c:	15 b8       	out	0x05, r1	; 5
	DDRD = 0xFF; PORTD = 0x00; // LCD control lines (output)
    1d9e:	8a b9       	out	0x0a, r24	; 10
    1da0:	1b b8       	out	0x0b, r1	; 11

	LCD_init();
    1da2:	0e 94 9e 01 	call	0x33c	; 0x33c <LCD_init>
	nokia_lcd_init();
    1da6:	0e 94 27 02 	call	0x44e	; 0x44e <nokia_lcd_init>
	
	LCD_WriteCommand(0x38); /* function set */
    1daa:	88 e3       	ldi	r24, 0x38	; 56
    1dac:	0e 94 8a 01 	call	0x314	; 0x314 <LCD_WriteCommand>
	LCD_WriteCommand(0x0c); /* display on,cursor off,blink off */
    1db0:	8c e0       	ldi	r24, 0x0C	; 12
    1db2:	0e 94 8a 01 	call	0x314	; 0x314 <LCD_WriteCommand>
	//nokia_lcd_write_string("Hello World!", 1);
	//nokia_lcd_render();
	
	unsigned char timerTime = 1;
	
	TimerSet(timerTime);	// until we start blinking lights, no need to set timer just yet
    1db6:	61 e0       	ldi	r22, 0x01	; 1
    1db8:	70 e0       	ldi	r23, 0x00	; 0
    1dba:	80 e0       	ldi	r24, 0x00	; 0
    1dbc:	90 e0       	ldi	r25, 0x00	; 0
    1dbe:	0e 94 b6 01 	call	0x36c	; 0x36c <TimerSet>
	TimerOn(); 
    1dc2:	0e 94 c7 01 	call	0x38e	; 0x38e <TimerOn>
	
	mm = init;
    1dc6:	10 92 d5 03 	sts	0x03D5, r1	; 0x8003d5 <mm>
	diff = initDif;
    1dca:	10 92 d7 03 	sts	0x03D7, r1	; 0x8003d7 <diff>
	time_s = initTime;
    1dce:	10 92 d6 03 	sts	0x03D6, r1	; 0x8003d6 <time_s>
	
	unsigned short period1second = 12.8;	// speed up - go down. Slow down - go up
	int i = 0;
	unsigned char secPassed = 0;
	
	LCD_ClearScreen();
    1dd2:	0e 94 93 01 	call	0x326	; 0x326 <LCD_ClearScreen>
	while(1){	
		if(inMenu){
    1dd6:	80 91 00 01 	lds	r24, 0x0100	; 0x800100 <__data_start>
    1dda:	81 11       	cpse	r24, r1
			displayMenu();
    1ddc:	79 df       	rcall	.-270    	; 0x1cd0 <displayMenu>
		}
		if(inDifficulty){
    1dde:	80 91 d5 01 	lds	r24, 0x01D5	; 0x8001d5 <inDifficulty>
			setDifficulty();
    1de2:	81 11       	cpse	r24, r1
    1de4:	4e da       	rcall	.-2916   	; 0x1282 <setDifficulty>
		}
		if(inTime){
    1de6:	80 91 d4 01 	lds	r24, 0x01D4	; 0x8001d4 <__data_end>
    1dea:	81 11       	cpse	r24, r1
			setTime();
    1dec:	0e 94 50 06 	call	0xca0	; 0xca0 <setTime>
		}
		nokia_lcd_menu(gameTime, difficulty);
    1df0:	60 91 02 01 	lds	r22, 0x0102	; 0x800102 <difficulty>
    1df4:	80 91 01 01 	lds	r24, 0x0101	; 0x800101 <gameTime>
    1df8:	0e 94 6e 03 	call	0x6dc	; 0x6dc <nokia_lcd_menu>
			i = 0;
		}
		else
		i += timerTime;
		*/
		while(!TimerFlag);
    1dfc:	80 91 d4 03 	lds	r24, 0x03D4	; 0x8003d4 <TimerFlag>
    1e00:	88 23       	and	r24, r24
    1e02:	e1 f3       	breq	.-8      	; 0x1dfc <main+0x68>
		TimerFlag = 0;
    1e04:	10 92 d4 03 	sts	0x03D4, r1	; 0x8003d4 <TimerFlag>
	}
    1e08:	e6 cf       	rjmp	.-52     	; 0x1dd6 <main+0x42>

00001e0a <__udivmodqi4>:
    1e0a:	99 1b       	sub	r25, r25
    1e0c:	79 e0       	ldi	r23, 0x09	; 9
    1e0e:	04 c0       	rjmp	.+8      	; 0x1e18 <__udivmodqi4_ep>

00001e10 <__udivmodqi4_loop>:
    1e10:	99 1f       	adc	r25, r25
    1e12:	96 17       	cp	r25, r22
    1e14:	08 f0       	brcs	.+2      	; 0x1e18 <__udivmodqi4_ep>
    1e16:	96 1b       	sub	r25, r22

00001e18 <__udivmodqi4_ep>:
    1e18:	88 1f       	adc	r24, r24
    1e1a:	7a 95       	dec	r23
    1e1c:	c9 f7       	brne	.-14     	; 0x1e10 <__udivmodqi4_loop>
    1e1e:	80 95       	com	r24
    1e20:	08 95       	ret

00001e22 <_exit>:
    1e22:	f8 94       	cli

00001e24 <__stop_program>:
    1e24:	ff cf       	rjmp	.-2      	; 0x1e24 <__stop_program>
